; WLALINK ($VER: wlalink 5.20 (23.6.2023)) listing file
; 2023-06-23 15:57:36

;Line Bank Slot PC   Offset Hex                             Source
                                                            
                                                            ;»»»»»»»»»»»»»»»»»»»»»»»»»»»»»»»»»»»»»»»»»»»»»»»»»»»»»»»»»»»»»»»»»»»»»»»»»»»»»»
                                                            ; a small test for wla-68000
                                                            ;»»»»»»»»»»»»»»»»»»»»»»»»»»»»»»»»»»»»»»»»»»»»»»»»»»»»»»»»»»»»»»»»»»»»»»»»»»»»»»
                                                            
                                                            .MEMORYMAP
                                                               DEFAULTSLOT     0
                                                               ; ROM area
                                                               SLOTSIZE        $100000
                                                               SLOT            0       $000000
                                                               ; RAM area
                                                               SLOTSIZE        $10000
                                                               SLOT            1       $E00000
                                                            .ENDME
                                                            
                                                            .ROMBANKMAP
                                                            BANKSTOTAL 1
                                                            BANKSIZE $100000
                                                            BANKS 1
                                                            .ENDRO
                                                            
                                                            .EMPTYFILL $AA
                                                            
                                                                    .BANK 0 SLOT 0
                                                                    .ORG 0
                                                            
                                                                                            ; @BT linked.rom
                                                            
   29 0000 0000 0000 0000   30 31 3E                                .db "01>"               ; @BT TEST-01 01 START
   30 0000 0000 0003 0003   4A FC                                   illegal                 ; @BT 4A FC
   31 0000 0000 0005 0005   4E 71                                   nop                     ; @BT 4E 71
   32 0000 0000 0007 0007   4E 70                                   reset                   ; @BT 4E 70
   33 0000 0000 0009 0009   4E 73                                   rte                     ; @BT 4E 73
   34 0000 0000 000B 000B   4E 77                                   rtr                     ; @BT 4E 77
   35 0000 0000 000D 000D   4E 75                                   rts                     ; @BT 4E 75
   36 0000 0000 000F 000F   4E 76                                   trapv                   ; @BT 4E 76
   37 0000 0000 0011 0011   3C 30 31                                .db "<01"               ; @BT END
                                                                    
   39 0000 0000 0014 0014   30 32 3E                                .db "02>"               ; @BT TEST-02 02 START
   40 0000 0000 0017 0017   C1 00                                   abcd d0, d0             ; @BT C1 00
   41 0000 0000 0019 0019   C5 01                                   abcd d1, d2             ; @BT C5 01
   42 0000 0000 001B 001B   C1 08                                   abcd -(a0), -(a0)       ; @BT C1 08
   43 0000 0000 001D 001D   C5 09                                   abcd -(a1), -(a2)       ; @BT C5 09
   44 0000 0000 001F 001F   C1 00                                   abcd.b d0, d0           ; @BT C1 00
   45 0000 0000 0021 0021   C5 01                                   abcd.b d1, d2           ; @BT C5 01
   46 0000 0000 0023 0023   C1 08                                   abcd.b -(a0), -(a0)     ; @BT C1 08
   47 0000 0000 0025 0025   C5 09                                   abcd.b -(a1), -(a2)     ; @BT C5 09
   48 0000 0000 0027 0027   3C 30 32                                .db "<02"               ; @BT END
                                                            
   50 0000 0000 002A 002A   30 33 3E                                .db "03>"               ; @BT TEST-03 03 START
   51 0000 0000 002D 002D   D0 00                                   add.b d0,d0             ; @BT D0 00
   52 0000 0000 002F 002F   D0 40                                   add.w d0,d0             ; @BT D0 40
   53 0000 0000 0031 0031   D0 80                                   add.l d0,d0             ; @BT D0 80
   54 0000 0000 0033 0033   D4 01                                   add.b d1,d2             ; @BT D4 01
   55 0000 0000 0035 0035   D4 41                                   add.w d1,d2             ; @BT D4 41
   56 0000 0000 0037 0037   D4 81                                   add.l d1,d2             ; @BT D4 81
   57 0000 0000 0039 0039   D0 48                                   add.w a0,d0             ; @BT D0 48
   58 0000 0000 003B 003B   D0 88                                   add.l a0,d0             ; @BT D0 88
   59 0000 0000 003D 003D   D4 49                                   add.w a1,d2             ; @BT D4 49
   60 0000 0000 003F 003F   D4 89                                   add.l a1,d2             ; @BT D4 89
   61 0000 0000 0041 0041   D4 11                                   add.b (a1),d2           ; @BT D4 11
   62 0000 0000 0043 0043   D4 51                                   add.w (a1),d2           ; @BT D4 51
   63 0000 0000 0045 0045   D4 91                                   add.l (a1),d2           ; @BT D4 91
   64 0000 0000 0047 0047   D4 21                                   add.b -(a1),d2          ; @BT D4 21
   65 0000 0000 0049 0049   D4 61                                   add.w -(a1),d2          ; @BT D4 61
   66 0000 0000 004B 004B   D4 A1                                   add.l -(a1),d2          ; @BT D4 A1
   67 0000 0000 004D 004D   D4 19                                   add.b (a1)+,d2          ; @BT D4 19
   68 0000 0000 004F 004F   D4 59                                   add.w (a1)+,d2          ; @BT D4 59
   69 0000 0000 0051 0051   D4 99                                   add.l (a1)+,d2          ; @BT D4 99
   70 0000 0000 0053 0053   D2 78 12 34                             add.w $1234.w,d1        ; @BT D2 78 12 34
   71 0000 0000 0057 0057   D2 B8 12 34                             add.l $1234.w,d1        ; @BT D2 B8 12 34
   72 0000 0000 005B 005B   D2 79 12 34 56 78                       add.w $12345678.l,d1    ; @BT D2 79 12 34 56 78
   73 0000 0000 0061 0061   D2 B9 12 34 56 78                       add.l $12345678.l,d1    ; @BT D2 B9 12 34 56 78
   74 0000 0000 0067 0067   D2 B9 12 34 56 78                       add.l 305419896.l,d1    ; @BT D2 B9 12 34 56 78
   75 0000 0000 006D 006D   D2 B9 12 34 56 78                       add.l %00010010001101000101011001111000.l,d1 ; @BT D2 B9 12 34 56 78
   76 0000 0000 0073 0073   D4 69 12 34                             add.w $1234(a1),d2      ; @BT D4 69 12 34
   77 0000 0000 0077 0077   D4 69 12 34                             add.w ($1234,a1),d2     ; @BT D4 69 12 34
   78 0000 0000 007B 007B   D8 32 30 12                             add.b ($12,a2,d3),d4    ; @BT D8 32 30 12
   79 0000 0000 007F 007F   DA 73 40 34                             add.w ($34,a3,d4),d5    ; @BT DA 73 40 34
   80 0000 0000 0083 0083   D4 7A FF FE                     hello1: add.w hello1(pc),d2     ; @BT D4 7A FF FE
   81 0000 0000 0087 0087   D4 7A 00 02                             add.w (yello1,pc),d2    ; @BT D4 7A 00 02
   81 0000 0000 008B 008B   D6 3B 
   82 0000 0000 008D 008D   20 02                           yello1: add.b (mello1,PC,d2),d3 ; @BT D6 3B 20 02
   82 0000 0000 008F 008F   D6 3B 
   83 0000 0000 0091 0091   20 04                           mello1: add.b (cello1,PC,d2),d3 ; @BT D6 3B 20 04
   84 0000 0000 0093 0093   00 03                                   .db 0, 3                ; @BT 00 03
   84 0000 0000 0095 0095   D6 3B 
   85 0000 0000 0097 0097   20 F8                           cello1: add.b (mello1,PC,d2),d3 ; @BT D6 3B 20 F8
   86 0000 0000 0099 0099   D4 7A 00 04                             add.w frank1(pc),d2     ; @BT D4 7A 00 04
   87 0000 0000 009D 009D   01 02                                   .db 1, 2                ; @BT 01 02
   88 0000 0000 009F 009F   3C 30 33                        frank1: .db "<03"               ; @BT END
                                                            
   90 0000 0000 00A2 00A2   30 34 3E                                .db "04>"               ; @BT TEST-04 04 START
   91 0000 0000 00A5 00A5   D5 11                                   add.b d2,(a1)           ; @BT D5 11
   92 0000 0000 00A7 00A7   D5 61                                   add.w d2,-(a1)          ; @BT D5 61
   93 0000 0000 00A9 00A9   D5 99                                   add.l d2,(a1)+          ; @BT D5 99
   94 0000 0000 00AB 00AB   D3 78 12 34                             add.w d1,$1234.w        ; @BT D3 78 12 34
   95 0000 0000 00AF 00AF   D3 B9 12 34 56 78                       add.l d1,$12345678.l    ; @BT D3 B9 12 34 56 78
   96 0000 0000 00B5 00B5   D5 69 12 34                             add.w d2,$1234(a1)      ; @BT D5 69 12 34
   97 0000 0000 00B9 00B9   D5 29 12 34                             add.b d2,($1234,a1)     ; @BT D5 29 12 34
   98 0000 0000 00BD 00BD   D9 32 30 12                             add.b d4,($12,a2,d3)    ; @BT D9 32 30 12
   99 0000 0000 00C1 00C1   3C 30 34                                .db "<04"               ; @BT END
                                                            
                                                                    .define D_1234H = $1234
                                                                    .define D_12345678H = $12345678
                                                                    .define D_1233H = D_1234H - 1
                                                                    .define D_12345677H = D_12345678H - 1
                                                                    
  106 0000 0000 00C4 00C4   30 35 3E                                .db "05>"               ; @BT TEST-05 05 START
  107 0000 0000 00C7 00C7   D2 78 12 34                             add.w D_1234H.w,d1      ; @BT D2 78 12 34
  108 0000 0000 00CB 00CB   D2 B9 12 34 56 78                       add.l D_12345678H.l,d1  ; @BT D2 B9 12 34 56 78
  109 0000 0000 00D1 00D1   D3 78 12 34                             add.w d1,D_1234H.w      ; @BT D3 78 12 34
  110 0000 0000 00D5 00D5   D3 B9 12 34 56 78                       add.l d1,D_12345678H.l  ; @BT D3 B9 12 34 56 78
  111 0000 0000 00DB 00DB   D2 78 12 34                             add.w (D_1233H + 1).w,d1  ; @BT D2 78 12 34
  112 0000 0000 00DF 00DF   D2 B9 12 34 56 78                       add.l (D_12345677H + 1).l,d1 ; @BT D2 B9 12 34 56 78
  113 0000 0000 00E5 00E5   D3 78 12 34                             add.w d1,(D_1233H + 1).w  ; @BT D3 78 12 34
  114 0000 0000 00E9 00E9   D3 B9 12 34 56 78                       add.l d1,(D_12345677H + 1).l ; @BT D3 B9 12 34 56 78
  115 0000 0000 00EF 00EF   3C 30 35                                .db "<05"               ; @BT END
                                                            
  117 0000 0000 00F2 00F2   30 36 3E                                .db "06>"               ; @BT TEST-06 06 START
  118 0000 0000 00F5 00F5   D4 C1                                   add.w d1, a2            ; @BT D4 C1
  119 0000 0000 00F7 00F7   D9 CB                                   add.l a3, a4            ; @BT D9 CB
  120 0000 0000 00F9 00F9   DC D5                                   add.w (a5),a6           ; @BT DC D5
  121 0000 0000 00FB 00FB   D4 D9                                   add.w (a1)+,a2          ; @BT D4 D9
  122 0000 0000 00FD 00FD   D9 E3                                   add.l -(a3),a4          ; @BT D9 E3
  123 0000 0000 00FF 00FF   DE F8 12 34                             add.w $1234.w,a7        ; @BT DE F8 12 34
  124 0000 0000 0103 0103   D1 F9 12 34 56 78                       add.l $12345678.l,a0    ; @BT D1 F9 12 34 56 78
  125 0000 0000 0109 0109   D1 F9 12 34 56 78                       add.l $12345678,a0      ; @BT D1 F9 12 34 56 78
  125 0000 0000 010F 010F   D5 F9 
  126 0000 0000 0111 0111   00 00 AB CE                             add.l label_ABCE,a2     ; @BT D5 F9 00 00 AB CE
  127 0000 0000 0115 0115   D5 F9 00 00 AB CF                       add.l label_ABCE+1,a2   ; @BT D5 F9 00 00 AB CF
  128 0000 0000 011B 011B   D4 E9 12 34                             add.w $1234(a1),a2      ; @BT D4 E9 12 34
  129 0000 0000 011F 011F   D7 E9 12 34                             add.l ($1234,a1),a3     ; @BT D7 E9 12 34
  130 0000 0000 0123 0123   D9 F2 30 12                             add.l ($12,a2,d3),a4    ; @BT D9 F2 30 12
  131 0000 0000 0127 0127   D4 FA FF FE                     hello2: add.w hello2(pc),a2     ; @BT D4 FA FF FE
  132 0000 0000 012B 012B   D4 FA 00 02                             add.w (yello2,pc),a2    ; @BT D4 FA 00 02
  132 0000 0000 012F 012F   D7 FB 
  133 0000 0000 0131 0131   20 02                           yello2: add.l (mello2,PC,d2),a3 ; @BT D7 FB 20 02
  133 0000 0000 0133 0133   D7 FB 
  134 0000 0000 0135 0135   20 04                           mello2: add.l (cello2,PC,d2),a3 ; @BT D7 FB 20 04
  135 0000 0000 0137 0137   00 03                                   .db 0, 3                ; @BT 00 03
  135 0000 0000 0139 0139   D7 FB 
  136 0000 0000 013B 013B   20 F8                           cello2: add.l (mello2,PC,d2),a3 ; @BT D7 FB 20 F8
  137 0000 0000 013D 013D   DC FA 00 04                             add.w frank2(pc),a6     ; @BT DC FA 00 04
  138 0000 0000 0141 0141   01 02                                   .db 1, 2                ; @BT 01 02
  139 0000 0000 0143 0143   3C 30 36                        frank2: .db "<06"               ; @BT END
                                                            
  141 0000 0000 0146 0146   30 37 3E                                .db "07>"               ; @BT TEST-07 07 START
  142 0000 0000 0149 0149   06 81 12 34 56 78                       add.l #$12345678.l,d1   ; @BT 06 81 12 34 56 78
  143 0000 0000 014F 014F   06 81 12 34 56 78                       add.l #$12345678,d1     ; @BT 06 81 12 34 56 78
  144 0000 0000 0155 0155   06 42 12 34                             add.w #$1234,d2         ; @BT 06 42 12 34
  145 0000 0000 0159 0159   06 04 00 12                             add.b #$12,d4           ; @BT 06 04 00 12
  146 0000 0000 015D 015D   06 12 00 FE                             add.b #$fe, (a2)        ; @BT 06 12 00 FE
  147 0000 0000 0161 0161   06 63 12 34                             add.w #$1234, -(a3)     ; @BT 06 63 12 34
  148 0000 0000 0165 0165   06 9C 12 34 56 78                       add.l #$12345678, (a4)+ ; @BT 06 9C 12 34 56 78
  149 0000 0000 016B 016B   06 38 00 12 34 56                       add.b #$12, $3456.w     ; @BT 06 38 00 12 34 56
  150 0000 0000 0171 0171   06 79 AB CD 12 34 56 78                 add.w #$abcd,$12345678.l ; @BT 06 79 AB CD 12 34 56 78
  151 0000 0000 0179 0179   06 79 AB CD 12 34 56 78                 add.w #$abcd, $12345678 ; @BT 06 79 AB CD 12 34 56 78
  152 0000 0000 0181 0181   06 2D 00 12 34 56                       add.b #$12,($3456,a5)   ; @BT 06 2D 00 12 34 56
  153 0000 0000 0187 0187   06 2D 00 12 34 56                       add.b #$12,$3456(a5)    ; @BT 06 2D 00 12 34 56
  154 0000 0000 018D 018D   06 76 12 34 70 56                       add.w #$1234,($56,a6,d7) ; @BT 06 76 12 34 70 56
  155 0000 0000 0193 0193   D3 FC 12 34 56 78                       add.l #$12345678.l,a1   ; @BT D3 FC 12 34 56 78
  156 0000 0000 0199 0199   D5 FC 12 34 56 78                       add.l #$12345678,a2     ; @BT D5 FC 12 34 56 78
  157 0000 0000 019F 019F   D6 FC 12 34                             add.w #$1234,a3         ; @BT D6 FC 12 34
  158 0000 0000 01A3 01A3   3C 30 37                                .db "<07"               ; @BT END
                                                            
  160 0000 0000 01A6 01A6   30 38 3E                                .db "08>"                ; @BT TEST-08 08 START
  161 0000 0000 01A9 01A9   D4 C1                                   adda.w d1, a2            ; @BT D4 C1
  162 0000 0000 01AB 01AB   D9 CB                                   adda.l a3, a4            ; @BT D9 CB
  163 0000 0000 01AD 01AD   DC D5                                   adda.w (a5),a6           ; @BT DC D5
  164 0000 0000 01AF 01AF   D4 D9                                   adda.w (a1)+,a2          ; @BT D4 D9
  165 0000 0000 01B1 01B1   D9 E3                                   adda.l -(a3),a4          ; @BT D9 E3
  166 0000 0000 01B3 01B3   DE F8 12 34                             adda.w $1234.w,a7        ; @BT DE F8 12 34
  167 0000 0000 01B7 01B7   D1 F9 12 34 56 78                       adda.l $12345678.l,a0    ; @BT D1 F9 12 34 56 78
  168 0000 0000 01BD 01BD   D1 F9 12 34 56 78                       adda.l $12345678,a0      ; @BT D1 F9 12 34 56 78
  168 0000 0000 01C3 01C3   D5 F9 
  169 0000 0000 01C5 01C5   00 00 AB CE                             adda.l label_ABCE,a2     ; @BT D5 F9 00 00 AB CE
  170 0000 0000 01C9 01C9   D5 F9 00 00 AB CF                       adda.l label_ABCE+1,a2   ; @BT D5 F9 00 00 AB CF
  171 0000 0000 01CF 01CF   D4 E9 12 34                             adda.w $1234(a1),a2      ; @BT D4 E9 12 34
  172 0000 0000 01D3 01D3   D7 E9 12 34                             adda.l ($1234,a1),a3     ; @BT D7 E9 12 34
  173 0000 0000 01D7 01D7   D9 F2 30 12                             adda.l ($12,a2,d3),a4    ; @BT D9 F2 30 12
  174 0000 0000 01DB 01DB   D4 FA FF FE                     hello3: adda.w hello3(pc),a2     ; @BT D4 FA FF FE
  175 0000 0000 01DF 01DF   D4 FA 00 02                             adda.w (yello3,pc),a2    ; @BT D4 FA 00 02
  175 0000 0000 01E3 01E3   D7 FB 
  176 0000 0000 01E5 01E5   20 02                           yello3: adda.l (mello3,PC,d2),a3 ; @BT D7 FB 20 02
  176 0000 0000 01E7 01E7   D7 FB 
  177 0000 0000 01E9 01E9   20 04                           mello3: adda.l (cello3,PC,d2),a3 ; @BT D7 FB 20 04
  178 0000 0000 01EB 01EB   00 03                                   .db 0, 3                 ; @BT 00 03
  178 0000 0000 01ED 01ED   D7 FB 
  179 0000 0000 01EF 01EF   20 F8                           cello3: adda.l (mello3,PC,d2),a3 ; @BT D7 FB 20 F8
  180 0000 0000 01F1 01F1   DC FA 00 04                             adda.w frank3(pc),a6     ; @BT DC FA 00 04
  181 0000 0000 01F5 01F5   01 02                                   .db 1, 2                 ; @BT 01 02
  182 0000 0000 01F7 01F7   3C 30 38                        frank3: .db "<08"                ; @BT END
                                                            
  184 0000 0000 01FA 01FA   30 39 3E                                .db "09>"                ; @BT TEST-09 09 START
  185 0000 0000 01FD 01FD   06 81 12 34 56 78                       addi.l #$12345678.l,d1   ; @BT 06 81 12 34 56 78
  186 0000 0000 0203 0203   06 81 12 34 56 78                       addi.l #$12345678,d1     ; @BT 06 81 12 34 56 78
  187 0000 0000 0209 0209   06 42 12 34                             addi.w #$1234,d2         ; @BT 06 42 12 34
  188 0000 0000 020D 020D   06 04 00 12                             addi.b #$12,d4           ; @BT 06 04 00 12
  189 0000 0000 0211 0211   06 12 00 FE                             addi.b #$fe, (a2)        ; @BT 06 12 00 FE
  190 0000 0000 0215 0215   06 63 12 34                             addi.w #$1234, -(a3)     ; @BT 06 63 12 34
  191 0000 0000 0219 0219   06 9C 12 34 56 78                       addi.l #$12345678, (a4)+ ; @BT 06 9C 12 34 56 78
  192 0000 0000 021F 021F   06 38 00 12 34 56                       addi.b #$12, $3456.w     ; @BT 06 38 00 12 34 56
  193 0000 0000 0225 0225   06 79 AB CD 12 34 56 78                 addi.w #$abcd,$12345678.l ; @BT 06 79 AB CD 12 34 56 78
  194 0000 0000 022D 022D   06 79 AB CD 12 34 56 78                 addi.w #$abcd, $12345678 ; @BT 06 79 AB CD 12 34 56 78
  195 0000 0000 0235 0235   06 2D 00 12 34 56                       addi.b #$12,($3456,a5)   ; @BT 06 2D 00 12 34 56
  196 0000 0000 023B 023B   06 2D 00 12 34 56                       addi.b #$12,$3456(a5)    ; @BT 06 2D 00 12 34 56
  197 0000 0000 0241 0241   06 76 12 34 70 56                       addi.w #$1234,($56,a6,d7) ; @BT 06 76 12 34 70 56
  198 0000 0000 0247 0247   3C 30 39                                .db "<09"                ; @BT END
                                                            
  200 0000 0000 024A 024A   31 30 3E                                .db "10>"               ; @BT TEST-10 10 START
  201 0000 0000 024D 024D   54 81                                   add.l #2,d1             ; @BT 54 81
  202 0000 0000 024F 024F   56 42                                   add.w #3,d2             ; @BT 56 42
  203 0000 0000 0251 0251   58 04                                   add.b #4,d4             ; @BT 58 04
  204 0000 0000 0253 0253   5A 12                                   add.b #5,(a2)           ; @BT 5A 12
  205 0000 0000 0255 0255   5C 63                                   add.w #6,-(a3)          ; @BT 5C 63
  206 0000 0000 0257 0257   5E 9C                                   add.l #7,(a4)+          ; @BT 5E 9C
  207 0000 0000 0259 0259   50 38 34 56                             add.b #8,$3456.w        ; @BT 50 38 34 56
  208 0000 0000 025D 025D   52 79 12 34 56 78                       add.w #1,$12345678.l    ; @BT 52 79 12 34 56 78
  209 0000 0000 0263 0263   54 79 12 34 56 78                       add.w #2,$12345678      ; @BT 54 79 12 34 56 78
  210 0000 0000 0269 0269   56 2D 34 56                             add.b #3,($3456,a5)     ; @BT 56 2D 34 56
  211 0000 0000 026D 026D   58 2D 34 56                             add.b #4,$3456(a5)      ; @BT 58 2D 34 56
  212 0000 0000 0271 0271   5A 76 70 56                             add.w #5,($56,a6,d7)    ; @BT 5A 76 70 56
  213 0000 0000 0275 0275   5C 89                                   add.l #6,a1             ; @BT 5C 89
  214 0000 0000 0277 0277   5E 8A                                   add.l #7,a2             ; @BT 5E 8A
  215 0000 0000 0279 0279   50 4B                                   add.w #8,a3             ; @BT 50 4B
  216 0000 0000 027B 027B   3C 31 30                                .db "<10"               ; @BT END
                                                            
  218 0000 0000 027E 027E   31 31 3E                                .db "11>"               ; @BT TEST-11 11 START
  219 0000 0000 0281 0281   54 81                                   addq.l #2,d1            ; @BT 54 81
  220 0000 0000 0283 0283   56 42                                   addq.w #3,d2            ; @BT 56 42
  221 0000 0000 0285 0285   58 04                                   addq.b #4,d4            ; @BT 58 04
  222 0000 0000 0287 0287   5A 12                                   addq.b #5,(a2)          ; @BT 5A 12
  223 0000 0000 0289 0289   5C 63                                   addq.w #6,-(a3)         ; @BT 5C 63
  224 0000 0000 028B 028B   5E 9C                                   addq.l #7,(a4)+         ; @BT 5E 9C
  225 0000 0000 028D 028D   50 38 34 56                             addq.b #8,$3456.w       ; @BT 50 38 34 56
  226 0000 0000 0291 0291   52 79 12 34 56 78                       addq.w #1,$12345678.l   ; @BT 52 79 12 34 56 78
  227 0000 0000 0297 0297   54 79 12 34 56 78                       addq.w #2,$12345678     ; @BT 54 79 12 34 56 78
  228 0000 0000 029D 029D   56 2D 34 56                             addq.b #3,($3456,a5)    ; @BT 56 2D 34 56
  229 0000 0000 02A1 02A1   58 2D 34 56                             addq.b #4,$3456(a5)     ; @BT 58 2D 34 56
  230 0000 0000 02A5 02A5   5A 76 70 56                             addq.w #5,($56,a6,d7)   ; @BT 5A 76 70 56
  231 0000 0000 02A9 02A9   5C 89                                   addq.l #6,a1            ; @BT 5C 89
  232 0000 0000 02AB 02AB   5E 8A                                   addq.l #7,a2            ; @BT 5E 8A
  233 0000 0000 02AD 02AD   50 4B                                   addq.w #8,a3            ; @BT 50 4B
  234 0000 0000 02AF 02AF   3C 31 31                                .db "<11"               ; @BT END
                                                            
  236 0000 0000 02B2 02B2   31 32 3E                                .db "12>"               ; @BT TEST-12 12 START
  237 0000 0000 02B5 02B5   D5 01                                   addx.b d1, d2           ; @BT D5 01
  238 0000 0000 02B7 02B7   D9 43                                   addx.w d3, d4           ; @BT D9 43
  239 0000 0000 02B9 02B9   DB 87                                   addx.l d7, d5           ; @BT DB 87
  240 0000 0000 02BB 02BB   D5 09                                   addx.b -(a1), -(a2)     ; @BT D5 09
  241 0000 0000 02BD 02BD   D9 4B                                   addx.w -(a3), -(a4)     ; @BT D9 4B
  242 0000 0000 02BF 02BF   DB 8F                                   addx.l -(a7), -(a5)     ; @BT DB 8F
  243 0000 0000 02C1 02C1   3C 31 32                                .db "<12"               ; @BT END
                                                            
  245 0000 0000 02C4 02C4   31 33 3E                                .db "13>"               ; @BT TEST-13 13 START
  246 0000 0000 02C7 02C7   C4 81                                   and.l d1,d2             ; @BT C4 81
  247 0000 0000 02C9 02C9   C4 11                                   and.b (a1),d2           ; @BT C4 11
  248 0000 0000 02CB 02CB   C4 61                                   and.w -(a1),d2          ; @BT C4 61
  249 0000 0000 02CD 02CD   C4 99                                   and.l (a1)+,d2          ; @BT C4 99
  250 0000 0000 02CF 02CF   C2 B8 12 34                             and.l $1234.w,d1        ; @BT C2 B8 12 34
  251 0000 0000 02D3 02D3   C2 79 12 34 56 78                       and.w $12345678.l,d1    ; @BT C2 79 12 34 56 78
  252 0000 0000 02D9 02D9   C4 69 12 34                             and.w $1234(a1),d2      ; @BT C4 69 12 34
  253 0000 0000 02DD 02DD   C4 69 12 34                             and.w ($1234,a1),d2     ; @BT C4 69 12 34
  254 0000 0000 02E1 02E1   C8 32 30 12                             and.b ($12,a2,d3),d4    ; @BT C8 32 30 12
  255 0000 0000 02E5 02E5   CA 73 40 34                             and.w ($34,a3,d4),d5    ; @BT CA 73 40 34
  256 0000 0000 02E9 02E9   C4 7A FF FE                     hello4: and.w hello4(pc),d2     ; @BT C4 7A FF FE
  257 0000 0000 02ED 02ED   C4 7A 00 02                             and.w (yello4,pc),d2    ; @BT C4 7A 00 02
  257 0000 0000 02F1 02F1   C6 3B 
  258 0000 0000 02F3 02F3   20 02                           yello4: and.b (mello4,PC,d2),d3 ; @BT C6 3B 20 02
  258 0000 0000 02F5 02F5   C6 3B 
  259 0000 0000 02F7 02F7   20 04                           mello4: and.b (cello4,PC,d2),d3 ; @BT C6 3B 20 04
  260 0000 0000 02F9 02F9   00 03                                   .db 0, 3                ; @BT 00 03
  260 0000 0000 02FB 02FB   C6 3B 
  261 0000 0000 02FD 02FD   20 F8                           cello4: and.b (mello4,PC,d2),d3 ; @BT C6 3B 20 F8
  262 0000 0000 02FF 02FF   C4 7A 00 04                             and.w frank4(pc),d2     ; @BT C4 7A 00 04
  263 0000 0000 0303 0303   01 02                                   .db 1, 2                ; @BT 01 02
  264 0000 0000 0305 0305   3C 31 33                        frank4: .db "<13"               ; @BT END
                                                            
  266 0000 0000 0308 0308   31 34 3E                                .db "14>"                ; @BT TEST-14 14 START
  267 0000 0000 030B 030B   02 81 12 34 56 78                       andi.l #$12345678.l,d1   ; @BT 02 81 12 34 56 78
  268 0000 0000 0311 0311   02 81 12 34 56 78                       andi.l #$12345678,d1     ; @BT 02 81 12 34 56 78
  269 0000 0000 0317 0317   02 42 12 34                             andi.w #$1234,d2         ; @BT 02 42 12 34
  270 0000 0000 031B 031B   02 04 00 12                             andi.b #$12,d4           ; @BT 02 04 00 12
  271 0000 0000 031F 031F   02 12 00 FE                             andi.b #$fe, (a2)        ; @BT 02 12 00 FE
  272 0000 0000 0323 0323   02 63 12 34                             andi.w #$1234, -(a3)     ; @BT 02 63 12 34
  273 0000 0000 0327 0327   02 9C 12 34 56 78                       andi.l #$12345678, (a4)+ ; @BT 02 9C 12 34 56 78
  274 0000 0000 032D 032D   02 38 00 12 34 56                       andi.b #$12, $3456.w     ; @BT 02 38 00 12 34 56
  275 0000 0000 0333 0333   02 79 AB CD 12 34 56 78                 andi.w #$abcd,$12345678.l ; @BT 02 79 AB CD 12 34 56 78
  276 0000 0000 033B 033B   02 79 AB CD 12 34 56 78                 andi.w #$abcd, $12345678 ; @BT 02 79 AB CD 12 34 56 78
  277 0000 0000 0343 0343   02 2D 00 12 34 56                       andi.b #$12,($3456,a5)   ; @BT 02 2D 00 12 34 56
  278 0000 0000 0349 0349   02 2D 00 12 34 56                       andi.b #$12,$3456(a5)    ; @BT 02 2D 00 12 34 56
  279 0000 0000 034F 034F   02 76 12 34 70 56                       andi.w #$1234,($56,a6,d7) ; @BT 02 76 12 34 70 56
  280 0000 0000 0355 0355   3C 31 34                                .db "<14"                ; @BT END
                                                            
  282 0000 0000 0358 0358   31 35 3E                                .db "15>"               ; @BT TEST-15 15 START
  283 0000 0000 035B 035B   02 81 00 00 00 02                       and.l #2,d1             ; @BT 02 81 00 00 00 02
  284 0000 0000 0361 0361   02 42 00 03                             and.w #3,d2             ; @BT 02 42 00 03
  285 0000 0000 0365 0365   02 04 00 04                             and.b #4,d4             ; @BT 02 04 00 04
  286 0000 0000 0369 0369   02 12 00 05                             and.b #5,(a2)           ; @BT 02 12 00 05
  287 0000 0000 036D 036D   02 63 00 06                             and.w #6,-(a3)          ; @BT 02 63 00 06
  288 0000 0000 0371 0371   02 9C 00 00 00 07                       and.l #7,(a4)+          ; @BT 02 9C 00 00 00 07
  289 0000 0000 0377 0377   02 38 00 08 34 56                       and.b #8,$3456.w        ; @BT 02 38 00 08 34 56
  290 0000 0000 037D 037D   02 79 00 01 12 34 56 78                 and.w #1,$12345678.l    ; @BT 02 79 00 01 12 34 56 78
  291 0000 0000 0385 0385   02 79 00 02 12 34 56 78                 and.w #2,$12345678      ; @BT 02 79 00 02 12 34 56 78
  292 0000 0000 038D 038D   02 2D 00 03 34 56                       and.b #3,($3456,a5)     ; @BT 02 2D 00 03 34 56
  293 0000 0000 0393 0393   02 2D 00 04 34 56                       and.b #4,$3456(a5)      ; @BT 02 2D 00 04 34 56
  294 0000 0000 0399 0399   02 76 00 05 70 56                       and.w #5,($56,a6,d7)    ; @BT 02 76 00 05 70 56
  295 0000 0000 039F 039F   3C 31 35                                .db "<15"               ; @BT END
                                                            
  297 0000 0000 03A2 03A2   31 36 3E                                .db "16>"              ; @BT TEST-16 16 START
  298 0000 0000 03A5 03A5   02 81 00 00 00 02                       andi.l #2,d1           ; @BT 02 81 00 00 00 02
  299 0000 0000 03AB 03AB   02 42 00 03                             andi.w #3,d2           ; @BT 02 42 00 03
  300 0000 0000 03AF 03AF   02 04 00 04                             andi.b #4,d4           ; @BT 02 04 00 04
  301 0000 0000 03B3 03B3   02 12 00 05                             andi.b #5,(a2)         ; @BT 02 12 00 05
  302 0000 0000 03B7 03B7   02 63 00 06                             andi.w #6,-(a3)        ; @BT 02 63 00 06
  303 0000 0000 03BB 03BB   02 9C 00 00 00 07                       andi.l #7,(a4)+        ; @BT 02 9C 00 00 00 07
  304 0000 0000 03C1 03C1   02 38 00 08 34 56                       andi.b #8,$3456.w      ; @BT 02 38 00 08 34 56
  305 0000 0000 03C7 03C7   02 79 00 01 12 34 56 78                 andi.w #1,$12345678.l  ; @BT 02 79 00 01 12 34 56 78
  306 0000 0000 03CF 03CF   02 79 00 02 12 34 56 78                 andi.w #2,$12345678    ; @BT 02 79 00 02 12 34 56 78
  307 0000 0000 03D7 03D7   02 2D 00 03 34 56                       andi.b #3,($3456,a5)   ; @BT 02 2D 00 03 34 56
  308 0000 0000 03DD 03DD   02 2D 00 04 34 56                       andi.b #4,$3456(a5)    ; @BT 02 2D 00 04 34 56
  309 0000 0000 03E3 03E3   02 76 00 05 70 56                       andi.w #5,($56,a6,d7)  ; @BT 02 76 00 05 70 56
  310 0000 0000 03E9 03E9   02 3C 00 0A                             andi.b #10,CCR         ; @BT 02 3C 00 0A
  311 0000 0000 03ED 03ED   02 3C 00 FF                             andi.b #$ff,CCR        ; @BT 02 3C 00 FF
  312 0000 0000 03F1 03F1   02 7C 12 34                             andi.w #$1234,SR       ; @BT 02 7C 12 34
  313 0000 0000 03F5 03F5   02 7C FF EE                             andi.w #$FFEE,SR       ; @BT 02 7C FF EE
  314 0000 0000 03F9 03F9   3C 31 36                                .db "<16"              ; @BT END
                                                            
  316 0000 0000 03FC 03FC   31 37 3E                                .db "17>"         ; @BT TEST-17 17 START
  317 0000 0000 03FF 03FF   E8 67                                   asr d4,d7         ; @BT E8 67
  318 0000 0000 0401 0401   E3 25                                   asl.b d1,d5       ; @BT E3 25
  319 0000 0000 0403 0403   E8 62                                   asr.w d4,d2       ; @BT E8 62
  320 0000 0000 0405 0405   E0 81                                   asr.l #8,d1       ; @BT E0 81
  321 0000 0000 0407 0407   E5 81                                   asl.l #2,d1       ; @BT E5 81
  322 0000 0000 0409 0409   EA 42                                   asr.w #5,d2       ; @BT EA 42
  323 0000 0000 040B 040B   E0 D2                                   asr (a2)          ; @BT E0 D2
  324 0000 0000 040D 040D   E1 E3                                   asl.w -(a3)       ; @BT E1 E3
  325 0000 0000 040F 040F   E0 DC                                   asr.w (a4)+       ; @BT E0 DC
  326 0000 0000 0411 0411   E1 F8 34 56                             asl.w $3456.w     ; @BT E1 F8 34 56
  327 0000 0000 0415 0415   E1 F9 12 34 56 78                       asl.w $12345678.l ; @BT E1 F9 12 34 56 78
  328 0000 0000 041B 041B   E0 ED 34 56                             asr.w ($3456,a5)  ; @BT E0 ED 34 56
  329 0000 0000 041F 041F   E1 ED 34 56                             asl.w $3456(a5)   ; @BT E1 ED 34 56
  330 0000 0000 0423 0423   E0 F6 70 56                             asr.w ($56,a6,d7) ; @BT E0 F6 70 56
  331 0000 0000 0427 0427   3C 31 37                                .db "<17"         ; @BT END
                                                            
  333 0000 0000 042A 042A   31 38 3E                                .db "18>"         ; @BT TEST-18 18 START
  333 0000 0000 042D 042D   64 
  334 0000 0000 042E 042E   08                                      bcc.b bcc_test_1  ; @BT 64 08
  335 0000 0000 042F 042F   65 00 00 06                             bcs.w bcc_test_1  ; @BT 65 00 00 06
  336 0000 0000 0433 0433   67 00 00 02                             beq.w bcc_test_1  ; @BT 67 00 00 02
  337 0000 0000 0437 0437   6C                              bcc_test_1:
  338 0000 0000 0438 0438   FE                                      bge.b bcc_test_1  ; @BT 6C FE
  339 0000 0000 0439 0439   6E 00 FF FC                             bgt.w bcc_test_1  ; @BT 6E 00 FF FC
  339 0000 0000 043D 043D   62 
  340 0000 0000 043E 043E   F8                                      bhi.b bcc_test_1  ; @BT 62 F8
  341 0000 0000 043F 043F   6F 00 FF F6                             ble.w bcc_test_1  ; @BT 6F 00 FF F6
  341 0000 0000 0443 0443   63 
  342 0000 0000 0444 0444   F2                                      bls.b bcc_test_1  ; @BT 63 F2
  343 0000 0000 0445 0445   6D 00 FF F0                             blt.w bcc_test_1  ; @BT 6D 00 FF F0
  343 0000 0000 0449 0449   6B 
  344 0000 0000 044A 044A   EC                                      bmi.b bcc_test_1  ; @BT 6B EC
  345 0000 0000 044B 044B   66 00 FF EA                             bne.w bcc_test_1  ; @BT 66 00 FF EA
  345 0000 0000 044F 044F   6A 
  346 0000 0000 0450 0450   E6                                      bpl.b bcc_test_1  ; @BT 6A E6
  347 0000 0000 0451 0451   68 00 FF E4                             bvc.w bcc_test_1  ; @BT 68 00 FF E4
  347 0000 0000 0455 0455   69 
  348 0000 0000 0456 0456   E0                                      bvs.b bcc_test_1  ; @BT 69 E0
  349 0000 0000 0457 0457   3C 31 38                                .db "<18"         ; @BT END
                                                            
  351 0000 0000 045A 045A   31 39 3E                                .db "19>"           ; @BT TEST-19 19 START
  352 0000 0000 045D 045D   64 09                                   bcc.b bcc_test_2+1  ; @BT 64 09
  353 0000 0000 045F 045F   65 00 00 07                             bcs.w bcc_test_2+1  ; @BT 65 00 00 07
  354 0000 0000 0463 0463   67 00 00 03                             beq.w bcc_test_2+1  ; @BT 67 00 00 03
                                                            bcc_test_2:
  356 0000 0000 0467 0467   6C FF                                   bge.b bcc_test_2+1  ; @BT 6C FF
  357 0000 0000 0469 0469   6E 00 FF FD                             bgt.w bcc_test_2+1  ; @BT 6E 00 FF FD
  358 0000 0000 046D 046D   62 F9                                   bhi.b bcc_test_2+1  ; @BT 62 F9
  359 0000 0000 046F 046F   6F 00 FF F7                             ble.w bcc_test_2+1  ; @BT 6F 00 FF F7
  360 0000 0000 0473 0473   63 F3                                   bls.b bcc_test_2+1  ; @BT 63 F3
  361 0000 0000 0475 0475   6D 00 FF F1                             blt.w bcc_test_2+1  ; @BT 6D 00 FF F1
  362 0000 0000 0479 0479   6B ED                                   bmi.b bcc_test_2+1  ; @BT 6B ED
  363 0000 0000 047B 047B   66 00 FF EB                             bne.w bcc_test_2+1  ; @BT 66 00 FF EB
  364 0000 0000 047F 047F   6A E7                                   bpl.b bcc_test_2+1  ; @BT 6A E7
  365 0000 0000 0481 0481   68 00 FF E5                             bvc.w bcc_test_2+1  ; @BT 68 00 FF E5
  366 0000 0000 0485 0485   69 E1                                   bvs.b bcc_test_2+1  ; @BT 69 E1
  367 0000 0000 0487 0487   3C 31 39                                .db "<19"           ; @BT END
                                                            
  369 0000 0000 048A 048A   32 30 3E                                .db "20>"          ; @BT TEST-20 20 START
  369 0000 0000 048D 048D   60 
  370 0000 0000 048E 048E   08                                      bra.b bcc_test_3   ; @BT 60 08
  371 0000 0000 048F 048F   60 00 00 06                             bra.w bcc_test_3   ; @BT 60 00 00 06
  372 0000 0000 0493 0493   60 00 00 02                             bra.w bcc_test_3   ; @BT 60 00 00 02
  373 0000 0000 0497 0497   61                              bcc_test_3:
  374 0000 0000 0498 0498   FE                                      bsr.b bcc_test_3   ; @BT 61 FE
  375 0000 0000 0499 0499   61 00 FF FC                             bsr.w bcc_test_3   ; @BT 61 00 FF FC
  375 0000 0000 049D 049D   61 
  376 0000 0000 049E 049E   F8                                      bsr.b bcc_test_3   ; @BT 61 F8
  377 0000 0000 049F 049F   60 09                                   bra.b bcc_test_4+1 ; @BT 60 09
  378 0000 0000 04A1 04A1   60 00 00 07                             bra.w bcc_test_4+1 ; @BT 60 00 00 07
  379 0000 0000 04A5 04A5   60 00 00 03                             bra.w bcc_test_4+1 ; @BT 60 00 00 03
                                                            bcc_test_4:
  381 0000 0000 04A9 04A9   61 FF                                   bsr.b bcc_test_4+1 ; @BT 61 FF
  382 0000 0000 04AB 04AB   61 00 FF FD                             bsr.w bcc_test_4+1 ; @BT 61 00 FF FD
  383 0000 0000 04AF 04AF   61 F9                                   bsr.b bcc_test_4+1 ; @BT 61 F9
  384 0000 0000 04B1 04B1   3C 32 30                                .db "<20"          ; @BT END
                                                            
  386 0000 0000 04B4 04B4   32 31 3E                                .db "21>"           ; @BT TEST-21 21 START
  387 0000 0000 04B7 04B7   0B 46                                   bchg d5,d6          ; @BT 0B 46
  388 0000 0000 04B9 04B9   08 43 00 1E                             bchg #30,d3         ; @BT 08 43 00 1E
  389 0000 0000 04BD 04BD   07 56                                   bchg d3,(a6)        ; @BT 07 56
  390 0000 0000 04BF 04BF   08 5C 00 08                             bchg #8,(a4)+       ; @BT 08 5C 00 08
  391 0000 0000 04C3 04C3   05 6F 12 34                             bchg d2,$1234(a7)   ; @BT 05 6F 12 34
  392 0000 0000 04C7 04C7   08 6E 00 07 56 78                       bchg #7,($5678,a6)  ; @BT 08 6E 00 07 56 78
  393 0000 0000 04CD 04CD   03 75 20 08                             bchg d1,(8,a5,d2)   ; @BT 03 75 20 08
  394 0000 0000 04D1 04D1   0D 61                                   bchg d6,-(a1)       ; @BT 0D 61
  395 0000 0000 04D3 04D3   08 78 00 01 12 34                       bchg #1,$1234.w     ; @BT 08 78 00 01 12 34
  396 0000 0000 04D9 04D9   0F 79 12 34 56 78                       bchg d7,$12345678.l ; @BT 0F 79 12 34 56 78
  397 0000 0000 04DF 04DF   3C 32 31                                .db "<21"           ; @BT END
                                                            
  399 0000 0000 04E2 04E2   32 32 3E                                .db "22>"           ; @BT TEST-22 22 START
  400 0000 0000 04E5 04E5   0B 86                                   bclr d5,d6          ; @BT 0B 86
  401 0000 0000 04E7 04E7   08 83 00 1E                             bclr #30,d3         ; @BT 08 83 00 1E
  402 0000 0000 04EB 04EB   07 96                                   bclr d3,(a6)        ; @BT 07 96
  403 0000 0000 04ED 04ED   08 9C 00 08                             bclr #8,(a4)+       ; @BT 08 9C 00 08
  404 0000 0000 04F1 04F1   05 AF 12 34                             bclr d2,$1234(a7)   ; @BT 05 AF 12 34
  405 0000 0000 04F5 04F5   08 AE 00 07 56 78                       bclr #7,($5678,a6)  ; @BT 08 AE 00 07 56 78
  406 0000 0000 04FB 04FB   03 B5 20 08                             bclr d1,(8,a5,d2)   ; @BT 03 B5 20 08
  407 0000 0000 04FF 04FF   0D A1                                   bclr d6,-(a1)       ; @BT 0D A1
  408 0000 0000 0501 0501   08 B8 00 01 12 34                       bclr #1,$1234.w     ; @BT 08 B8 00 01 12 34
  409 0000 0000 0507 0507   0F B9 12 34 56 78                       bclr d7,$12345678.l ; @BT 0F B9 12 34 56 78
  410 0000 0000 050D 050D   3C 32 32                                .db "<22"           ; @BT END
                                                            
  412 0000 0000 0510 0510   32 33 3E                                .db "23>"           ; @BT TEST-23 23 START
  413 0000 0000 0513 0513   0B C6                                   bset d5,d6          ; @BT 0B C6
  414 0000 0000 0515 0515   08 C3 00 1E                             bset #30,d3         ; @BT 08 C3 00 1E
  415 0000 0000 0519 0519   07 D6                                   bset d3,(a6)        ; @BT 07 D6
  416 0000 0000 051B 051B   08 DC 00 08                             bset #8,(a4)+       ; @BT 08 DC 00 08
  417 0000 0000 051F 051F   05 EF 12 34                             bset d2,$1234(a7)   ; @BT 05 EF 12 34
  418 0000 0000 0523 0523   08 EE 00 07 56 78                       bset #7,($5678,a6)  ; @BT 08 EE 00 07 56 78
  419 0000 0000 0529 0529   03 F5 20 08                             bset d1,(8,a5,d2)   ; @BT 03 F5 20 08
  420 0000 0000 052D 052D   0D E1                                   bset d6,-(a1)       ; @BT 0D E1
  420 0000 0000 052F 052F   08 F8 00 01 
  421 0000 0000 0533 0533   AB CE                                   bset #1,label_ABCE.w ; @BT 08 F8 00 01 AB CE
  421 0000 0000 0535 0535   08 F9 00 01 
  422 0000 0000 0539 0539   00 00 AB CE                             bset #1,label_ABCE  ; @BT 08 F9 00 01 00 00 AB CE
  423 0000 0000 053D 053D   0F F9 12 34 56 78                       bset d7,$12345678.l ; @BT 0F F9 12 34 56 78
  424 0000 0000 0543 0543   3C 32 33                                .db "<23"           ; @BT END
                                                            
  426 0000 0000 0546 0546   32 34 3E                                .db "24>"           ; @BT TEST-24 24 START
  427 0000 0000 0549 0549   0B 06                                   btst d5,d6          ; @BT 0B 06
  428 0000 0000 054B 054B   08 03 00 1E                             btst #30,d3         ; @BT 08 03 00 1E
  429 0000 0000 054F 054F   07 16                                   btst d3,(a6)        ; @BT 07 16
  430 0000 0000 0551 0551   08 1C 00 08                             btst #8,(a4)+       ; @BT 08 1C 00 08
  431 0000 0000 0555 0555   05 2F 12 34                             btst d2,$1234(a7)   ; @BT 05 2F 12 34
  432 0000 0000 0559 0559   08 2E 00 07 56 78                       btst #7,($5678,a6)  ; @BT 08 2E 00 07 56 78
  433 0000 0000 055F 055F   03 35 20 08                             btst d1,(8,a5,d2)   ; @BT 03 35 20 08
  434 0000 0000 0563 0563   0D 21                                   btst d6,-(a1)       ; @BT 0D 21
  435 0000 0000 0565 0565   08 38 00 01 12 34                       btst #1,$1234.w     ; @BT 08 38 00 01 12 34
  436 0000 0000 056B 056B   0F 39 12 34 56 78                       btst d7,$12345678.l ; @BT 0F 39 12 34 56 78
  437 0000 0000 0571 0571   3C 32 34                                .db "<24"           ; @BT END
                                                            
  439 0000 0000 0574 0574   32 35 3E                                .db "25>"           ; @BT TEST-25 25 START
  440 0000 0000 0577 0577   4F 83                                   chk d3,d7           ; @BT 4F 83
  441 0000 0000 0579 0579   4D 91                                   chk (a1),d6         ; @BT 4D 91
  442 0000 0000 057B 057B   4B 9A                                   chk (a2)+,d5        ; @BT 4B 9A
  443 0000 0000 057D 057D   49 A3                                   chk -(a3),d4        ; @BT 49 A3
  444 0000 0000 057F 057F   47 AC 12 34                             chk ($1234,a4),d3   ; @BT 47 AC 12 34
  445 0000 0000 0583 0583   45 AD 12 34                             chk $1234(a5),d2    ; @BT 45 AD 12 34
  446 0000 0000 0587 0587   41 B6 10 12                             chk ($12,a6,d1),d0  ; @BT 41 B6 10 12
  447 0000 0000 058B 058B   43 B8 12 34                             chk $1234.w,d1      ; @BT 43 B8 12 34
  448 0000 0000 058F 058F   45 B9 12 34 56 78                       chk $12345678.l,d2  ; @BT 45 B9 12 34 56 78
  449 0000 0000 0595 0595   47 BC 12 34                             chk #$1234,d3       ; @BT 47 BC 12 34
  450 0000 0000 0599 0599   49 BA 00 0D                             chk (end_25,pc),d4  ; @BT 49 BA 00 0D
  451 0000 0000 059D 059D   4B BA 00 09                             chk end_25(pc),d5   ; @BT 4B BA 00 09
  451 0000 0000 05A1 05A1   4F BB 
  452 0000 0000 05A3 05A3   60 05                                   chk (end_25,pc,d6),d7 ; @BT 4F BB 60 05
  453 0000 0000 05A5 05A5   3C 32 35                                .db "<25"           ; @BT END
                                                            end_25: 
                                                            
  456 0000 0000 05A8 05A8   32 36 3E                                .db "26>"           ; @BT TEST-26 26 START
  457 0000 0000 05AB 05AB   42 06                                   clr.b d6            ; @BT 42 06
  458 0000 0000 05AD 05AD   42 54                                   clr.w (a4)          ; @BT 42 54
  459 0000 0000 05AF 05AF   42 A7                                   clr.l -(a7)         ; @BT 42 A7
  460 0000 0000 05B1 05B1   42 1E                                   clr.b (a6)+         ; @BT 42 1E
  461 0000 0000 05B3 05B3   42 6D 12 34                             clr.w $1234(a5)     ; @BT 42 6D 12 34
  462 0000 0000 05B7 05B7   42 AB 12 34                             clr.l ($1234,a3)    ; @BT 42 AB 12 34
  463 0000 0000 05BB 05BB   42 31 50 12                             clr.b ($12,a1,d5)   ; @BT 42 31 50 12
  464 0000 0000 05BF 05BF   42 B8 12 34                             clr.l $1234.w       ; @BT 42 B8 12 34
  465 0000 0000 05C3 05C3   42 79 12 34 56 78                       clr.w $12345678.l   ; @BT 42 79 12 34 56 78
  466 0000 0000 05C9 05C9   3C 32 36                                .db "<26"           ; @BT END
                                                            
  468 0000 0000 05CC 05CC   32 37 3E                                .db "27>"           ; @BT TEST-27 27 START
  469 0000 0000 05CF 05CF   BF 0B                                   cmp.b (a3)+,(a7)+   ; @BT BF 0B
  470 0000 0000 05D1 05D1   B3 4E                                   cmp.w (a6)+,(a1)+   ; @BT B3 4E
  471 0000 0000 05D3 05D3   BF 0B                                   cmpm.b (a3)+,(a7)+  ; @BT BF 0B
  472 0000 0000 05D5 05D5   B3 4E                                   cmpm.w (a6)+,(a1)+  ; @BT B3 4E
  473 0000 0000 05D7 05D7   BE 83                                   cmp.l d3,d7         ; @BT BE 83
  474 0000 0000 05D9 05D9   BC 11                                   cmp.b (a1),d6       ; @BT BC 11
  475 0000 0000 05DB 05DB   BA 5A                                   cmp.w (a2)+,d5      ; @BT BA 5A
  476 0000 0000 05DD 05DD   B8 A3                                   cmp.l -(a3),d4      ; @BT B8 A3
  477 0000 0000 05DF 05DF   B6 2C 12 34                             cmp.b ($1234,a4),d3   ; @BT B6 2C 12 34
  478 0000 0000 05E3 05E3   B4 6D 12 34                             cmp.w $1234(a5),d2    ; @BT B4 6D 12 34
  479 0000 0000 05E7 05E7   B0 B6 10 12                             cmp.l ($12,a6,d1),d0  ; @BT B0 B6 10 12
  480 0000 0000 05EB 05EB   B2 38 12 34                             cmp.b $1234.w,d1      ; @BT B2 38 12 34
  481 0000 0000 05EF 05EF   B4 79 12 34 56 78                       cmp.w $12345678.l,d2  ; @BT B4 79 12 34 56 78
  482 0000 0000 05F5 05F5   0C 83 00 00 12 34                       cmp.l #$1234,d3       ; @BT 0C 83 00 00 12 34
  483 0000 0000 05FB 05FB   B8 3A 00 0A                             cmp.b (end_27,pc),d4  ; @BT B8 3A 00 0A
  484 0000 0000 05FF 05FF   BA 7A 00 06                             cmp.w end_27(pc),d5   ; @BT BA 7A 00 06
  484 0000 0000 0603 0603   BE BB 
  485 0000 0000 0605 0605   60 02                                   cmp.l (end_27,pc,d6),d7 ; @BT BE BB 60 02
  486 0000 0000 0607 0607   3C 32 37                        end_27: .db "<27"           ; @BT END
                                                            
  488 0000 0000 060A 060A   32 38 3E                                .db "28>"           ; @BT TEST-28 28 START
  489 0000 0000 060D 060D   0C 11 00 12                             cmp.b #$12,(a1)              ; @BT 0C 11 00 12
  490 0000 0000 0611 0611   0C 5A 12 34                             cmp.w #$1234,(a2)+           ; @BT 0C 5A 12 34
  491 0000 0000 0615 0615   0C A3 12 34 56 78                       cmp.l #$12345678,-(a3)       ; @BT 0C A3 12 34 56 78
  492 0000 0000 061B 061B   0C 2C 00 56 12 34                       cmp.b #$56,($1234,a4)        ; @BT 0C 2C 00 56 12 34
  493 0000 0000 0621 0621   0C 6D 56 78 12 34                       cmp.w #$5678,$1234(a5)       ; @BT 0C 6D 56 78 12 34
  494 0000 0000 0627 0627   0C B6 12 34 56 78 10 12                 cmp.l #$12345678,($12,a6,d1) ; @BT 0C B6 12 34 56 78 10 12
  495 0000 0000 062F 062F   0C 38 00 56 12 34                       cmp.b #$56,$1234.w           ; @BT 0C 38 00 56 12 34
  496 0000 0000 0635 0635   0C 79 12 34 12 34 56 78                 cmp.w #$1234,$12345678.l     ; @BT 0C 79 12 34 12 34 56 78
  497 0000 0000 063D 063D   3C 32 38                                .db "<28"           ; @BT END
                                                            
  499 0000 0000 0640 0640   32 39 3E                                .db "29>"           ; @BT TEST-29 29 START
  500 0000 0000 0643 0643   B3 C3                                   cmp.l d3,a1         ; @BT B3 C3
  501 0000 0000 0645 0645   BD D1                                   cmp.l (a1),a6       ; @BT BD D1
  502 0000 0000 0647 0647   BA DA                                   cmp.w (a2)+,a5      ; @BT BA DA
  503 0000 0000 0649 0649   B9 E3                                   cmp.l -(a3),a4      ; @BT B9 E3
  504 0000 0000 064B 064B   B7 EC 12 34                             cmp.l ($1234,a4),a3   ; @BT B7 EC 12 34
  505 0000 0000 064F 064F   B4 ED 12 34                             cmp.w $1234(a5),a2    ; @BT B4 ED 12 34
  506 0000 0000 0653 0653   B1 F6 10 12                             cmp.l ($12,a6,d1),a0  ; @BT B1 F6 10 12
  507 0000 0000 0657 0657   B3 F8 12 34                             cmp.l $1234.w,a1      ; @BT B3 F8 12 34
  508 0000 0000 065B 065B   B4 F9 12 34 56 78                       cmp.w $12345678.l,a2  ; @BT B4 F9 12 34 56 78
  509 0000 0000 0661 0661   B7 FC 00 00 12 34                       cmp.l #$1234,a3       ; @BT B7 FC 00 00 12 34
  510 0000 0000 0667 0667   B9 FA 00 0A                             cmp.l (end_29,pc),a4  ; @BT B9 FA 00 0A
  511 0000 0000 066B 066B   BA FA 00 06                             cmp.w end_29(pc),a5   ; @BT BA FA 00 06
  511 0000 0000 066F 066F   BF FB 
  512 0000 0000 0671 0671   60 02                                   cmp.l (end_29,pc,d6),a7 ; @BT BF FB 60 02
  513 0000 0000 0673 0673   3C 32 39                        end_29: .db "<29"           ; @BT END
                                                            
  515 0000 0000 0676 0676   33 30 3E                                .db "30>"           ; @BT TEST-30 30 START
  516 0000 0000 0679 0679   0C 11 00 12                             cmpi.b #$12,(a1)              ; @BT 0C 11 00 12
  517 0000 0000 067D 067D   0C 5A 12 34                             cmpi.w #$1234,(a2)+           ; @BT 0C 5A 12 34
  518 0000 0000 0681 0681   0C A3 12 34 56 78                       cmpi.l #$12345678,-(a3)       ; @BT 0C A3 12 34 56 78
  519 0000 0000 0687 0687   0C 2C 00 56 12 34                       cmpi.b #$56,($1234,a4)        ; @BT 0C 2C 00 56 12 34
  520 0000 0000 068D 068D   0C 6D 56 78 12 34                       cmpi.w #$5678,$1234(a5)       ; @BT 0C 6D 56 78 12 34
  521 0000 0000 0693 0693   0C B6 12 34 56 78 10 12                 cmpi.l #$12345678,($12,a6,d1) ; @BT 0C B6 12 34 56 78 10 12
  522 0000 0000 069B 069B   0C 38 00 56 12 34                       cmpi.b #$56,$1234.w           ; @BT 0C 38 00 56 12 34
  523 0000 0000 06A1 06A1   0C 79 12 34 12 34 56 78                 cmpi.w #$1234,$12345678.l     ; @BT 0C 79 12 34 12 34 56 78
  524 0000 0000 06A9 06A9   3C 33 30                                .db "<30"           ; @BT END
                                                            
  526 0000 0000 06AC 06AC   33 31 3E                                .db "31>"           ; @BT TEST-31 31 START
  527 0000 0000 06AF 06AF   B3 C3                                   cmpa.l d3,a1         ; @BT B3 C3
  528 0000 0000 06B1 06B1   BD D1                                   cmpa.l (a1),a6       ; @BT BD D1
  529 0000 0000 06B3 06B3   BA DA                                   cmpa.w (a2)+,a5      ; @BT BA DA
  530 0000 0000 06B5 06B5   B9 E3                                   cmpa.l -(a3),a4      ; @BT B9 E3
  531 0000 0000 06B7 06B7   B7 EC 12 34                             cmpa.l ($1234,a4),a3   ; @BT B7 EC 12 34
  532 0000 0000 06BB 06BB   B4 ED 12 34                             cmpa.w $1234(a5),a2    ; @BT B4 ED 12 34
  533 0000 0000 06BF 06BF   B1 F6 10 12                             cmpa.l ($12,a6,d1),a0  ; @BT B1 F6 10 12
  534 0000 0000 06C3 06C3   B3 F8 12 34                             cmpa.l $1234.w,a1      ; @BT B3 F8 12 34
  535 0000 0000 06C7 06C7   B4 F9 12 34 56 78                       cmpa.w $12345678.l,a2  ; @BT B4 F9 12 34 56 78
  536 0000 0000 06CD 06CD   B7 FC 00 00 12 34                       cmpa.l #$1234,a3       ; @BT B7 FC 00 00 12 34
  537 0000 0000 06D3 06D3   B9 FA 00 0A                             cmpa.l (end_31,pc),a4  ; @BT B9 FA 00 0A
  538 0000 0000 06D7 06D7   BA FA 00 06                             cmpa.w end_31(pc),a5   ; @BT BA FA 00 06
  538 0000 0000 06DB 06DB   BF FB 
  539 0000 0000 06DD 06DD   60 02                                   cmpa.l (end_31,pc,d6),a7 ; @BT BF FB 60 02
  540 0000 0000 06DF 06DF   3C 33 31                        end_31: .db "<31"           ; @BT END
                                                            
  542 0000 0000 06E2 06E2   33 32 3E                                .db "32>"           ; @BT TEST-32 32 START
  543 0000 0000 06E5 06E5   54 C8 00 0A                             dbcc d0,label_32       ; @BT 54 C8 00 0A
  544 0000 0000 06E9 06E9   55 C9 00 06                             dbcs d1,label_32       ; @BT 55 C9 00 06
  545 0000 0000 06ED 06ED   57 CA 00 02                             dbeq d2,label_32       ; @BT 57 CA 00 02
                                                            label_32:
  547 0000 0000 06F1 06F1   51 CB FF FE                             dbf d3,label_32        ; @BT 51 CB FF FE
  548 0000 0000 06F5 06F5   5C CC FF FA                             dbge d4,label_32       ; @BT 5C CC FF FA
  549 0000 0000 06F9 06F9   5E CD FF F6                             dbgt d5,label_32       ; @BT 5E CD FF F6
  550 0000 0000 06FD 06FD   52 CE FF F2                             dbhi d6,label_32       ; @BT 52 CE FF F2
  551 0000 0000 0701 0701   5F CF FF EE                             dble d7,label_32       ; @BT 5F CF FF EE
  552 0000 0000 0705 0705   53 C8 FF EA                             dbls d0,label_32       ; @BT 53 C8 FF EA
  553 0000 0000 0709 0709   5D C9 FF E6                             dblt d1,label_32       ; @BT 5D C9 FF E6
  554 0000 0000 070D 070D   5B CA FF E2                             dbmi d2,label_32       ; @BT 5B CA FF E2
  555 0000 0000 0711 0711   56 CB FF DE                             dbne d3,label_32       ; @BT 56 CB FF DE
  556 0000 0000 0715 0715   5A CC FF DA                             dbpl d4,label_32       ; @BT 5A CC FF DA
  557 0000 0000 0719 0719   50 CD FF D6                             dbt d5,label_32        ; @BT 50 CD FF D6
  558 0000 0000 071D 071D   58 CE FF D2                             dbvc d6,label_32       ; @BT 58 CE FF D2
  559 0000 0000 0721 0721   59 CF FF CE                             dbvs d7,label_32       ; @BT 59 CF FF CE
  560 0000 0000 0725 0725   51 C8 FF CA                             dbra d0,label_32       ; @BT 51 C8 FF CA
  561 0000 0000 0729 0729   3C 33 32                                .db "<32"           ; @BT END
                                                            
  563 0000 0000 072C 072C   33 33 3E                                .db "33>"            ; @BT TEST-33 33 START
  564 0000 0000 072F 072F   8F C3                                   divs d3,d7           ; @BT 8F C3
  565 0000 0000 0731 0731   8D D1                                   divs (a1),d6         ; @BT 8D D1
  566 0000 0000 0733 0733   8B DA                                   divs (a2)+,d5        ; @BT 8B DA
  567 0000 0000 0735 0735   89 E3                                   divs -(a3),d4        ; @BT 89 E3
  568 0000 0000 0737 0737   87 EC 12 34                             divs ($1234,a4),d3   ; @BT 87 EC 12 34
  569 0000 0000 073B 073B   85 ED 12 34                             divs $1234(a5),d2    ; @BT 85 ED 12 34
  570 0000 0000 073F 073F   81 F6 10 12                             divs ($12,a6,d1),d0  ; @BT 81 F6 10 12
  571 0000 0000 0743 0743   83 F8 12 34                             divs $1234.w,d1      ; @BT 83 F8 12 34
  572 0000 0000 0747 0747   85 F9 12 34 56 78                       divs $12345678.l,d2  ; @BT 85 F9 12 34 56 78
  573 0000 0000 074D 074D   87 FC 12 34                             divs #$1234,d3       ; @BT 87 FC 12 34
  574 0000 0000 0751 0751   89 FA 00 0A                             divs (end_33,pc),d4  ; @BT 89 FA 00 0A
  575 0000 0000 0755 0755   8B FA 00 06                             divs end_33(pc),d5   ; @BT 8B FA 00 06
  575 0000 0000 0759 0759   8F FB 
  576 0000 0000 075B 075B   60 02                                   divs (end_33,pc,d6),d7 ; @BT 8F FB 60 02
  577 0000 0000 075D 075D   3C 33 33                        end_33: .db "<33"            ; @BT END
                                                            
  579 0000 0000 0760 0760   33 34 3E                                .db "34>"            ; @BT TEST-34 34 START
  580 0000 0000 0763 0763   8F C3                                   divs.w d3,d7           ; @BT 8F C3
  581 0000 0000 0765 0765   8D D1                                   divs.w (a1),d6         ; @BT 8D D1
  582 0000 0000 0767 0767   8B DA                                   divs.w (a2)+,d5        ; @BT 8B DA
  583 0000 0000 0769 0769   89 E3                                   divs.w -(a3),d4        ; @BT 89 E3
  584 0000 0000 076B 076B   87 EC 12 34                             divs.w ($1234,a4),d3   ; @BT 87 EC 12 34
  585 0000 0000 076F 076F   85 ED 12 34                             divs.w $1234(a5),d2    ; @BT 85 ED 12 34
  586 0000 0000 0773 0773   81 F6 10 12                             divs.w ($12,a6,d1),d0  ; @BT 81 F6 10 12
  587 0000 0000 0777 0777   83 F8 12 34                             divs.w $1234.w,d1      ; @BT 83 F8 12 34
  588 0000 0000 077B 077B   85 F9 12 34 56 78                       divs.w $12345678.l,d2  ; @BT 85 F9 12 34 56 78
  589 0000 0000 0781 0781   87 FC 12 34                             divs.w #$1234,d3       ; @BT 87 FC 12 34
  590 0000 0000 0785 0785   89 FA 00 0A                             divs.w (end_34,pc),d4  ; @BT 89 FA 00 0A
  591 0000 0000 0789 0789   8B FA 00 06                             divs.w end_34(pc),d5   ; @BT 8B FA 00 06
  591 0000 0000 078D 078D   8F FB 
  592 0000 0000 078F 078F   60 02                                   divs.w (end_34,pc,d6),d7 ; @BT 8F FB 60 02
  593 0000 0000 0791 0791   3C 33 34                        end_34: .db "<34"            ; @BT END
                                                            
  595 0000 0000 0794 0794   33 35 3E                                .db "35>"            ; @BT TEST-35 35 START
  596 0000 0000 0797 0797   8E C3                                   divu d3,d7           ; @BT 8E C3
  597 0000 0000 0799 0799   8C D1                                   divu (a1),d6         ; @BT 8C D1
  598 0000 0000 079B 079B   8A DA                                   divu (a2)+,d5        ; @BT 8A DA
  599 0000 0000 079D 079D   88 E3                                   divu -(a3),d4        ; @BT 88 E3
  600 0000 0000 079F 079F   86 EC 12 34                             divu ($1234,a4),d3   ; @BT 86 EC 12 34
  601 0000 0000 07A3 07A3   84 ED 12 34                             divu $1234(a5),d2    ; @BT 84 ED 12 34
  602 0000 0000 07A7 07A7   80 F6 10 12                             divu ($12,a6,d1),d0  ; @BT 80 F6 10 12
  603 0000 0000 07AB 07AB   82 F8 12 34                             divu $1234.w,d1      ; @BT 82 F8 12 34
  604 0000 0000 07AF 07AF   84 F9 12 34 56 78                       divu $12345678.l,d2  ; @BT 84 F9 12 34 56 78
  605 0000 0000 07B5 07B5   86 FC 12 34                             divu #$1234,d3       ; @BT 86 FC 12 34
  606 0000 0000 07B9 07B9   88 FA 00 0A                             divu (end_35,pc),d4  ; @BT 88 FA 00 0A
  607 0000 0000 07BD 07BD   8A FA 00 06                             divu end_35(pc),d5   ; @BT 8A FA 00 06
  607 0000 0000 07C1 07C1   8E FB 
  608 0000 0000 07C3 07C3   60 02                                   divu (end_35,pc,d6),d7 ; @BT 8E FB 60 02
  609 0000 0000 07C5 07C5   3C 33 35                        end_35: .db "<35"            ; @BT END
                                                            
  611 0000 0000 07C8 07C8   33 36 3E                                .db "36>"            ; @BT TEST-36 36 START
  612 0000 0000 07CB 07CB   8E C3                                   divu.w d3,d7           ; @BT 8E C3
  613 0000 0000 07CD 07CD   8C D1                                   divu.w (a1),d6         ; @BT 8C D1
  614 0000 0000 07CF 07CF   8A DA                                   divu.w (a2)+,d5        ; @BT 8A DA
  615 0000 0000 07D1 07D1   88 E3                                   divu.w -(a3),d4        ; @BT 88 E3
  616 0000 0000 07D3 07D3   86 EC 12 34                             divu.w ($1234,a4),d3   ; @BT 86 EC 12 34
  617 0000 0000 07D7 07D7   84 ED 12 34                             divu.w $1234(a5),d2    ; @BT 84 ED 12 34
  618 0000 0000 07DB 07DB   80 F6 10 12                             divu.w ($12,a6,d1),d0  ; @BT 80 F6 10 12
  619 0000 0000 07DF 07DF   82 F8 12 34                             divu.w $1234.w,d1      ; @BT 82 F8 12 34
  620 0000 0000 07E3 07E3   84 F9 12 34 56 78                       divu.w $12345678.l,d2  ; @BT 84 F9 12 34 56 78
  621 0000 0000 07E9 07E9   86 FC 12 34                             divu.w #$1234,d3       ; @BT 86 FC 12 34
  622 0000 0000 07ED 07ED   88 FA 00 0A                             divu.w (end_36,pc),d4  ; @BT 88 FA 00 0A
  623 0000 0000 07F1 07F1   8A FA 00 06                             divu.w end_36(pc),d5   ; @BT 8A FA 00 06
  623 0000 0000 07F5 07F5   8E FB 
  624 0000 0000 07F7 07F7   60 02                                   divu.w (end_36,pc,d6),d7 ; @BT 8E FB 60 02
  625 0000 0000 07F9 07F9   3C 33 36                        end_36: .db "<36"            ; @BT END
                                                            
  627 0000 0000 07FC 07FC   33 37 3E                                .db "37>"                 ; @BT TEST-37 37 START
  628 0000 0000 07FF 07FF   0A 81 12 34 56 78                       eori.l #$12345678.l,d1    ; @BT 0A 81 12 34 56 78
  629 0000 0000 0805 0805   0A 81 12 34 56 78                       eori.l #$12345678,d1      ; @BT 0A 81 12 34 56 78
  630 0000 0000 080B 080B   0A 42 12 34                             eori.w #$1234,d2          ; @BT 0A 42 12 34
  631 0000 0000 080F 080F   0A 04 00 12                             eori.b #$12,d4            ; @BT 0A 04 00 12
  632 0000 0000 0813 0813   0A 12 00 FE                             eori.b #$fe, (a2)         ; @BT 0A 12 00 FE
  633 0000 0000 0817 0817   0A 63 12 34                             eori.w #$1234, -(a3)      ; @BT 0A 63 12 34
  634 0000 0000 081B 081B   0A 9C 12 34 56 78                       eori.l #$12345678, (a4)+  ; @BT 0A 9C 12 34 56 78
  635 0000 0000 0821 0821   0A 38 00 12 34 56                       eori.b #$12, $3456.w      ; @BT 0A 38 00 12 34 56
  636 0000 0000 0827 0827   0A 79 AB CD 12 34 56 78                 eori.w #$abcd,$12345678.l ; @BT 0A 79 AB CD 12 34 56 78
  637 0000 0000 082F 082F   0A 79 AB CD 12 34 56 78                 eori.w #$abcd, $12345678  ; @BT 0A 79 AB CD 12 34 56 78
  638 0000 0000 0837 0837   0A 2D 00 12 34 56                       eori.b #$12,($3456,a5)    ; @BT 0A 2D 00 12 34 56
  639 0000 0000 083D 083D   0A 2D 00 12 34 56                       eori.b #$12,$3456(a5)     ; @BT 0A 2D 00 12 34 56
  640 0000 0000 0843 0843   0A 76 12 34 70 56                       eori.w #$1234,($56,a6,d7) ; @BT 0A 76 12 34 70 56
  641 0000 0000 0849 0849   3C 33 37                                .db "<37"                 ; @BT END
                                                            
  643 0000 0000 084C 084C   33 38 3E                                .db "38>"                ; @BT TEST-38 38 START
  644 0000 0000 084F 084F   0A 81 12 34 56 78                       eor.l #$12345678.l,d1    ; @BT 0A 81 12 34 56 78
  645 0000 0000 0855 0855   0A 81 12 34 56 78                       eor.l #$12345678,d1      ; @BT 0A 81 12 34 56 78
  646 0000 0000 085B 085B   0A 42 12 34                             eor.w #$1234,d2          ; @BT 0A 42 12 34
  647 0000 0000 085F 085F   0A 04 00 12                             eor.b #$12,d4            ; @BT 0A 04 00 12
  648 0000 0000 0863 0863   0A 12 00 FE                             eor.b #$fe, (a2)         ; @BT 0A 12 00 FE
  649 0000 0000 0867 0867   0A 63 12 34                             eor.w #$1234, -(a3)      ; @BT 0A 63 12 34
  650 0000 0000 086B 086B   0A 9C 12 34 56 78                       eor.l #$12345678, (a4)+  ; @BT 0A 9C 12 34 56 78
  651 0000 0000 0871 0871   0A 38 00 12 34 56                       eor.b #$12, $3456.w      ; @BT 0A 38 00 12 34 56
  652 0000 0000 0877 0877   0A 79 AB CD 12 34 56 78                 eor.w #$abcd,$12345678.l ; @BT 0A 79 AB CD 12 34 56 78
  653 0000 0000 087F 087F   0A 79 AB CD 12 34 56 78                 eor.w #$abcd, $12345678  ; @BT 0A 79 AB CD 12 34 56 78
  654 0000 0000 0887 0887   0A 2D 00 12 34 56                       eor.b #$12,($3456,a5)    ; @BT 0A 2D 00 12 34 56
  655 0000 0000 088D 088D   0A 2D 00 12 34 56                       eor.b #$12,$3456(a5)     ; @BT 0A 2D 00 12 34 56
  656 0000 0000 0893 0893   0A 76 12 34 70 56                       eor.w #$1234,($56,a6,d7) ; @BT 0A 76 12 34 70 56
  657 0000 0000 0899 0899   3C 33 38                                .db "<38"                ; @BT END
                                                            
  659 0000 0000 089C 089C   33 39 3E                                .db "39>"              ; @BT TEST-39 39 START
  660 0000 0000 089F 089F   0A 3C 00 0A                             eori.b #10,CCR         ; @BT 0A 3C 00 0A
  661 0000 0000 08A3 08A3   0A 3C 00 FF                             eori.b #$ff,CCR        ; @BT 0A 3C 00 FF
  662 0000 0000 08A7 08A7   0A 7C 12 34                             eori.w #$1234,SR       ; @BT 0A 7C 12 34
  663 0000 0000 08AB 08AB   0A 7C FF EE                             eori.w #$FFEE,SR       ; @BT 0A 7C FF EE
  664 0000 0000 08AF 08AF   3C 33 39                                .db "<39"              ; @BT END
                                                            
  666 0000 0000 08B2 08B2   34 30 3E                                .db "40>"            ; @BT TEST-40 40 START
  667 0000 0000 08B5 08B5   BF 81                                   eor.l d7,d1          ; @BT BF 81
  668 0000 0000 08B7 08B7   BD 81                                   eor.l d6,d1          ; @BT BD 81
  669 0000 0000 08B9 08B9   BB 42                                   eor.w d5,d2          ; @BT BB 42
  670 0000 0000 08BB 08BB   B9 04                                   eor.b d4,d4          ; @BT B9 04
  671 0000 0000 08BD 08BD   B7 12                                   eor.b d3,(a2)        ; @BT B7 12
  672 0000 0000 08BF 08BF   B5 63                                   eor.w d2,-(a3)       ; @BT B5 63
  673 0000 0000 08C1 08C1   B3 9C                                   eor.l d1,(a4)+       ; @BT B3 9C
  674 0000 0000 08C3 08C3   B1 38 34 56                             eor.b d0,$3456.w     ; @BT B1 38 34 56
  675 0000 0000 08C7 08C7   B3 79 12 34 56 78                       eor.w d1,$12345678.l ; @BT B3 79 12 34 56 78
  676 0000 0000 08CD 08CD   B5 79 12 34 56 78                       eor.w d2,$12345678   ; @BT B5 79 12 34 56 78
  677 0000 0000 08D3 08D3   B7 2D 34 56                             eor.b d3,($3456,a5)  ; @BT B7 2D 34 56
  678 0000 0000 08D7 08D7   B9 2D 34 56                             eor.b d4,$3456(a5)   ; @BT B9 2D 34 56
  679 0000 0000 08DB 08DB   BB 76 70 56                             eor.w d5,($56,a6,d7) ; @BT BB 76 70 56
  680 0000 0000 08DF 08DF   3C 34 30                                .db "<40"            ; @BT END
                                                            
  682 0000 0000 08E2 08E2   34 31 3E                                .db "41>"            ; @BT TEST-41 41 START
  683 0000 0000 08E5 08E5   C5 47                                   exg d2,d7            ; @BT C5 47
  684 0000 0000 08E7 08E7   CF 42                                   exg d7,d2            ; @BT CF 42
  685 0000 0000 08E9 08E9   C7 4E                                   exg a3,a6            ; @BT C7 4E
  686 0000 0000 08EB 08EB   CD 4B                                   exg a6,a3            ; @BT CD 4B
  687 0000 0000 08ED 08ED   C3 8D                                   exg d1,a5            ; @BT C3 8D
  688 0000 0000 08EF 08EF   CB 89                                   exg d5,a1            ; @BT CB 89
  689 0000 0000 08F1 08F1   3C 34 31                                .db "<41"            ; @BT END
                                                            
  691 0000 0000 08F4 08F4   34 32 3E                                .db "42>"            ; @BT TEST-42 42 START
  692 0000 0000 08F7 08F7   48 81                                   ext.w d1             ; @BT 48 81
  693 0000 0000 08F9 08F9   48 87                                   ext.w d7             ; @BT 48 87
  694 0000 0000 08FB 08FB   48 C2                                   ext.l d2             ; @BT 48 C2
  695 0000 0000 08FD 08FD   48 C5                                   ext.l d5             ; @BT 48 C5
  696 0000 0000 08FF 08FF   3C 34 32                                .db "<42"            ; @BT END
                                                            
  698 0000 0000 0902 0902   34 33 3E                                .db "43>"            ; @BT TEST-43 43 START
  699 0000 0000 0905 0905   4E D5                                   jmp (a5)             ; @BT 4E D5
  700 0000 0000 0907 0907   4E EF 12 34                             jmp $1234(a7)        ; @BT 4E EF 12 34
  701 0000 0000 090B 090B   4E EE 12 34                             jmp ($1234,a6)       ; @BT 4E EE 12 34
  702 0000 0000 090F 090F   4E F4 30 12                             jmp ($12,a4,d3)      ; @BT 4E F4 30 12
  702 0000 0000 0913 0913   4E F8 
  703 0000 0000 0915 0915   AB CE                                   jmp label_ABCE.w     ; @BT 4E F8 AB CE
  703 0000 0000 0917 0917   4E F9 
  704 0000 0000 0919 0919   00 00 AB CE                             jmp label_ABCE.l     ; @BT 4E F9 00 00 AB CE
  705 0000 0000 091D 091D   4E FA 00 06                             jmp end_43(pc)       ; @BT 4E FA 00 06
  705 0000 0000 0921 0921   4E FB 
  706 0000 0000 0923 0923   20 02                                   jmp (end_43,pc,d2)   ; @BT 4E FB 20 02
  707 0000 0000 0925 0925   3C 34 33                        end_43: .db "<43"            ; @BT END
                                                            
  709 0000 0000 0928 0928   34 34 3E                                .db "44>"            ; @BT TEST-44 44 START
  710 0000 0000 092B 092B   4E 95                                   jsr (a5)             ; @BT 4E 95
  711 0000 0000 092D 092D   4E AF 12 34                             jsr $1234(a7)        ; @BT 4E AF 12 34
  712 0000 0000 0931 0931   4E AE 12 34                             jsr ($1234,a6)       ; @BT 4E AE 12 34
  713 0000 0000 0935 0935   4E B4 30 12                             jsr ($12,a4,d3)      ; @BT 4E B4 30 12
  713 0000 0000 0939 0939   4E B8 
  714 0000 0000 093B 093B   AB CE                                   jsr label_ABCE.w     ; @BT 4E B8 AB CE
  714 0000 0000 093D 093D   4E B9 
  715 0000 0000 093F 093F   00 00 AB CE                             jsr label_ABCE.l     ; @BT 4E B9 00 00 AB CE
  716 0000 0000 0943 0943   4E BA 00 06                             jsr end_44(pc)       ; @BT 4E BA 00 06
  716 0000 0000 0947 0947   4E BB 
  717 0000 0000 0949 0949   20 02                                   jsr (end_44,pc,d2)   ; @BT 4E BB 20 02
  718 0000 0000 094B 094B   3C 34 34                        end_44: .db "<44"            ; @BT END
                                                            
  720 0000 0000 094E 094E   34 35 3E                                .db "45>"             ; @BT TEST-45 45 START
  721 0000 0000 0951 0951   43 D5                                   lea (a5),a1           ; @BT 43 D5
  722 0000 0000 0953 0953   45 EF 12 34                             lea $1234(a7),a2      ; @BT 45 EF 12 34
  723 0000 0000 0957 0957   47 EE 12 34                             lea ($1234,a6),a3     ; @BT 47 EE 12 34
  724 0000 0000 095B 095B   49 F4 30 12                             lea ($12,a4,d3),a4    ; @BT 49 F4 30 12
  724 0000 0000 095F 095F   4B F8 
  725 0000 0000 0961 0961   AB CE                                   lea label_ABCE.w,a5   ; @BT 4B F8 AB CE
  725 0000 0000 0963 0963   4D F9 
  726 0000 0000 0965 0965   00 00 AB CE                             lea label_ABCE.l,a6   ; @BT 4D F9 00 00 AB CE
  727 0000 0000 0969 0969   4F FA 00 06                             lea end_45(pc),a7     ; @BT 4F FA 00 06
  727 0000 0000 096D 096D   43 FB 
  728 0000 0000 096F 096F   20 02                                   lea (end_45,pc,d2),a1 ; @BT 43 FB 20 02
  729 0000 0000 0971 0971   3C 34 35                        end_45: .db "<45"             ; @BT END
                                                                    
  731 0000 0000 0974 0974   34 36 3E                                .db "46>"             ; @BT TEST-46 46 START
  732 0000 0000 0977 0977   4E 54 12 34                             link a4, #$1234       ; @BT 4E 54 12 34
  733 0000 0000 097B 097B   4E 57 56 78                             link a7,#$5678        ; @BT 4E 57 56 78
  734 0000 0000 097F 097F   3C 34 36                                .db "<46"             ; @BT END
                                                            
  736 0000 0000 0982 0982   34 37 3E                                .db "47>"         ; @BT TEST-47 47 START
  737 0000 0000 0985 0985   E8 6F                                   lsr d4,d7         ; @BT E8 6F
  738 0000 0000 0987 0987   E3 2D                                   lsl.b d1,d5       ; @BT E3 2D
  739 0000 0000 0989 0989   E8 6A                                   lsr.w d4,d2       ; @BT E8 6A
  740 0000 0000 098B 098B   E0 89                                   lsr.l #8,d1       ; @BT E0 89
  741 0000 0000 098D 098D   E5 89                                   lsl.l #2,d1       ; @BT E5 89
  742 0000 0000 098F 098F   EA 4A                                   lsr.w #5,d2       ; @BT EA 4A
  743 0000 0000 0991 0991   E2 DC                                   lsr.w (a4)+       ; @BT E2 DC
  744 0000 0000 0993 0993   E3 F8 34 56                             lsl.w $3456.w     ; @BT E3 F8 34 56
  745 0000 0000 0997 0997   E3 F9 12 34 56 78                       lsl.w $12345678.l ; @BT E3 F9 12 34 56 78
  746 0000 0000 099D 099D   E2 ED 34 56                             lsr.w ($3456,a5)  ; @BT E2 ED 34 56
  747 0000 0000 09A1 09A1   E3 ED 34 56                             lsl.w $3456(a5)   ; @BT E3 ED 34 56
  748 0000 0000 09A5 09A5   E2 F6 70 56                             lsr.w ($56,a6,d7) ; @BT E2 F6 70 56
  749 0000 0000 09A9 09A9   E2 D2                                   lsr (a2)          ; @BT E2 D2
  750 0000 0000 09AB 09AB   E2 D2                                   lsr.w (a2)        ; @BT E2 D2
  751 0000 0000 09AD 09AD   E3 E3                                   lsl.w -(a3)       ; @BT E3 E3
  752 0000 0000 09AF 09AF   3C 34 37                                .db "<47"         ; @BT END
                                                            
  754 0000 0000 09B2 09B2   34 38 3E                                .db "48>"              ; @BT TEST-48 48 START
  755 0000 0000 09B5 09B5   CF C3                                   muls d3,d7             ; @BT CF C3
  756 0000 0000 09B7 09B7   CD D1                                   muls (a1),d6           ; @BT CD D1
  757 0000 0000 09B9 09B9   CB DA                                   muls.w (a2)+,d5        ; @BT CB DA
  758 0000 0000 09BB 09BB   C9 E3                                   muls -(a3),d4          ; @BT C9 E3
  759 0000 0000 09BD 09BD   C7 EC 12 34                             muls ($1234,a4),d3     ; @BT C7 EC 12 34
  760 0000 0000 09C1 09C1   C5 ED 12 34                             muls.w $1234(a5),d2    ; @BT C5 ED 12 34
  761 0000 0000 09C5 09C5   C1 F6 10 12                             muls ($12,a6,d1),d0    ; @BT C1 F6 10 12
  762 0000 0000 09C9 09C9   C3 F8 12 34                             muls $1234.w,d1        ; @BT C3 F8 12 34
  763 0000 0000 09CD 09CD   C5 F9 12 34 56 78                       muls.w $12345678.l,d2  ; @BT C5 F9 12 34 56 78
  764 0000 0000 09D3 09D3   C7 FC 12 34                             muls #$1234,d3         ; @BT C7 FC 12 34
  765 0000 0000 09D7 09D7   C9 FA 00 0A                             muls.w (end_48,pc),d4  ; @BT C9 FA 00 0A
  766 0000 0000 09DB 09DB   CB FA 00 06                             muls end_48(pc),d5     ; @BT CB FA 00 06
  766 0000 0000 09DF 09DF   CF FB 
  767 0000 0000 09E1 09E1   60 02                                   muls (end_48,pc,d6),d7 ; @BT CF FB 60 02
  768 0000 0000 09E3 09E3   3C 34 38                        end_48: .db "<48"              ; @BT END
                                                            
  770 0000 0000 09E6 09E6   34 39 3E                                .db "49>"              ; @BT TEST-49 49 START
  771 0000 0000 09E9 09E9   CE C3                                   mulu d3,d7             ; @BT CE C3
  772 0000 0000 09EB 09EB   CC D1                                   mulu (a1),d6           ; @BT CC D1
  773 0000 0000 09ED 09ED   CA DA                                   mulu.w (a2)+,d5        ; @BT CA DA
  774 0000 0000 09EF 09EF   C8 E3                                   mulu -(a3),d4          ; @BT C8 E3
  775 0000 0000 09F1 09F1   C6 EC 12 34                             mulu ($1234,a4),d3     ; @BT C6 EC 12 34
  776 0000 0000 09F5 09F5   C4 ED 12 34                             mulu.w $1234(a5),d2    ; @BT C4 ED 12 34
  777 0000 0000 09F9 09F9   C0 F6 10 12                             mulu ($12,a6,d1),d0    ; @BT C0 F6 10 12
  778 0000 0000 09FD 09FD   C2 F8 12 34                             mulu $1234.w,d1        ; @BT C2 F8 12 34
  779 0000 0000 0A01 0A01   C4 F9 12 34 56 78                       mulu.w $12345678.l,d2  ; @BT C4 F9 12 34 56 78
  780 0000 0000 0A07 0A07   C6 FC 12 34                             mulu #$1234,d3         ; @BT C6 FC 12 34
  781 0000 0000 0A0B 0A0B   C8 FA 00 0A                             mulu.w (end_49,pc),d4  ; @BT C8 FA 00 0A
  782 0000 0000 0A0F 0A0F   CA FA 00 06                             mulu end_49(pc),d5     ; @BT CA FA 00 06
  782 0000 0000 0A13 0A13   CE FB 
  783 0000 0000 0A15 0A15   60 02                                   mulu (end_49,pc,d6),d7 ; @BT CE FB 60 02
  784 0000 0000 0A17 0A17   3C 34 39                        end_49: .db "<49"              ; @BT END
                                                            
  786 0000 0000 0A1A 0A1A   35 30 3E                                .db "50>"              ; @BT TEST-50 50 START
  787 0000 0000 0A1D 0A1D   48 03                                   nbcd d3                ; @BT 48 03
  788 0000 0000 0A1F 0A1F   48 15                                   nbcd (a5)              ; @BT 48 15
  789 0000 0000 0A21 0A21   48 1E                                   nbcd (a6)+             ; @BT 48 1E
  790 0000 0000 0A23 0A23   48 27                                   nbcd -(a7)             ; @BT 48 27
  791 0000 0000 0A25 0A25   48 29 12 34                             nbcd $1234(a1)         ; @BT 48 29 12 34
  792 0000 0000 0A29 0A29   48 32 30 12                             nbcd ($12,a2,d3)       ; @BT 48 32 30 12
  792 0000 0000 0A2D 0A2D   48 38 
  793 0000 0000 0A2F 0A2F   AB CE                                   nbcd label_ABCE.w      ; @BT 48 38 AB CE
  793 0000 0000 0A31 0A31   48 39 
  794 0000 0000 0A33 0A33   00 00 AB CE                             nbcd label_ABCE.l      ; @BT 48 39 00 00 AB CE
  795 0000 0000 0A37 0A37   3C 35 30                        end_50: .db "<50"              ; @BT END
                                                            
  797 0000 0000 0A3A 0A3A   35 31 3E                                .db "51>"           ; @BT TEST-51 51 START
  798 0000 0000 0A3D 0A3D   44 06                                   neg.b d6            ; @BT 44 06
  799 0000 0000 0A3F 0A3F   44 54                                   neg.w (a4)          ; @BT 44 54
  800 0000 0000 0A41 0A41   44 A7                                   neg.l -(a7)         ; @BT 44 A7
  801 0000 0000 0A43 0A43   44 1E                                   neg.b (a6)+         ; @BT 44 1E
  802 0000 0000 0A45 0A45   44 6D 12 34                             neg.w $1234(a5)     ; @BT 44 6D 12 34
  803 0000 0000 0A49 0A49   44 AB 12 34                             neg.l ($1234,a3)    ; @BT 44 AB 12 34
  804 0000 0000 0A4D 0A4D   44 31 50 12                             neg.b ($12,a1,d5)   ; @BT 44 31 50 12
  805 0000 0000 0A51 0A51   44 B8 12 34                             neg.l $1234.w       ; @BT 44 B8 12 34
  806 0000 0000 0A55 0A55   44 79 12 34 56 78                       neg.w $12345678.l   ; @BT 44 79 12 34 56 78
  807 0000 0000 0A5B 0A5B   3C 35 31                                .db "<51"           ; @BT END
                                                            
  809 0000 0000 0A5E 0A5E   35 32 3E                                .db "52>"            ; @BT TEST-52 52 START
  810 0000 0000 0A61 0A61   40 06                                   negx.b d6            ; @BT 40 06
  811 0000 0000 0A63 0A63   40 54                                   negx.w (a4)          ; @BT 40 54
  812 0000 0000 0A65 0A65   40 A7                                   negx.l -(a7)         ; @BT 40 A7
  813 0000 0000 0A67 0A67   40 1E                                   negx.b (a6)+         ; @BT 40 1E
  814 0000 0000 0A69 0A69   40 6D 12 34                             negx.w $1234(a5)     ; @BT 40 6D 12 34
  815 0000 0000 0A6D 0A6D   40 AB 12 34                             negx.l ($1234,a3)    ; @BT 40 AB 12 34
  816 0000 0000 0A71 0A71   40 31 50 12                             negx.b ($12,a1,d5)   ; @BT 40 31 50 12
  817 0000 0000 0A75 0A75   40 B8 12 34                             negx.l $1234.w       ; @BT 40 B8 12 34
  818 0000 0000 0A79 0A79   40 79 12 34 56 78                       negx.w $12345678.l   ; @BT 40 79 12 34 56 78
  819 0000 0000 0A7F 0A7F   3C 35 32                                .db "<52"            ; @BT END
                                                            
  821 0000 0000 0A82 0A82   35 33 3E                                .db "53>"           ; @BT TEST-53 53 START
  822 0000 0000 0A85 0A85   46 06                                   not.b d6            ; @BT 46 06
  823 0000 0000 0A87 0A87   46 54                                   not.w (a4)          ; @BT 46 54
  824 0000 0000 0A89 0A89   46 A7                                   not.l -(a7)         ; @BT 46 A7
  825 0000 0000 0A8B 0A8B   46 1E                                   not.b (a6)+         ; @BT 46 1E
  826 0000 0000 0A8D 0A8D   46 6D 12 34                             not.w $1234(a5)     ; @BT 46 6D 12 34
  827 0000 0000 0A91 0A91   46 AB 12 34                             not.l ($1234,a3)    ; @BT 46 AB 12 34
  828 0000 0000 0A95 0A95   46 31 50 12                             not.b ($12,a1,d5)   ; @BT 46 31 50 12
  829 0000 0000 0A99 0A99   46 B8 12 34                             not.l $1234.w       ; @BT 46 B8 12 34
  830 0000 0000 0A9D 0A9D   46 79 12 34 56 78                       not.w $12345678.l   ; @BT 46 79 12 34 56 78
  831 0000 0000 0AA3 0AA3   3C 35 33                                .db "<53"           ; @BT END
                                                            
  833 0000 0000 0AA6 0AA6   35 34 3E                                .db "54>"              ; @BT TEST-54 54 START
  834 0000 0000 0AA9 0AA9   84 81                                   or.l d1,d2             ; @BT 84 81
  835 0000 0000 0AAB 0AAB   84 11                                   or.b (a1),d2           ; @BT 84 11
  836 0000 0000 0AAD 0AAD   84 61                                   or.w -(a1),d2          ; @BT 84 61
  837 0000 0000 0AAF 0AAF   84 99                                   or.l (a1)+,d2          ; @BT 84 99
  838 0000 0000 0AB1 0AB1   82 B8 12 34                             or.l $1234.w,d1        ; @BT 82 B8 12 34
  839 0000 0000 0AB5 0AB5   82 79 12 34 56 78                       or.w $12345678.l,d1    ; @BT 82 79 12 34 56 78
  840 0000 0000 0ABB 0ABB   84 69 12 34                             or.w $1234(a1),d2      ; @BT 84 69 12 34
  841 0000 0000 0ABF 0ABF   84 69 12 34                             or.w ($1234,a1),d2     ; @BT 84 69 12 34
  842 0000 0000 0AC3 0AC3   88 32 30 12                             or.b ($12,a2,d3),d4    ; @BT 88 32 30 12
  843 0000 0000 0AC7 0AC7   8A 73 40 34                             or.w ($34,a3,d4),d5    ; @BT 8A 73 40 34
  844 0000 0000 0ACB 0ACB   84 7A FF FE                     hello5: or.w hello5(pc),d2     ; @BT 84 7A FF FE
  845 0000 0000 0ACF 0ACF   84 7A 00 02                             or.w (yello5,pc),d2    ; @BT 84 7A 00 02
  845 0000 0000 0AD3 0AD3   86 3B 
  846 0000 0000 0AD5 0AD5   20 02                           yello5: or.b (mello5,PC,d2),d3 ; @BT 86 3B 20 02
  846 0000 0000 0AD7 0AD7   86 3B 
  847 0000 0000 0AD9 0AD9   20 04                           mello5: or.b (cello5,PC,d2),d3 ; @BT 86 3B 20 04
  848 0000 0000 0ADB 0ADB   00 03                                   .db 0, 3               ; @BT 00 03
  848 0000 0000 0ADD 0ADD   86 3B 
  849 0000 0000 0ADF 0ADF   20 F8                           cello5: or.b (mello5,PC,d2),d3 ; @BT 86 3B 20 F8
  850 0000 0000 0AE1 0AE1   84 7A 00 04                             or.w frank5(pc),d2     ; @BT 84 7A 00 04
  851 0000 0000 0AE5 0AE5   01 02                                   .db 1, 2               ; @BT 01 02
  852 0000 0000 0AE7 0AE7   3C 35 34                        frank5: .db "<54"              ; @BT END
                                                            
  854 0000 0000 0AEA 0AEA   35 35 3E                                .db "55>"               ; @BT TEST-55 55 START
  855 0000 0000 0AED 0AED   00 81 12 34 56 78                       or.l #$12345678.l,d1    ; @BT 00 81 12 34 56 78
  856 0000 0000 0AF3 0AF3   00 81 12 34 56 78                       or.l #$12345678,d1      ; @BT 00 81 12 34 56 78
  857 0000 0000 0AF9 0AF9   00 42 12 34                             or.w #$1234,d2          ; @BT 00 42 12 34
  858 0000 0000 0AFD 0AFD   00 04 00 12                             or.b #$12,d4            ; @BT 00 04 00 12
  859 0000 0000 0B01 0B01   00 12 00 FE                             or.b #$fe, (a2)         ; @BT 00 12 00 FE
  860 0000 0000 0B05 0B05   00 63 12 34                             or.w #$1234, -(a3)      ; @BT 00 63 12 34
  861 0000 0000 0B09 0B09   00 9C 12 34 56 78                       or.l #$12345678, (a4)+  ; @BT 00 9C 12 34 56 78
  862 0000 0000 0B0F 0B0F   00 38 00 12 34 56                       or.b #$12, $3456.w      ; @BT 00 38 00 12 34 56
  863 0000 0000 0B15 0B15   00 79 AB CD 12 34 56 78                 or.w #$abcd,$12345678.l ; @BT 00 79 AB CD 12 34 56 78
  864 0000 0000 0B1D 0B1D   00 79 AB CD 12 34 56 78                 or.w #$abcd, $12345678  ; @BT 00 79 AB CD 12 34 56 78
  865 0000 0000 0B25 0B25   00 2D 00 12 34 56                       or.b #$12,($3456,a5)    ; @BT 00 2D 00 12 34 56
  866 0000 0000 0B2B 0B2B   00 2D 00 12 34 56                       or.b #$12,$3456(a5)     ; @BT 00 2D 00 12 34 56
  867 0000 0000 0B31 0B31   00 76 12 34 70 56                       or.w #$1234,($56,a6,d7) ; @BT 00 76 12 34 70 56
  868 0000 0000 0B37 0B37   3C 35 35                                .db "<55"               ; @BT END
                                                            
  870 0000 0000 0B3A 0B3A   35 36 3E                                .db "56>"                ; @BT TEST-56 56 START
  871 0000 0000 0B3D 0B3D   00 81 12 34 56 78                       ori.l #$12345678.l,d1    ; @BT 00 81 12 34 56 78
  872 0000 0000 0B43 0B43   00 81 12 34 56 78                       ori.l #$12345678,d1      ; @BT 00 81 12 34 56 78
  873 0000 0000 0B49 0B49   00 42 12 34                             ori.w #$1234,d2          ; @BT 00 42 12 34
  874 0000 0000 0B4D 0B4D   00 04 00 12                             ori.b #$12,d4            ; @BT 00 04 00 12
  875 0000 0000 0B51 0B51   00 12 00 FE                             ori.b #$fe, (a2)         ; @BT 00 12 00 FE
  876 0000 0000 0B55 0B55   00 63 12 34                             ori.w #$1234, -(a3)      ; @BT 00 63 12 34
  877 0000 0000 0B59 0B59   00 9C 12 34 56 78                       ori.l #$12345678, (a4)+  ; @BT 00 9C 12 34 56 78
  878 0000 0000 0B5F 0B5F   00 38 00 12 34 56                       ori.b #$12, $3456.w      ; @BT 00 38 00 12 34 56
  879 0000 0000 0B65 0B65   00 79 AB CD 12 34 56 78                 ori.w #$abcd,$12345678.l ; @BT 00 79 AB CD 12 34 56 78
  880 0000 0000 0B6D 0B6D   00 79 AB CD 12 34 56 78                 ori.w #$abcd, $12345678  ; @BT 00 79 AB CD 12 34 56 78
  881 0000 0000 0B75 0B75   00 2D 00 12 34 56                       ori.b #$12,($3456,a5)    ; @BT 00 2D 00 12 34 56
  882 0000 0000 0B7B 0B7B   00 2D 00 12 34 56                       ori.b #$12,$3456(a5)     ; @BT 00 2D 00 12 34 56
  883 0000 0000 0B81 0B81   00 76 12 34 70 56                       ori.w #$1234,($56,a6,d7) ; @BT 00 76 12 34 70 56
  884 0000 0000 0B87 0B87   00 3C 00 0A                             ori.b #10,CCR            ; @BT 00 3C 00 0A
  885 0000 0000 0B8B 0B8B   00 3C 00 FF                             ori.b #$ff,CCR           ; @BT 00 3C 00 FF
  886 0000 0000 0B8F 0B8F   00 7C 12 34                             ori.w #$1234,SR          ; @BT 00 7C 12 34
  887 0000 0000 0B93 0B93   00 7C FF EE                             ori.w #$FFEE,SR          ; @BT 00 7C FF EE
  888 0000 0000 0B97 0B97   3C 35 36                                .db "<56"                ; @BT END
                                                            
  890 0000 0000 0B9A 0B9A   35 37 3E                                .db "57>"            ; @BT TEST-57 57 START
  891 0000 0000 0B9D 0B9D   48 55                                   pea (a5)             ; @BT 48 55
  892 0000 0000 0B9F 0B9F   48 6F 12 34                             pea $1234(a7)        ; @BT 48 6F 12 34
  893 0000 0000 0BA3 0BA3   48 6E 12 34                             pea ($1234,a6)       ; @BT 48 6E 12 34
  894 0000 0000 0BA7 0BA7   48 74 30 12                             pea ($12,a4,d3)      ; @BT 48 74 30 12
  894 0000 0000 0BAB 0BAB   48 78 
  895 0000 0000 0BAD 0BAD   AB CE                                   pea label_ABCE.w     ; @BT 48 78 AB CE
  895 0000 0000 0BAF 0BAF   48 79 
  896 0000 0000 0BB1 0BB1   00 00 AB CE                             pea label_ABCE.l     ; @BT 48 79 00 00 AB CE
  897 0000 0000 0BB5 0BB5   48 7A 00 06                             pea end_57(pc)       ; @BT 48 7A 00 06
  897 0000 0000 0BB9 0BB9   48 7B 
  898 0000 0000 0BBB 0BBB   20 02                                   pea (end_57,pc,d2)   ; @BT 48 7B 20 02
  899 0000 0000 0BBD 0BBD   3C 35 37                        end_57: .db "<57"            ; @BT END
                                                            
  901 0000 0000 0BC0 0BC0   35 38 3E                                .db "58>"         ; @BT TEST-58 58 START
  902 0000 0000 0BC3 0BC3   E8 7F                                   ror d4,d7         ; @BT E8 7F
  903 0000 0000 0BC5 0BC5   E3 3D                                   rol.b d1,d5       ; @BT E3 3D
  904 0000 0000 0BC7 0BC7   E8 7A                                   ror.w d4,d2       ; @BT E8 7A
  905 0000 0000 0BC9 0BC9   E0 99                                   ror.l #8,d1       ; @BT E0 99
  906 0000 0000 0BCB 0BCB   E5 99                                   rol.l #2,d1       ; @BT E5 99
  907 0000 0000 0BCD 0BCD   EA 5A                                   ror.w #5,d2       ; @BT EA 5A
  908 0000 0000 0BCF 0BCF   E6 DC                                   ror.w (a4)+       ; @BT E6 DC
  909 0000 0000 0BD1 0BD1   E7 F8 34 56                             rol.w $3456.w     ; @BT E7 F8 34 56
  910 0000 0000 0BD5 0BD5   E7 F9 12 34 56 78                       rol.w $12345678.l ; @BT E7 F9 12 34 56 78
  911 0000 0000 0BDB 0BDB   E6 ED 34 56                             ror.w ($3456,a5)  ; @BT E6 ED 34 56
  912 0000 0000 0BDF 0BDF   E7 ED 34 56                             rol.w $3456(a5)   ; @BT E7 ED 34 56
  913 0000 0000 0BE3 0BE3   E6 F6 70 56                             ror.w ($56,a6,d7) ; @BT E6 F6 70 56
  914 0000 0000 0BE7 0BE7   E6 D2                                   ror (a2)          ; @BT E6 D2
  915 0000 0000 0BE9 0BE9   E6 D2                                   ror.w (a2)        ; @BT E6 D2
  916 0000 0000 0BEB 0BEB   E7 E3                                   rol.w -(a3)       ; @BT E7 E3
  917 0000 0000 0BED 0BED   3C 35 38                                .db "<58"         ; @BT END
                                                            
  919 0000 0000 0BF0 0BF0   35 39 3E                                .db "59>"          ; @BT TEST-59 59 START
  920 0000 0000 0BF3 0BF3   E8 77                                   roxr d4,d7         ; @BT E8 77
  921 0000 0000 0BF5 0BF5   E3 35                                   roxl.b d1,d5       ; @BT E3 35
  922 0000 0000 0BF7 0BF7   E8 72                                   roxr.w d4,d2       ; @BT E8 72
  923 0000 0000 0BF9 0BF9   E0 91                                   roxr.l #8,d1       ; @BT E0 91
  924 0000 0000 0BFB 0BFB   E5 91                                   roxl.l #2,d1       ; @BT E5 91
  925 0000 0000 0BFD 0BFD   EA 52                                   roxr.w #5,d2       ; @BT EA 52
  926 0000 0000 0BFF 0BFF   E4 DC                                   roxr.w (a4)+       ; @BT E4 DC
  927 0000 0000 0C01 0C01   E5 F8 34 56                             roxl.w $3456.w     ; @BT E5 F8 34 56
  928 0000 0000 0C05 0C05   E5 F9 12 34 56 78                       roxl.w $12345678.l ; @BT E5 F9 12 34 56 78
  929 0000 0000 0C0B 0C0B   E4 ED 34 56                             roxr.w ($3456,a5)  ; @BT E4 ED 34 56
  930 0000 0000 0C0F 0C0F   E5 ED 34 56                             roxl.w $3456(a5)   ; @BT E5 ED 34 56
  931 0000 0000 0C13 0C13   E4 F6 70 56                             roxr.w ($56,a6,d7) ; @BT E4 F6 70 56
  932 0000 0000 0C17 0C17   E4 D2                                   roxr (a2)          ; @BT E4 D2
  933 0000 0000 0C19 0C19   E4 D2                                   roxr.w (a2)        ; @BT E4 D2
  934 0000 0000 0C1B 0C1B   E5 E3                                   roxl.w -(a3)       ; @BT E5 E3
  935 0000 0000 0C1D 0C1D   3C 35 39                                .db "<59"          ; @BT END
                                                            
  937 0000 0000 0C20 0C20   36 30 3E                                .db "60>"               ; @BT TEST-60 60 START
  938 0000 0000 0C23 0C23   81 00                                   sbcd d0, d0             ; @BT 81 00
  939 0000 0000 0C25 0C25   85 01                                   sbcd d1, d2             ; @BT 85 01
  940 0000 0000 0C27 0C27   81 08                                   sbcd -(a0), -(a0)       ; @BT 81 08
  941 0000 0000 0C29 0C29   85 09                                   sbcd -(a1), -(a2)       ; @BT 85 09
  942 0000 0000 0C2B 0C2B   81 00                                   sbcd.b d0, d0           ; @BT 81 00
  943 0000 0000 0C2D 0C2D   85 01                                   sbcd.b d1, d2           ; @BT 85 01
  944 0000 0000 0C2F 0C2F   81 08                                   sbcd.b -(a0), -(a0)     ; @BT 81 08
  945 0000 0000 0C31 0C31   85 09                                   sbcd.b -(a1), -(a2)     ; @BT 85 09
  946 0000 0000 0C33 0C33   3C 36 30                                .db "<60"               ; @BT END
                                                            
  948 0000 0000 0C36 0C36   36 31 3E                                .db "61>"         ; @BT TEST-61 61 START
  949 0000 0000 0C39 0C39   54 C6                                   scc d6            ; @BT 54 C6
  950 0000 0000 0C3B 0C3B   55 D4                                   scs (a4)          ; @BT 55 D4
  951 0000 0000 0C3D 0C3D   57 E7                                   seq -(a7)         ; @BT 57 E7
  952 0000 0000 0C3F 0C3F   51 DE                                   sf (a6)+          ; @BT 51 DE
  953 0000 0000 0C41 0C41   5C ED 12 34                             sge $1234(a5)     ; @BT 5C ED 12 34
  954 0000 0000 0C45 0C45   5E EB 12 34                             sgt ($1234,a3)    ; @BT 5E EB 12 34
  955 0000 0000 0C49 0C49   52 F1 50 12                             shi ($12,a1,d5)   ; @BT 52 F1 50 12
  956 0000 0000 0C4D 0C4D   5F F8 12 34                             sle $1234.w       ; @BT 5F F8 12 34
  957 0000 0000 0C51 0C51   53 F9 12 34 56 78                       sls $12345678.l   ; @BT 53 F9 12 34 56 78
  957 0000 0000 0C57 0C57   5D F9 
  958 0000 0000 0C59 0C59   00 00 AB CE                             slt label_ABCE    ; @BT 5D F9 00 00 AB CE
  959 0000 0000 0C5D 0C5D   5B C7                                   smi d7            ; @BT 5B C7
  960 0000 0000 0C5F 0C5F   56 D2                                   sne (a2)          ; @BT 56 D2
  961 0000 0000 0C61 0C61   5A E3                                   spl -(a3)         ; @BT 5A E3
  962 0000 0000 0C63 0C63   50 EC 12 34                             st $1234(a4)      ; @BT 50 EC 12 34
  963 0000 0000 0C67 0C67   58 F2 60 34                             svc ($34,a2,d6)   ; @BT 58 F2 60 34
  963 0000 0000 0C6B 0C6B   59 F8 
  964 0000 0000 0C6D 0C6D   AB CE                                   svs label_ABCE.w  ; @BT 59 F8 AB CE
  965 0000 0000 0C6F 0C6F   3C 36 31                                .db "<61"         ; @BT END
                                                            
  967 0000 0000 0C72 0C72   36 32 3E                                .db "62>"         ; @BT TEST-62 62 START
  968 0000 0000 0C75 0C75   4E 72 12 34                             stop #$1234       ; @BT 4E 72 12 34
  969 0000 0000 0C79 0C79   4E 72 01 02                             stop #$0102       ; @BT 4E 72 01 02
  970 0000 0000 0C7D 0C7D   3C 36 32                                .db "<62"         ; @BT END
                                                            
  972 0000 0000 0C80 0C80   36 33 3E                                .db "63>"               ; @BT TEST-63 63 START
  973 0000 0000 0C83 0C83   94 81                                   sub.l d1,d2             ; @BT 94 81
  974 0000 0000 0C85 0C85   94 89                                   sub.l a1,d2             ; @BT 94 89
  975 0000 0000 0C87 0C87   94 91                                   sub.l (a1),d2           ; @BT 94 91
  976 0000 0000 0C89 0C89   94 A1                                   sub.l -(a1),d2          ; @BT 94 A1
  977 0000 0000 0C8B 0C8B   94 99                                   sub.l (a1)+,d2          ; @BT 94 99
  978 0000 0000 0C8D 0C8D   92 B8 12 34                             sub.l $1234.w,d1        ; @BT 92 B8 12 34
  979 0000 0000 0C91 0C91   92 B9 12 34 56 78                       sub.l 305419896.l,d1    ; @BT 92 B9 12 34 56 78
  980 0000 0000 0C97 0C97   94 69 12 34                             sub.w $1234(a1),d2      ; @BT 94 69 12 34
  981 0000 0000 0C9B 0C9B   94 69 12 34                             sub.w ($1234,a1),d2     ; @BT 94 69 12 34
  982 0000 0000 0C9F 0C9F   98 32 30 12                             sub.b ($12,a2,d3),d4    ; @BT 98 32 30 12
  983 0000 0000 0CA3 0CA3   94 7A FF FE                     hello6: sub.w hello6(pc),d2     ; @BT 94 7A FF FE
  984 0000 0000 0CA7 0CA7   94 7A 00 02                             sub.w (yello6,pc),d2    ; @BT 94 7A 00 02
  984 0000 0000 0CAB 0CAB   96 3B 
  985 0000 0000 0CAD 0CAD   20 02                           yello6: sub.b (mello6,PC,d2),d3 ; @BT 96 3B 20 02
  985 0000 0000 0CAF 0CAF   96 3B 
  986 0000 0000 0CB1 0CB1   20 FE                           mello6: sub.b (mello6,PC,d2),d3 ; @BT 96 3B 20 FE
  987 0000 0000 0CB3 0CB3   94 7A 00 04                             sub.w frank6(pc),d2     ; @BT 94 7A 00 04
  988 0000 0000 0CB7 0CB7   01 02                                   .db 1, 2                ; @BT 01 02
  989 0000 0000 0CB9 0CB9   3C 36 33                        frank6: .db "<63"               ; @BT END
                                                            
  991 0000 0000 0CBC 0CBC   36 34 3E                                .db "64>"               ; @BT TEST-64 64 START
  992 0000 0000 0CBF 0CBF   95 11                                   sub.b d2,(a1)           ; @BT 95 11
  993 0000 0000 0CC1 0CC1   95 61                                   sub.w d2,-(a1)          ; @BT 95 61
  994 0000 0000 0CC3 0CC3   95 99                                   sub.l d2,(a1)+          ; @BT 95 99
  995 0000 0000 0CC5 0CC5   93 78 12 34                             sub.w d1,$1234.w        ; @BT 93 78 12 34
  996 0000 0000 0CC9 0CC9   93 B9 12 34 56 78                       sub.l d1,$12345678.l    ; @BT 93 B9 12 34 56 78
  997 0000 0000 0CCF 0CCF   95 69 12 34                             sub.w d2,$1234(a1)      ; @BT 95 69 12 34
  998 0000 0000 0CD3 0CD3   95 29 12 34                             sub.b d2,($1234,a1)     ; @BT 95 29 12 34
  999 0000 0000 0CD7 0CD7   99 32 30 12                             sub.b d4,($12,a2,d3)    ; @BT 99 32 30 12
 1000 0000 0000 0CDB 0CDB   3C 36 34                                .db "<64"               ; @BT END
                                                            
 1002 0000 0000 0CDE 0CDE   36 36 3E                                .db "66>"               ; @BT TEST-66 66 START
 1003 0000 0000 0CE1 0CE1   94 C1                                   sub.w d1, a2            ; @BT 94 C1
 1004 0000 0000 0CE3 0CE3   99 CB                                   sub.l a3, a4            ; @BT 99 CB
 1005 0000 0000 0CE5 0CE5   9C D5                                   sub.w (a5),a6           ; @BT 9C D5
 1006 0000 0000 0CE7 0CE7   94 D9                                   sub.w (a1)+,a2          ; @BT 94 D9
 1007 0000 0000 0CE9 0CE9   99 E3                                   sub.l -(a3),a4          ; @BT 99 E3
 1008 0000 0000 0CEB 0CEB   9E F8 12 34                             sub.w $1234.w,a7        ; @BT 9E F8 12 34
 1009 0000 0000 0CEF 0CEF   91 F9 12 34 56 78                       sub.l $12345678.l,a0    ; @BT 91 F9 12 34 56 78
 1010 0000 0000 0CF5 0CF5   91 F9 12 34 56 78                       sub.l $12345678,a0      ; @BT 91 F9 12 34 56 78
 1010 0000 0000 0CFB 0CFB   95 F9 
 1011 0000 0000 0CFD 0CFD   00 00 AB CE                             sub.l label_ABCE,a2     ; @BT 95 F9 00 00 AB CE
 1012 0000 0000 0D01 0D01   95 F9 00 00 AB CF                       sub.l label_ABCE+1,a2   ; @BT 95 F9 00 00 AB CF
 1013 0000 0000 0D07 0D07   94 E9 12 34                             sub.w $1234(a1),a2      ; @BT 94 E9 12 34
 1014 0000 0000 0D0B 0D0B   97 E9 12 34                             sub.l ($1234,a1),a3     ; @BT 97 E9 12 34
 1015 0000 0000 0D0F 0D0F   99 F2 30 12                             sub.l ($12,a2,d3),a4    ; @BT 99 F2 30 12
 1016 0000 0000 0D13 0D13   94 FA FF FE                     hello7: sub.w hello7(pc),a2     ; @BT 94 FA FF FE
 1017 0000 0000 0D17 0D17   94 FA 00 02                             sub.w (yello7,pc),a2    ; @BT 94 FA 00 02
 1017 0000 0000 0D1B 0D1B   97 FB 
 1018 0000 0000 0D1D 0D1D   20 02                           yello7: sub.l (mello7,PC,d2),a3 ; @BT 97 FB 20 02
 1018 0000 0000 0D1F 0D1F   97 FB 
 1019 0000 0000 0D21 0D21   20 04                           mello7: sub.l (cello7,PC,d2),a3 ; @BT 97 FB 20 04
 1020 0000 0000 0D23 0D23   00 03                                   .db 0, 3                ; @BT 00 03
 1020 0000 0000 0D25 0D25   97 FB 
 1021 0000 0000 0D27 0D27   20 F8                           cello7: sub.l (mello7,PC,d2),a3 ; @BT 97 FB 20 F8
 1022 0000 0000 0D29 0D29   9C FA 00 04                             sub.w frank7(pc),a6     ; @BT 9C FA 00 04
 1023 0000 0000 0D2D 0D2D   01 02                                   .db 1, 2                ; @BT 01 02
 1024 0000 0000 0D2F 0D2F   3C 36 36                        frank7: .db "<66"               ; @BT END
                                                            
 1026 0000 0000 0D32 0D32   36 37 3E                                .db "67>"               ; @BT TEST-67 67 START
 1027 0000 0000 0D35 0D35   04 81 12 34 56 78                       sub.l #$12345678.l,d1   ; @BT 04 81 12 34 56 78
 1028 0000 0000 0D3B 0D3B   04 81 12 34 56 78                       sub.l #$12345678,d1     ; @BT 04 81 12 34 56 78
 1029 0000 0000 0D41 0D41   04 42 12 34                             sub.w #$1234,d2         ; @BT 04 42 12 34
 1030 0000 0000 0D45 0D45   04 04 00 12                             sub.b #$12,d4           ; @BT 04 04 00 12
 1031 0000 0000 0D49 0D49   04 12 00 FE                             sub.b #$fe, (a2)        ; @BT 04 12 00 FE
 1032 0000 0000 0D4D 0D4D   04 63 12 34                             sub.w #$1234, -(a3)     ; @BT 04 63 12 34
 1033 0000 0000 0D51 0D51   04 9C 12 34 56 78                       sub.l #$12345678, (a4)+ ; @BT 04 9C 12 34 56 78
 1034 0000 0000 0D57 0D57   04 38 00 12 34 56                       sub.b #$12, $3456.w     ; @BT 04 38 00 12 34 56
 1035 0000 0000 0D5D 0D5D   04 79 AB CD 12 34 56 78                 sub.w #$abcd,$12345678.l ; @BT 04 79 AB CD 12 34 56 78
 1036 0000 0000 0D65 0D65   04 79 AB CD 12 34 56 78                 sub.w #$abcd, $12345678 ; @BT 04 79 AB CD 12 34 56 78
 1037 0000 0000 0D6D 0D6D   04 2D 00 12 34 56                       sub.b #$12,($3456,a5)   ; @BT 04 2D 00 12 34 56
 1038 0000 0000 0D73 0D73   04 2D 00 12 34 56                       sub.b #$12,$3456(a5)    ; @BT 04 2D 00 12 34 56
 1039 0000 0000 0D79 0D79   04 76 12 34 70 56                       sub.w #$1234,($56,a6,d7) ; @BT 04 76 12 34 70 56
 1040 0000 0000 0D7F 0D7F   93 FC 12 34 56 78                       sub.l #$12345678.l,a1   ; @BT 93 FC 12 34 56 78
 1041 0000 0000 0D85 0D85   95 FC 12 34 56 78                       sub.l #$12345678,a2     ; @BT 95 FC 12 34 56 78
 1042 0000 0000 0D8B 0D8B   96 FC 12 34                             sub.w #$1234,a3         ; @BT 96 FC 12 34
 1043 0000 0000 0D8F 0D8F   3C 36 37                                .db "<67"               ; @BT END
                                                            
 1045 0000 0000 0D92 0D92   36 38 3E                                .db "68>"                ; @BT TEST-68 68 START
 1046 0000 0000 0D95 0D95   94 C1                                   suba.w d1, a2            ; @BT 94 C1
 1047 0000 0000 0D97 0D97   99 CB                                   suba.l a3, a4            ; @BT 99 CB
 1048 0000 0000 0D99 0D99   9C D5                                   suba.w (a5),a6           ; @BT 9C D5
 1049 0000 0000 0D9B 0D9B   94 D9                                   suba.w (a1)+,a2          ; @BT 94 D9
 1050 0000 0000 0D9D 0D9D   99 E3                                   suba.l -(a3),a4          ; @BT 99 E3
 1051 0000 0000 0D9F 0D9F   9E F8 12 34                             suba.w $1234.w,a7        ; @BT 9E F8 12 34
 1052 0000 0000 0DA3 0DA3   91 F9 12 34 56 78                       suba.l $12345678.l,a0    ; @BT 91 F9 12 34 56 78
 1053 0000 0000 0DA9 0DA9   91 F9 12 34 56 78                       suba.l $12345678,a0      ; @BT 91 F9 12 34 56 78
 1053 0000 0000 0DAF 0DAF   95 F9 
 1054 0000 0000 0DB1 0DB1   00 00 AB CE                             suba.l label_ABCE,a2     ; @BT 95 F9 00 00 AB CE
 1055 0000 0000 0DB5 0DB5   95 F9 00 00 AB CF                       suba.l label_ABCE+1,a2   ; @BT 95 F9 00 00 AB CF
 1056 0000 0000 0DBB 0DBB   94 E9 12 34                             suba.w $1234(a1),a2      ; @BT 94 E9 12 34
 1057 0000 0000 0DBF 0DBF   97 E9 12 34                             suba.l ($1234,a1),a3     ; @BT 97 E9 12 34
 1058 0000 0000 0DC3 0DC3   99 F2 30 12                             suba.l ($12,a2,d3),a4    ; @BT 99 F2 30 12
 1059 0000 0000 0DC7 0DC7   94 FA FF FE                     hello8: suba.w hello8(pc),a2     ; @BT 94 FA FF FE
 1060 0000 0000 0DCB 0DCB   94 FA 00 02                             suba.w (yello8,pc),a2    ; @BT 94 FA 00 02
 1060 0000 0000 0DCF 0DCF   97 FB 
 1061 0000 0000 0DD1 0DD1   20 02                           yello8: suba.l (mello8,PC,d2),a3 ; @BT 97 FB 20 02
 1061 0000 0000 0DD3 0DD3   97 FB 
 1062 0000 0000 0DD5 0DD5   20 04                           mello8: suba.l (cello8,PC,d2),a3 ; @BT 97 FB 20 04
 1063 0000 0000 0DD7 0DD7   00 03                                   .db 0, 3                 ; @BT 00 03
 1063 0000 0000 0DD9 0DD9   97 FB 
 1064 0000 0000 0DDB 0DDB   20 F8                           cello8: suba.l (mello8,PC,d2),a3 ; @BT 97 FB 20 F8
 1065 0000 0000 0DDD 0DDD   9C FA 00 04                             suba.w frank8(pc),a6     ; @BT 9C FA 00 04
 1066 0000 0000 0DE1 0DE1   01 02                                   .db 1, 2                 ; @BT 01 02
 1067 0000 0000 0DE3 0DE3   3C 36 38                        frank8: .db "<68"                ; @BT END
                                                            
 1069 0000 0000 0DE6 0DE6   36 39 3E                                .db "69>"                 ; @BT TEST-69 69 START
 1070 0000 0000 0DE9 0DE9   04 81 12 34 56 78                       subi.l #$12345678.l,d1    ; @BT 04 81 12 34 56 78
 1071 0000 0000 0DEF 0DEF   04 81 12 34 56 78                       subi.l #$12345678,d1      ; @BT 04 81 12 34 56 78
 1072 0000 0000 0DF5 0DF5   04 42 12 34                             subi.w #$1234,d2          ; @BT 04 42 12 34
 1073 0000 0000 0DF9 0DF9   04 04 00 12                             subi.b #$12,d4            ; @BT 04 04 00 12
 1074 0000 0000 0DFD 0DFD   04 12 00 FE                             subi.b #$fe, (a2)         ; @BT 04 12 00 FE
 1075 0000 0000 0E01 0E01   04 63 12 34                             subi.w #$1234, -(a3)      ; @BT 04 63 12 34
 1076 0000 0000 0E05 0E05   04 9C 12 34 56 78                       subi.l #$12345678, (a4)+  ; @BT 04 9C 12 34 56 78
 1077 0000 0000 0E0B 0E0B   04 38 00 12 34 56                       subi.b #$12, $3456.w      ; @BT 04 38 00 12 34 56
 1078 0000 0000 0E11 0E11   04 79 AB CD 12 34 56 78                 subi.w #$abcd,$12345678.l ; @BT 04 79 AB CD 12 34 56 78
 1079 0000 0000 0E19 0E19   04 79 AB CD 12 34 56 78                 subi.w #$abcd, $12345678  ; @BT 04 79 AB CD 12 34 56 78
 1080 0000 0000 0E21 0E21   04 2D 00 12 34 56                       subi.b #$12,($3456,a5)    ; @BT 04 2D 00 12 34 56
 1081 0000 0000 0E27 0E27   04 2D 00 12 34 56                       subi.b #$12,$3456(a5)     ; @BT 04 2D 00 12 34 56
 1082 0000 0000 0E2D 0E2D   04 76 12 34 70 56                       subi.w #$1234,($56,a6,d7) ; @BT 04 76 12 34 70 56
 1083 0000 0000 0E33 0E33   3C 36 39                                .db "<69"                 ; @BT END
                                                            
 1085 0000 0000 0E36 0E36   37 30 3E                                .db "70>"               ; @BT TEST-70 70 START
 1086 0000 0000 0E39 0E39   55 81                                   sub.l #2,d1             ; @BT 55 81
 1087 0000 0000 0E3B 0E3B   57 42                                   sub.w #3,d2             ; @BT 57 42
 1088 0000 0000 0E3D 0E3D   59 04                                   sub.b #4,d4             ; @BT 59 04
 1089 0000 0000 0E3F 0E3F   5B 12                                   sub.b #5,(a2)           ; @BT 5B 12
 1090 0000 0000 0E41 0E41   5D 63                                   sub.w #6,-(a3)          ; @BT 5D 63
 1091 0000 0000 0E43 0E43   5F 9C                                   sub.l #7,(a4)+          ; @BT 5F 9C
 1092 0000 0000 0E45 0E45   51 38 34 56                             sub.b #8,$3456.w        ; @BT 51 38 34 56
 1093 0000 0000 0E49 0E49   53 79 12 34 56 78                       sub.w #1,$12345678.l    ; @BT 53 79 12 34 56 78
 1094 0000 0000 0E4F 0E4F   55 79 12 34 56 78                       sub.w #2,$12345678      ; @BT 55 79 12 34 56 78
 1095 0000 0000 0E55 0E55   57 2D 34 56                             sub.b #3,($3456,a5)     ; @BT 57 2D 34 56
 1096 0000 0000 0E59 0E59   59 2D 34 56                             sub.b #4,$3456(a5)      ; @BT 59 2D 34 56
 1097 0000 0000 0E5D 0E5D   5B 76 70 56                             sub.w #5,($56,a6,d7)    ; @BT 5B 76 70 56
 1098 0000 0000 0E61 0E61   5D 89                                   sub.l #6,a1             ; @BT 5D 89
 1099 0000 0000 0E63 0E63   5F 8A                                   sub.l #7,a2             ; @BT 5F 8A
 1100 0000 0000 0E65 0E65   51 4B                                   sub.w #8,a3             ; @BT 51 4B
 1101 0000 0000 0E67 0E67   3C 37 30                                .db "<70"               ; @BT END
                                                            
 1103 0000 0000 0E6A 0E6A   37 31 3E                                .db "71>"               ; @BT TEST-71 71 START
 1104 0000 0000 0E6D 0E6D   55 81                                   subq.l #2,d1            ; @BT 55 81
 1105 0000 0000 0E6F 0E6F   57 42                                   subq.w #3,d2            ; @BT 57 42
 1106 0000 0000 0E71 0E71   59 04                                   subq.b #4,d4            ; @BT 59 04
 1107 0000 0000 0E73 0E73   5B 12                                   subq.b #5,(a2)          ; @BT 5B 12
 1108 0000 0000 0E75 0E75   5D 63                                   subq.w #6,-(a3)         ; @BT 5D 63
 1109 0000 0000 0E77 0E77   5F 9C                                   subq.l #7,(a4)+         ; @BT 5F 9C
 1110 0000 0000 0E79 0E79   51 38 34 56                             subq.b #8,$3456.w       ; @BT 51 38 34 56
 1111 0000 0000 0E7D 0E7D   53 79 12 34 56 78                       subq.w #1,$12345678.l   ; @BT 53 79 12 34 56 78
 1112 0000 0000 0E83 0E83   55 79 12 34 56 78                       subq.w #2,$12345678     ; @BT 55 79 12 34 56 78
 1113 0000 0000 0E89 0E89   57 2D 34 56                             subq.b #3,($3456,a5)    ; @BT 57 2D 34 56
 1114 0000 0000 0E8D 0E8D   59 2D 34 56                             subq.b #4,$3456(a5)     ; @BT 59 2D 34 56
 1115 0000 0000 0E91 0E91   5B 76 70 56                             subq.w #5,($56,a6,d7)   ; @BT 5B 76 70 56
 1116 0000 0000 0E95 0E95   5D 89                                   subq.l #6,a1            ; @BT 5D 89
 1117 0000 0000 0E97 0E97   5F 8A                                   subq.l #7,a2            ; @BT 5F 8A
 1118 0000 0000 0E99 0E99   51 4B                                   subq.w #8,a3            ; @BT 51 4B
 1119 0000 0000 0E9B 0E9B   3C 37 31                                .db "<71"               ; @BT END
                                                            
 1121 0000 0000 0E9E 0E9E   37 32 3E                                .db "72>"               ; @BT TEST-72 72 START
 1122 0000 0000 0EA1 0EA1   95 01                                   subx.b d1, d2           ; @BT 95 01
 1123 0000 0000 0EA3 0EA3   99 43                                   subx.w d3, d4           ; @BT 99 43
 1124 0000 0000 0EA5 0EA5   9B 87                                   subx.l d7, d5           ; @BT 9B 87
 1125 0000 0000 0EA7 0EA7   95 09                                   subx.b -(a1), -(a2)     ; @BT 95 09
 1126 0000 0000 0EA9 0EA9   99 4B                                   subx.w -(a3), -(a4)     ; @BT 99 4B
 1127 0000 0000 0EAB 0EAB   9B 8F                                   subx.l -(a7), -(a5)     ; @BT 9B 8F
 1128 0000 0000 0EAD 0EAD   3C 37 32                                .db "<72"               ; @BT END
                                                            
 1130 0000 0000 0EB0 0EB0   37 33 3E                                .db "73>"  ; @BT TEST-73 73 START
 1131 0000 0000 0EB3 0EB3   48 43                                   swap d3    ; @BT 48 43
 1132 0000 0000 0EB5 0EB5   48 47                                   swap d7    ; @BT 48 47
 1133 0000 0000 0EB7 0EB7   48 40                                   swap d0    ; @BT 48 40
 1134 0000 0000 0EB9 0EB9   3C 37 33                                .db "<73"  ; @BT END
                                                            
 1136 0000 0000 0EBC 0EBC   37 34 3E                                .db "74>"         ; @BT TEST-74 74 START
 1137 0000 0000 0EBF 0EBF   4A C6                                   tas d6            ; @BT 4A C6
 1138 0000 0000 0EC1 0EC1   4A D4                                   tas (a4)          ; @BT 4A D4
 1139 0000 0000 0EC3 0EC3   4A E7                                   tas -(a7)         ; @BT 4A E7
 1140 0000 0000 0EC5 0EC5   4A DE                                   tas (a6)+         ; @BT 4A DE
 1141 0000 0000 0EC7 0EC7   4A ED 12 34                             tas $1234(a5)     ; @BT 4A ED 12 34
 1142 0000 0000 0ECB 0ECB   4A EB 12 34                             tas ($1234,a3)    ; @BT 4A EB 12 34
 1143 0000 0000 0ECF 0ECF   4A F1 50 12                             tas ($12,a1,d5)   ; @BT 4A F1 50 12
 1144 0000 0000 0ED3 0ED3   4A F8 12 34                             tas $1234.w       ; @BT 4A F8 12 34
 1145 0000 0000 0ED7 0ED7   4A F9 12 34 56 78                       tas $12345678.l   ; @BT 4A F9 12 34 56 78
 1146 0000 0000 0EDD 0EDD   3C 37 34                                .db "<74"         ; @BT END
                                                            
 1148 0000 0000 0EE0 0EE0   37 35 3E                                .db "75>"     ; @BT TEST-75 75 START
 1149 0000 0000 0EE3 0EE3   4E 40                                   trap #0       ; @BT 4E 40
 1150 0000 0000 0EE5 0EE5   4E 47                                   trap #7       ; @BT 4E 47
 1151 0000 0000 0EE7 0EE7   4E 4F                                   trap #15      ; @BT 4E 4F
 1152 0000 0000 0EE9 0EE9   3C 37 35                                .db "<75"     ; @BT END
                                                            
 1154 0000 0000 0EEC 0EEC   37 36 3E                                .db "76>"         ; @BT TEST-76 76 START
 1155 0000 0000 0EEF 0EEF   4A 46                                   tst d6            ; @BT 4A 46
 1156 0000 0000 0EF1 0EF1   4A 54                                   tst (a4)          ; @BT 4A 54
 1157 0000 0000 0EF3 0EF3   4A 67                                   tst -(a7)         ; @BT 4A 67
 1158 0000 0000 0EF5 0EF5   4A 5E                                   tst (a6)+         ; @BT 4A 5E
 1159 0000 0000 0EF7 0EF7   4A 6D 12 34                             tst $1234(a5)     ; @BT 4A 6D 12 34
 1160 0000 0000 0EFB 0EFB   4A 6B 12 34                             tst ($1234,a3)    ; @BT 4A 6B 12 34
 1161 0000 0000 0EFF 0EFF   4A 71 50 12                             tst ($12,a1,d5)   ; @BT 4A 71 50 12
 1162 0000 0000 0F03 0F03   4A 78 12 34                             tst $1234.w       ; @BT 4A 78 12 34
 1163 0000 0000 0F07 0F07   4A 79 12 34 56 78                       tst $12345678.l   ; @BT 4A 79 12 34 56 78
 1164 0000 0000 0F0D 0F0D   3C 37 36                                .db "<76"         ; @BT END
                                                            
 1166 0000 0000 0F10 0F10   37 37 3E                                .db "77>"   ; @BT TEST-77 77 START
 1167 0000 0000 0F13 0F13   4E 58                                   unlk a0     ; @BT 4E 58
 1168 0000 0000 0F15 0F15   4E 5F                                   unlk a7     ; @BT 4E 5F
 1169 0000 0000 0F17 0F17   4E 5C                                   unlk a4     ; @BT 4E 5C
 1170 0000 0000 0F19 0F19   3C 37 37                                .db "<77"   ; @BT END
                                                            
 1172 0000 0000 0F1C 0F1C   37 38 3E                                .db "78>"             ; @BT TEST-78 78 START
 1173 0000 0000 0F1F 0F1F   44 C3                                   move d3,CCR           ; @BT 44 C3
 1174 0000 0000 0F21 0F21   44 D4                                   move (a4),CCR         ; @BT 44 D4
 1175 0000 0000 0F23 0F23   44 E5                                   move -(a5),CCR        ; @BT 44 E5
 1176 0000 0000 0F25 0F25   44 DE                                   move (a6)+,CCR        ; @BT 44 DE
 1177 0000 0000 0F27 0F27   44 EF 12 34                             move $1234(a7),CCR    ; @BT 44 EF 12 34
 1178 0000 0000 0F2B 0F2B   44 F1 20 12                             move ($12,a1,d2),CCR  ; @BT 44 F1 20 12
 1179 0000 0000 0F2F 0F2F   44 F8 12 34                             move $1234.w,CCR      ; @BT 44 F8 12 34
 1180 0000 0000 0F33 0F33   44 F9 12 34 56 78                       move $12345678.l,CCR  ; @BT 44 F9 12 34 56 78
 1181 0000 0000 0F39 0F39   44 FC 12 34                             move #$1234,CCR       ; @BT 44 FC 12 34
 1182 0000 0000 0F3D 0F3D   44 FA 00 06                             move (ccr1,pc),ccr    ; @BT 44 FA 00 06
 1182 0000 0000 0F41 0F41   44 FB 
 1183 0000 0000 0F43 0F43   30 02                                   move (ccr1,pc,d3),ccr ; @BT 44 FB 30 02
 1184 0000 0000 0F45 0F45   3C 37 38                        ccr1:   .db "<78"             ; @BT END
                                                            
 1186 0000 0000 0F48 0F48   37 39 3E                                .db "79>"            ; @BT TEST-79 79 START
 1187 0000 0000 0F4B 0F4B   46 C3                                   move d3,SR           ; @BT 46 C3
 1188 0000 0000 0F4D 0F4D   46 D4                                   move (a4),SR         ; @BT 46 D4
 1189 0000 0000 0F4F 0F4F   46 E5                                   move -(a5),SR        ; @BT 46 E5
 1190 0000 0000 0F51 0F51   46 DE                                   move (a6)+,SR        ; @BT 46 DE
 1191 0000 0000 0F53 0F53   46 EF 12 34                             move $1234(a7),SR    ; @BT 46 EF 12 34
 1192 0000 0000 0F57 0F57   46 F1 20 12                             move ($12,a1,d2),SR  ; @BT 46 F1 20 12
 1193 0000 0000 0F5B 0F5B   46 F8 12 34                             move $1234.w,SR      ; @BT 46 F8 12 34
 1194 0000 0000 0F5F 0F5F   46 F9 12 34 56 78                       move $12345678.l,SR  ; @BT 46 F9 12 34 56 78
 1195 0000 0000 0F65 0F65   46 FC 12 34                             move #$1234,SR       ; @BT 46 FC 12 34
 1196 0000 0000 0F69 0F69   46 FA 00 06                             move (ccr2,pc),sr    ; @BT 46 FA 00 06
 1196 0000 0000 0F6D 0F6D   46 FB 
 1197 0000 0000 0F6F 0F6F   30 02                                   move (ccr2,pc,d3),sr ; @BT 46 FB 30 02
 1198 0000 0000 0F71 0F71   3C 37 39                        ccr2:   .db "<79"            ; @BT END
                                                            
 1200 0000 0000 0F74 0F74   38 30 3E                                .db "80>"            ; @BT TEST-80 80 START
 1201 0000 0000 0F77 0F77   40 C3                                   move SR,d3           ; @BT 40 C3
 1202 0000 0000 0F79 0F79   40 D4                                   move sr,(a4)         ; @BT 40 D4
 1203 0000 0000 0F7B 0F7B   40 E5                                   move sr,-(a5)        ; @BT 40 E5
 1204 0000 0000 0F7D 0F7D   40 DE                                   move sr,(a6)+        ; @BT 40 DE
 1205 0000 0000 0F7F 0F7F   40 EF 12 34                             move sr,$1234(a7)    ; @BT 40 EF 12 34
 1206 0000 0000 0F83 0F83   40 F1 20 12                             move sr,($12,a1,d2)  ; @BT 40 F1 20 12
 1207 0000 0000 0F87 0F87   40 F8 12 34                             move sr,$1234.w      ; @BT 40 F8 12 34
 1208 0000 0000 0F8B 0F8B   40 F9 12 34 56 78                       move sr,$12345678.l  ; @BT 40 F9 12 34 56 78
 1209 0000 0000 0F91 0F91   3C 38 30                                .db "<80"            ; @BT END
                                                            
 1211 0000 0000 0F94 0F94   38 31 3E                                .db "81>"            ; @BT TEST-81 81 START
 1212 0000 0000 0F97 0F97   4E 63                                   move a3,usp          ; @BT 4E 63
 1213 0000 0000 0F99 0F99   4E 67                                   move a7,USP          ; @BT 4E 67
 1214 0000 0000 0F9B 0F9B   4E 6A                                   move usp,a2          ; @BT 4E 6A
 1215 0000 0000 0F9D 0F9D   4E 6E                                   move USP,a6          ; @BT 4E 6E
 1216 0000 0000 0F9F 0F9F   3C 38 31                                .db "<81"            ; @BT END
                                                            
 1218 0000 0000 0FA2 0FA2   38 32 3E                                .db "82>"            ; @BT TEST-82 82 START
 1219 0000 0000 0FA5 0FA5   76 80                                   moveq #-128,d3       ; @BT 76 80
 1220 0000 0000 0FA7 0FA7   7E 7F                                   moveq.l #127,d7      ; @BT 7E 7F
 1221 0000 0000 0FA9 0FA9   7C 00                                   moveq #0,d6          ; @BT 7C 00
 1222 0000 0000 0FAB 0FAB   72 01                                   moveq.l #1,d1        ; @BT 72 01
 1223 0000 0000 0FAD 0FAD   76 80                                   move #-128,d3        ; @BT 76 80
 1224 0000 0000 0FAF 0FAF   7E 7F                                   move.l #127,d7       ; @BT 7E 7F
 1225 0000 0000 0FB1 0FB1   7C 00                                   move #0,d6           ; @BT 7C 00
 1226 0000 0000 0FB3 0FB3   72 01                                   move.l #1,d1         ; @BT 72 01
 1227 0000 0000 0FB5 0FB5   3C 38 32                                .db "<82"            ; @BT END
                                                            
 1229 0000 0000 0FB8 0FB8   38 33 3E                                .db "83>"                 ; @BT TEST-83 83 START
 1230 0000 0000 0FBB 0FBB   3A 49                                   movea.w a1,a5             ; @BT 3A 49
 1231 0000 0000 0FBD 0FBD   24 4F                                   movea.l a7,a2             ; @BT 24 4F
 1232 0000 0000 0FBF 0FBF   38 43                                   movea.w d3,a4             ; @BT 38 43
 1233 0000 0000 0FC1 0FC1   20 51                                   movea.l (a1),a0           ; @BT 20 51
 1234 0000 0000 0FC3 0FC3   3E 62                                   movea.w -(a2),a7          ; @BT 3E 62
 1235 0000 0000 0FC5 0FC5   28 5B                                   movea.l (a3)+,a4          ; @BT 28 5B
 1236 0000 0000 0FC7 0FC7   32 6D 12 34                             movea.w $1234(a5),a1      ; @BT 32 6D 12 34
 1237 0000 0000 0FCB 0FCB   24 76 70 12                             movea.l ($12,a6,d7),a2    ; @BT 24 76 70 12
 1238 0000 0000 0FCF 0FCF   36 78 12 34                             movea.w $1234.w,a3        ; @BT 36 78 12 34
 1239 0000 0000 0FD3 0FD3   38 79 12 34 56 78                       movea.w $12345678,a4      ; @BT 38 79 12 34 56 78
 1240 0000 0000 0FD9 0FD9   3A 7C 12 34                             movea.w #$1234,a5         ; @BT 3A 7C 12 34
 1241 0000 0000 0FDD 0FDD   2C 7C 12 34 56 78                       movea.l #$12345678,a6     ; @BT 2C 7C 12 34 56 78
 1242 0000 0000 0FE3 0FE3   3E 7A 00 06                             movea.w end_83(pc),a7     ; @BT 3E 7A 00 06
 1242 0000 0000 0FE7 0FE7   22 7B 
 1243 0000 0000 0FE9 0FE9   20 02                                   movea.l (end_83,pc,d2),a1 ; @BT 22 7B 20 02
 1244 0000 0000 0FEB 0FEB   3C 38 33                        end_83: .db "<83"                 ; @BT END
                                                            
 1246 0000 0000 0FEE 0FEE   38 34 3E                                .db "84>"                  ; @BT TEST-84 84 START
 1247 0000 0000 0FF1 0FF1   3A 09                                   move.w a1,d5               ; @BT 3A 09
 1248 0000 0000 0FF3 0FF3   33 CA 12 34 56 78                       move.w a2,$12345678        ; @BT 33 CA 12 34 56 78
 1249 0000 0000 0FF9 0FF9   19 43 12 34                             move.b d3,$1234(a4)        ; @BT 19 43 12 34
 1250 0000 0000 0FFD 0FFD   24 91                                   move.l (a1),(a2)           ; @BT 24 91
 1251 0000 0000 0FFF 0FFF   16 E2                                   move.b -(a2),(a3)+         ; @BT 16 E2
 1252 0000 0000 1001 1001   29 1B                                   move.l (a3)+,-(a4)         ; @BT 29 1B
 1253 0000 0000 1003 1003   32 2D 12 34                             move.w $1234(a5),d1        ; @BT 32 2D 12 34
 1254 0000 0000 1007 1007   21 F6 70 12 12 34                       move.l ($12,a6,d7),$1234.w ; @BT 21 F6 70 12 12 34
 1255 0000 0000 100D 100D   16 38 12 34                             move.b $1234.w,d3          ; @BT 16 38 12 34
 1256 0000 0000 1011 1011   38 B9 12 34 56 78                       move.w $12345678,(a4)      ; @BT 38 B9 12 34 56 78
 1257 0000 0000 1017 1017   3A FC 12 34                             move.w #$1234,(a5)+        ; @BT 3A FC 12 34
 1258 0000 0000 101B 101B   2D 3C 12 34 56 78                       move.l #$12345678,-(a6)    ; @BT 2D 3C 12 34 56 78
 1259 0000 0000 1021 1021   1E BA 00 08                             move.b end_84(pc),(a7)     ; @BT 1E BA 00 08
 1259 0000 0000 1025 1025   2F 7B 
 1260 0000 0000 1027 1027   20 04 12 34                             move.l (end_84,pc,d2),$1234(a7) ; @BT 2F 7B 20 04 12 34
 1261 0000 0000 102B 102B   3C 38 34                        end_84: .db "<84"                  ; @BT END
                                                            
 1263 0000 0000 102E 102E   38 35 3E                                .db "85>"                ; @BT TEST-85 85 START
 1264 0000 0000 1031 1031   3A 49                                   move.w a1,a5             ; @BT 3A 49
 1265 0000 0000 1033 1033   24 4F                                   move.l a7,a2             ; @BT 24 4F
 1266 0000 0000 1035 1035   38 43                                   move.w d3,a4             ; @BT 38 43
 1267 0000 0000 1037 1037   20 51                                   move.l (a1),a0           ; @BT 20 51
 1268 0000 0000 1039 1039   3E 62                                   move.w -(a2),a7          ; @BT 3E 62
 1269 0000 0000 103B 103B   28 5B                                   move.l (a3)+,a4          ; @BT 28 5B
 1270 0000 0000 103D 103D   32 6D 12 34                             move.w $1234(a5),a1      ; @BT 32 6D 12 34
 1271 0000 0000 1041 1041   24 76 70 12                             move.l ($12,a6,d7),a2    ; @BT 24 76 70 12
 1272 0000 0000 1045 1045   36 78 12 34                             move.w $1234.w,a3        ; @BT 36 78 12 34
 1273 0000 0000 1049 1049   38 79 12 34 56 78                       move.w $12345678,a4      ; @BT 38 79 12 34 56 78
 1274 0000 0000 104F 104F   3A 7C 12 34                             move.w #$1234,a5         ; @BT 3A 7C 12 34
 1275 0000 0000 1053 1053   2C 7C 12 34 56 78                       move.l #$12345678,a6     ; @BT 2C 7C 12 34 56 78
 1276 0000 0000 1059 1059   3E 7A 00 06                             move.w end_85(pc),a7     ; @BT 3E 7A 00 06
 1276 0000 0000 105D 105D   22 7B 
 1277 0000 0000 105F 105F   20 02                                   move.l (end_85,pc,d2),a1 ; @BT 22 7B 20 02
 1278 0000 0000 1061 1061   3C 38 35                        end_85: .db "<85"                ; @BT END
                                                            
 1280 0000 0000 1064 1064   38 36 3E                                .db "86>"                ; @BT TEST-86 86 START
 1281 0000 0000 1067 1067   07 8D 12 34                             movep d3,$1234(a5)       ; @BT 07 8D 12 34
 1282 0000 0000 106B 106B   0F 8A 56 78                             movep.w d7,($5678,a2)    ; @BT 0F 8A 56 78
 1283 0000 0000 106F 106F   09 0F 12 34                             movep $1234(a7),d4       ; @BT 09 0F 12 34
 1284 0000 0000 1073 1073   03 0A 56 78                             movep.w ($5678,a2),d1    ; @BT 03 0A 56 78
 1285 0000 0000 1077 1077   07 CD 12 34                             movep.l d3,$1234(a5)     ; @BT 07 CD 12 34
 1286 0000 0000 107B 107B   0F CA 56 78                             movep.l d7,($5678,a2)    ; @BT 0F CA 56 78
 1287 0000 0000 107F 107F   09 4F 12 34                             movep.l $1234(a7),d4     ; @BT 09 4F 12 34
 1288 0000 0000 1083 1083   03 4A 56 78                             movep.l ($5678,a2),d1    ; @BT 03 4A 56 78
 1289 0000 0000 1087 1087   3C 38 36                                .db "<86"                ; @BT END
                                                            
 1291 0000 0000 108A 108A   38 37 3E                                .db "87>"                ; @BT TEST-87 87 START
 1292 0000 0000 108D 108D   48 91 FF FF                             movem.w d0-d7/a0-a7,(a1) ; @BT 48 91 FF FF
 1293 0000 0000 1091 1091   48 D1 F0 0F                             movem.l d0-d3/a4-a7,(a1) ; @BT 48 D1 F0 0F
 1294 0000 0000 1095 1095   48 A7 53 AE                             movem.w d1/d3/d6-d7/a0/a2/a4-a6,-(a7) ; @BT 48 A7 53 AE
 1295 0000 0000 1099 1099   48 AB FF FF 12 34                       movem.w d0-d7/a0-a7,$1234(a3) ; @BT 48 AB FF FF 12 34
 1296 0000 0000 109F 109F   48 F3 F0 0F 40 12                       movem.l d0-d3/a4-a7,($12,a3,d4) ; @BT 48 F3 F0 0F 40 12
 1297 0000 0000 10A5 10A5   48 B8 75 CA 12 34                       movem.w d1/d3/d6-d7/a0/a2/a4-a6,$1234.w ; @BT 48 B8 75 CA 12 34
 1298 0000 0000 10AB 10AB   48 B9 7F 2F 12 34 56 78                 movem.w d0-d3/d5/a0-a6,$12345678 ; @BT 48 B9 7F 2F 12 34 56 78
 1299 0000 0000 10B3 10B3   48 91 FF FF                             movem d0-d7/a0-a7,(a1) ; @BT 48 91 FF FF
 1300 0000 0000 10B7 10B7   48 A7 53 AE                             movem d1/d3/d6-d7/a0/a2/a4-a6,-(a7) ; @BT 48 A7 53 AE
 1301 0000 0000 10BB 10BB   48 AB FF FF 12 34                       movem d0-d7/a0-a7,$1234(a3) ; @BT 48 AB FF FF 12 34
 1302 0000 0000 10C1 10C1   48 B8 75 CA 12 34                       movem d1/d3/d6-d7/a0/a2/a4-a6,$1234.w ; @BT 48 B8 75 CA 12 34
 1303 0000 0000 10C7 10C7   48 B9 7F 2F 12 34 56 78                 movem d0-d3/d5/a0-a6,$12345678 ; @BT 48 B9 7F 2F 12 34 56 78
 1304 0000 0000 10CF 10CF   3C 38 37                                .db "<87"                ; @BT END
                                                            
 1306 0000 0000 10D2 10D2   38 38 3E                                .db "88>"                ; @BT TEST-88 88 START
 1307 0000 0000 10D5 10D5   4C D3 75 B8                             movem.l (a3),a0/a2/a4-a6/d3-d5/d7 ; @BT 4C D3 75 B8
 1308 0000 0000 10D9 10D9   4C 9C 3F 1F                             movem.w (a4)+,a0-a5/d0-d4 ; @BT 4C 9C 3F 1F
 1309 0000 0000 10DD 10DD   4C EF 00 FF 56 78                       movem.l $5678(a7),d0-d7   ; @BT 4C EF 00 FF 56 78
 1310 0000 0000 10E3 10E3   4C F1 3F 03 20 78                       movem.l ($78,a1,d2),a0-a5/d0-d1 ; @BT 4C F1 3F 03 20 78
 1311 0000 0000 10E9 10E9   4C B8 55 55 34 56                       movem.w $3456.w,a0/a2/a4/a6/d0/d2/d4/d6 ; @BT 4C B8 55 55 34 56
 1312 0000 0000 10EF 10EF   4C F9 07 07 12 34 56 78                 movem.l $12345678,a0-a2/d0-d2 ; @BT 4C F9 07 07 12 34 56 78
 1313 0000 0000 10F7 10F7   4C BA 21 02 00 08                       movem.w end_88(pc),a0/a5/d1 ; @BT 4C BA 21 02 00 08
 1313 0000 0000 10FD 10FD   4C FB 17 3E 
 1314 0000 0000 1101 1101   00 02                                   movem.l (end_88,pc,d0),d1-d4/a0-a2/d5/a4 ; @BT 4C FB 17 3E 00 02
 1315 0000 0000 1103 1103   3C 38 38                        end_88: .db "<88"                ; @BT END
                                                                    
                                                                    .org $ABCE
                                                            label_ABCE:
