Archive member included       because of file (symbol)

../lib/.libs/libcurl.a(libcurl_la-formdata.o)
                              tool_formparse.o (curl_formadd)
../lib/.libs/libcurl.a(libcurl_la-sendf.o)
                              ../lib/.libs/libcurl.a(libcurl_la-formdata.o) (Curl_failf)
../lib/.libs/libcurl.a(libcurl_la-version.o)
                              tool_help.o (curl_version)
../lib/.libs/libcurl.a(libcurl_la-getenv.o)
                              tool_cb_prg.o (curl_getenv)
../lib/.libs/libcurl.a(libcurl_la-escape.o)
                              tool_getparam.o (curl_easy_escape)
../lib/.libs/libcurl.a(libcurl_la-mprintf.o)
                              tool_cb_dbg.o (curl_msnprintf)
../lib/.libs/libcurl.a(libcurl_la-strcase.o)
                              ../lib/.libs/libcurl.a(libcurl_la-formdata.o) (Curl_strcasecompare)
../lib/.libs/libcurl.a(libcurl_la-easy.o)
                              ../lib/.libs/libcurl.a(libcurl_la-formdata.o) (Curl_cmalloc)
../lib/.libs/libcurl.a(libcurl_la-connect.o)
                              ../lib/.libs/libcurl.a(libcurl_la-easy.o) (Curl_getconnectinfo)
../lib/.libs/libcurl.a(libcurl_la-multi.o)
                              ../lib/.libs/libcurl.a(libcurl_la-easy.o) (Curl_multi_handle)
../lib/.libs/libcurl.a(libcurl_la-inet_pton.o)
                              ../lib/.libs/libcurl.a(libcurl_la-connect.o) (Curl_inet_pton)
../lib/.libs/libcurl.a(libcurl_la-strerror.o)
                              tool_operate.o (curl_easy_strerror)
../lib/.libs/libcurl.a(libcurl_la-inet_ntop.o)
                              ../lib/.libs/libcurl.a(libcurl_la-connect.o) (Curl_inet_ntop)
../lib/.libs/libcurl.a(libcurl_la-parsedate.o)
                              tool_getparam.o (curl_getdate)
../lib/.libs/libcurl.a(libcurl_la-select.o)
                              ../lib/.libs/libcurl.a(libcurl_la-easy.o) (Curl_ack_eintr)
../lib/.libs/libcurl.a(libcurl_la-splay.o)
                              ../lib/.libs/libcurl.a(libcurl_la-multi.o) (Curl_splay)
../lib/.libs/libcurl.a(libcurl_la-strdup.o)
                              ../lib/.libs/libcurl.a(libcurl_la-formdata.o) (Curl_memdup)
../lib/.libs/libcurl.a(libcurl_la-slist.o)
                              slist_wc.o (curl_slist_append)
../lib/.libs/libcurl.a(libcurl_la-rand.o)
                              ../lib/.libs/libcurl.a(libcurl_la-formdata.o) (Curl_rand)
../lib/.libs/libcurl.a(libcurl_la-conncache.o)
                              ../lib/.libs/libcurl.a(libcurl_la-multi.o) (Curl_conncache_init)
../lib/.libs/libcurl.a(libcurl_la-pipeline.o)
                              ../lib/.libs/libcurl.a(libcurl_la-multi.o) (Curl_add_handle_to_pipeline)
../lib/.libs/libcurl.a(libcurl_la-vtls.o)
                              ../lib/.libs/libcurl.a(libcurl_la-easy.o) (Curl_ssl_init)
../lib/.libs/libcurl.a(libcurl_la-timeval.o)
                              ../lib/.libs/libcurl.a(libcurl_la-easy.o) (curlx_tvnow)
../lib/.libs/libcurl.a(libcurl_la-base64.o)
                              ../lib/.libs/libcurl.a(libcurl_la-vtls.o) (Curl_base64_decode)
../lib/.libs/libcurl.a(libcurl_la-hostip.o)
                              ../lib/.libs/libcurl.a(libcurl_la-multi.o) (Curl_global_host_cache_init)
../lib/.libs/libcurl.a(libcurl_la-progress.o)
                              ../lib/.libs/libcurl.a(libcurl_la-multi.o) (Curl_pgrsDone)
../lib/.libs/libcurl.a(libcurl_la-cookie.o)
                              ../lib/.libs/libcurl.a(libcurl_la-easy.o) (Curl_cookie_init)
../lib/.libs/libcurl.a(libcurl_la-http.o)
                              ../lib/.libs/libcurl.a(libcurl_la-multi.o) (Curl_http_connect)
../lib/.libs/libcurl.a(libcurl_la-url.o)
                              ../lib/.libs/libcurl.a(libcurl_la-easy.o) (Curl_freeset)
../lib/.libs/libcurl.a(libcurl_la-dict.o)
                              ../lib/.libs/libcurl.a(libcurl_la-url.o) (Curl_handler_dict)
../lib/.libs/libcurl.a(libcurl_la-if2ip.o)
                              ../lib/.libs/libcurl.a(libcurl_la-connect.o) (Curl_ipv6_scope)
../lib/.libs/libcurl.a(libcurl_la-speedcheck.o)
                              ../lib/.libs/libcurl.a(libcurl_la-url.o) (Curl_speedinit)
../lib/.libs/libcurl.a(libcurl_la-telnet.o)
                              ../lib/.libs/libcurl.a(libcurl_la-url.o) (Curl_handler_telnet)
../lib/.libs/libcurl.a(libcurl_la-netrc.o)
                              ../lib/.libs/libcurl.a(libcurl_la-url.o) (Curl_parsenetrc)
../lib/.libs/libcurl.a(libcurl_la-getinfo.o)
                              ../lib/.libs/libcurl.a(libcurl_la-easy.o) (Curl_initinfo)
../lib/.libs/libcurl.a(libcurl_la-transfer.o)
                              ../lib/.libs/libcurl.a(libcurl_la-http.o) (Curl_readrewind)
../lib/.libs/libcurl.a(libcurl_la-wildcard.o)
                              ../lib/.libs/libcurl.a(libcurl_la-transfer.o) (Curl_wildcard_init)
../lib/.libs/libcurl.a(libcurl_la-http_chunks.o)
                              ../lib/.libs/libcurl.a(libcurl_la-http.o) (Curl_httpchunk_init)
../lib/.libs/libcurl.a(libcurl_la-llist.o)
                              ../lib/.libs/libcurl.a(libcurl_la-multi.o) (Curl_llist_alloc)
../lib/.libs/libcurl.a(libcurl_la-hash.o)
                              ../lib/.libs/libcurl.a(libcurl_la-multi.o) (Curl_hash_init)
../lib/.libs/libcurl.a(libcurl_la-content_encoding.o)
                              ../lib/.libs/libcurl.a(libcurl_la-transfer.o) (Curl_unencode_deflate_write)
../lib/.libs/libcurl.a(libcurl_la-share.o)
                              ../lib/.libs/libcurl.a(libcurl_la-vtls.o) (Curl_share_lock)
../lib/.libs/libcurl.a(libcurl_la-http_digest.o)
                              ../lib/.libs/libcurl.a(libcurl_la-http.o) (Curl_input_digest)
../lib/.libs/libcurl.a(libcurl_la-hostip4.o)
                              ../lib/.libs/libcurl.a(libcurl_la-hostip.o) (Curl_ipvalid)
../lib/.libs/libcurl.a(libcurl_la-hostsyn.o)
                              ../lib/.libs/libcurl.a(libcurl_la-url.o) (Curl_set_dns_servers)
../lib/.libs/libcurl.a(libcurl_la-tftp.o)
                              ../lib/.libs/libcurl.a(libcurl_la-url.o) (Curl_handler_tftp)
../lib/.libs/libcurl.a(libcurl_la-socks.o)
                              ../lib/.libs/libcurl.a(libcurl_la-url.o) (Curl_SOCKS4)
../lib/.libs/libcurl.a(libcurl_la-curl_addrinfo.o)
                              ../lib/.libs/libcurl.a(libcurl_la-hostip.o) (Curl_freeaddrinfo)
../lib/.libs/libcurl.a(libcurl_la-curl_memrchr.o)
                              ../lib/.libs/libcurl.a(libcurl_la-cookie.o) (Curl_memrchr)
../lib/.libs/libcurl.a(libcurl_la-imap.o)
                              ../lib/.libs/libcurl.a(libcurl_la-url.o) (Curl_handler_imap)
../lib/.libs/libcurl.a(libcurl_la-pop3.o)
                              ../lib/.libs/libcurl.a(libcurl_la-url.o) (Curl_handler_pop3)
../lib/.libs/libcurl.a(libcurl_la-smtp.o)
                              ../lib/.libs/libcurl.a(libcurl_la-url.o) (Curl_handler_smtp)
../lib/.libs/libcurl.a(libcurl_la-pingpong.o)
                              ../lib/.libs/libcurl.a(libcurl_la-imap.o) (Curl_pp_statemach)
../lib/.libs/libcurl.a(libcurl_la-rtsp.o)
                              ../lib/.libs/libcurl.a(libcurl_la-url.o) (Curl_handler_rtsp)
../lib/.libs/libcurl.a(libcurl_la-curl_gethostname.o)
                              ../lib/.libs/libcurl.a(libcurl_la-smtp.o) (Curl_gethostname)
../lib/.libs/libcurl.a(libcurl_la-gopher.o)
                              ../lib/.libs/libcurl.a(libcurl_la-url.o) (Curl_handler_gopher)
../lib/.libs/libcurl.a(libcurl_la-http_proxy.o)
                              ../lib/.libs/libcurl.a(libcurl_la-http.o) (Curl_proxy_connect)
../lib/.libs/libcurl.a(libcurl_la-http_ntlm.o)
                              ../lib/.libs/libcurl.a(libcurl_la-http.o) (Curl_input_ntlm)
../lib/.libs/libcurl.a(libcurl_la-curl_sasl.o)
                              ../lib/.libs/libcurl.a(libcurl_la-imap.o) (Curl_sasl_cleanup)
../lib/.libs/libcurl.a(libcurl_la-dotdot.o)
                              ../lib/.libs/libcurl.a(libcurl_la-url.o) (Curl_dedotdotify)
../lib/.libs/libcurl.a(libcurl_la-smb.o)
                              ../lib/.libs/libcurl.a(libcurl_la-url.o) (Curl_handler_smb)
../lib/.libs/libcurl.a(libcurl_la-curl_endian.o)
                              ../lib/.libs/libcurl.a(libcurl_la-smb.o) (Curl_read16_le)
../lib/.libs/libcurl.a(libcurl_la-cleartext.o)
                              ../lib/.libs/libcurl.a(libcurl_la-curl_sasl.o) (Curl_auth_create_plain_message)
../lib/.libs/libcurl.a(libcurl_la-cram.o)
                              ../lib/.libs/libcurl.a(libcurl_la-curl_sasl.o) (Curl_auth_decode_cram_md5_message)
../lib/.libs/libcurl.a(libcurl_la-digest.o)
                              ../lib/.libs/libcurl.a(libcurl_la-http.o) (Curl_auth_is_digest_supported)
../lib/.libs/libcurl.a(libcurl_la-ntlm.o)
                              ../lib/.libs/libcurl.a(libcurl_la-http.o) (Curl_auth_is_ntlm_supported)
../lib/.libs/libcurl.a(libcurl_la-oauth2.o)
                              ../lib/.libs/libcurl.a(libcurl_la-curl_sasl.o) (Curl_auth_create_oauth_bearer_message)
../lib/.libs/libcurl.a(libcurl_la-openssl.o)
                              ../lib/.libs/libcurl.a(libcurl_la-vtls.o) (Curl_ossl_init)
../lib/.libs/libcurl.a(libcurl_la-file.o)
                              ../lib/.libs/libcurl.a(libcurl_la-url.o) (Curl_handler_file)
../lib/.libs/libcurl.a(libcurl_la-ftp.o)
                              ../lib/.libs/libcurl.a(libcurl_la-url.o) (Curl_handler_ftp)
../lib/.libs/libcurl.a(libcurl_la-fileinfo.o)
                              ../lib/.libs/libcurl.a(libcurl_la-wildcard.o) (Curl_fileinfo_dtor)
../lib/.libs/libcurl.a(libcurl_la-ftplistparser.o)
                              ../lib/.libs/libcurl.a(libcurl_la-ftp.o) (Curl_ftp_parselist_data_alloc)
../lib/.libs/libcurl.a(libcurl_la-md5.o)
                              ../lib/.libs/libcurl.a(libcurl_la-cram.o) (Curl_HMAC_MD5)
../lib/.libs/libcurl.a(libcurl_la-hmac.o)
                              ../lib/.libs/libcurl.a(libcurl_la-cram.o) (Curl_HMAC_init)
../lib/.libs/libcurl.a(libcurl_la-curl_ntlm_core.o)
                              ../lib/.libs/libcurl.a(libcurl_la-smb.o) (Curl_ntlm_core_lm_resp)
../lib/.libs/libcurl.a(libcurl_la-hostcheck.o)
                              ../lib/.libs/libcurl.a(libcurl_la-openssl.o) (Curl_cert_hostcheck)
../lib/.libs/libcurl.a(libcurl_la-vauth.o)
                              ../lib/.libs/libcurl.a(libcurl_la-digest.o) (Curl_auth_build_spn)
../lib/.libs/libcurl.a(libcurl_la-curl_fnmatch.o)
                              ../lib/.libs/libcurl.a(libcurl_la-ftplistparser.o) (Curl_fnmatch)
/usr/local/lib/libssl.a(s3_clnt.o)
                              ../lib/.libs/libcurl.a(libcurl_la-openssl.o) (SSLv3_client_method)
/usr/local/lib/libssl.a(s3_lib.o)
                              /usr/local/lib/libssl.a(s3_clnt.o) (SSLv3_enc_data)
/usr/local/lib/libssl.a(s3_enc.o)
                              /usr/local/lib/libssl.a(s3_lib.o) (ssl3_change_cipher_state)
/usr/local/lib/libssl.a(s3_pkt.o)
                              /usr/local/lib/libssl.a(s3_clnt.o) (ssl3_send_alert)
/usr/local/lib/libssl.a(s3_both.o)
                              /usr/local/lib/libssl.a(s3_clnt.o) (ssl3_send_finished)
/usr/local/lib/libssl.a(s23_clnt.o)
                              ../lib/.libs/libcurl.a(libcurl_la-openssl.o) (SSLv23_client_method)
/usr/local/lib/libssl.a(s23_lib.o)
                              /usr/local/lib/libssl.a(s23_clnt.o) (ssl23_read)
/usr/local/lib/libssl.a(s23_pkt.o)
                              /usr/local/lib/libssl.a(s23_clnt.o) (ssl23_read_bytes)
/usr/local/lib/libssl.a(t1_clnt.o)
                              /usr/local/lib/libssl.a(s23_clnt.o) (TLSv1_client_method)
/usr/local/lib/libssl.a(t1_lib.o)
                              /usr/local/lib/libssl.a(t1_clnt.o) (TLSv1_enc_data)
/usr/local/lib/libssl.a(t1_enc.o)
                              /usr/local/lib/libssl.a(t1_lib.o) (tls1_change_cipher_state)
/usr/local/lib/libssl.a(ssl_lib.o)
                              /usr/local/lib/libssl.a(s23_clnt.o) (ssl3_undef_enc_method)
/usr/local/lib/libssl.a(ssl_err2.o)
                              ../lib/.libs/libcurl.a(libcurl_la-openssl.o) (SSL_load_error_strings)
/usr/local/lib/libssl.a(ssl_cert.o)
                              /usr/local/lib/libssl.a(ssl_lib.o) (ssl_cert_dup)
/usr/local/lib/libssl.a(ssl_sess.o)
                              /usr/local/lib/libssl.a(s3_clnt.o) (ssl_get_new_session)
/usr/local/lib/libssl.a(ssl_ciph.o)
                              /usr/local/lib/libssl.a(s3_enc.o) (ssl_cipher_get_evp)
/usr/local/lib/libssl.a(ssl_rsa.o)
                              ../lib/.libs/libcurl.a(libcurl_la-openssl.o) (SSL_CTX_use_certificate_file)
/usr/local/lib/libssl.a(ssl_asn1.o)
                              /usr/local/lib/libssl.a(t1_lib.o) (d2i_SSL_SESSION)
/usr/local/lib/libssl.a(ssl_algs.o)
                              ../lib/.libs/libcurl.a(libcurl_la-openssl.o) (SSL_library_init)
/usr/local/lib/libssl.a(bio_ssl.o)
                              ../lib/.libs/libcurl.a(libcurl_la-openssl.o) (BIO_f_ssl)
/usr/local/lib/libssl.a(ssl_err.o)
                              /usr/local/lib/libssl.a(ssl_err2.o) (ERR_load_SSL_strings)
/usr/local/lib/libssl.a(s2_clnt.o)
                              /usr/local/lib/libssl.a(s23_clnt.o) (SSLv2_client_method)
/usr/local/lib/libssl.a(s2_lib.o)
                              /usr/local/lib/libssl.a(s23_clnt.o) (ssl2_new)
/usr/local/lib/libssl.a(s2_enc.o)
                              /usr/local/lib/libssl.a(s2_clnt.o) (ssl2_enc_init)
/usr/local/lib/libssl.a(s2_pkt.o)
                              /usr/local/lib/libssl.a(s2_clnt.o) (ssl2_do_write)
/usr/local/lib/libcrypto.a(cryptlib.o)
                              /usr/local/lib/libssl.a(ssl_lib.o) (CRYPTO_lock)
/usr/local/lib/libcrypto.a(mem.o)
                              ../lib/.libs/libcurl.a(libcurl_la-openssl.o) (CRYPTO_malloc)
/usr/local/lib/libcrypto.a(mem_clr.o)
                              /usr/local/lib/libcrypto.a(mem.o) (cleanse_ctr)
/usr/local/lib/libcrypto.a(mem_dbg.o)
                              /usr/local/lib/libssl.a(ssl_ciph.o) (CRYPTO_mem_ctrl)
/usr/local/lib/libcrypto.a(cversion.o)
                              ../lib/.libs/libcurl.a(libcurl_la-openssl.o) (SSLeay)
/usr/local/lib/libcrypto.a(ex_data.o)
                              /usr/local/lib/libssl.a(ssl_lib.o) (CRYPTO_get_ex_data)
/usr/local/lib/libcrypto.a(o_dir.o)
                              /usr/local/lib/libssl.a(ssl_cert.o) (OPENSSL_DIR_read)
/usr/local/lib/libcrypto.a(o_names.o)
                              /usr/local/lib/libssl.a(ssl_algs.o) (OBJ_NAME_add)
/usr/local/lib/libcrypto.a(obj_dat.o)
                              /usr/local/lib/libssl.a(s3_lib.o) (OBJ_bsearch)
/usr/local/lib/libcrypto.a(obj_lib.o)
                              /usr/local/lib/libcrypto.a(obj_dat.o) (OBJ_dup)
/usr/local/lib/libcrypto.a(md4_dgst.o)
                              ../lib/.libs/libcurl.a(libcurl_la-curl_ntlm_core.o) (MD4_Update)
/usr/local/lib/libcrypto.a(md5_dgst.o)
                              ../lib/.libs/libcurl.a(libcurl_la-openssl.o) (MD5_Update)
/usr/local/lib/libcrypto.a(sha256.o)
                              ../lib/.libs/libcurl.a(libcurl_la-openssl.o) (SHA256_Update)
/usr/local/lib/libcrypto.a(hmac.o)
                              /usr/local/lib/libssl.a(t1_lib.o) (HMAC_Init_ex)
/usr/local/lib/libcrypto.a(set_key.o)
                              ../lib/.libs/libcurl.a(libcurl_la-curl_ntlm_core.o) (DES_set_odd_parity)
/usr/local/lib/libcrypto.a(ecb_enc.o)
                              ../lib/.libs/libcurl.a(libcurl_la-curl_ntlm_core.o) (DES_ecb_encrypt)
/usr/local/lib/libcrypto.a(des_enc.o)
                              /usr/local/lib/libcrypto.a(ecb_enc.o) (DES_encrypt1)
/usr/local/lib/libcrypto.a(bn_lib.o)
                              /usr/local/lib/libssl.a(ssl_cert.o) (BN_dup)
/usr/local/lib/libcrypto.a(bn_ctx.o)
                              /usr/local/lib/libssl.a(s3_clnt.o) (BN_CTX_new)
/usr/local/lib/libcrypto.a(bn_print.o)
                              /usr/local/lib/libcrypto.a(obj_dat.o) (BN_bn2dec)
/usr/local/lib/libcrypto.a(bn_shift.o)
                              /usr/local/lib/libcrypto.a(obj_dat.o) (BN_lshift)
/usr/local/lib/libcrypto.a(bn_word.o)
                              /usr/local/lib/libcrypto.a(obj_dat.o) (BN_add_word)
/usr/local/lib/libcrypto.a(bn_asm.o)
                              /usr/local/lib/libcrypto.a(bn_word.o) (bn_mul_words)
/usr/local/lib/libcrypto.a(ec_lib.o)
                              /usr/local/lib/libssl.a(s3_clnt.o) (EC_POINT_new)
/usr/local/lib/libcrypto.a(ec_mult.o)
                              /usr/local/lib/libcrypto.a(ec_lib.o) (ec_wNAF_mul)
/usr/local/lib/libcrypto.a(ec_curve.o)
                              /usr/local/lib/libssl.a(s3_clnt.o) (EC_GROUP_new_by_curve_name)
/usr/local/lib/libcrypto.a(ec_key.o)
                              /usr/local/lib/libssl.a(s3_lib.o) (EC_KEY_dup)
/usr/local/lib/libcrypto.a(rsa_lib.o)
                              /usr/local/lib/libssl.a(s3_clnt.o) (RSA_size)
/usr/local/lib/libcrypto.a(rsa_sign.o)
                              /usr/local/lib/libssl.a(s3_clnt.o) (RSA_sign)
/usr/local/lib/libcrypto.a(rsa_asn1.o)
                              /usr/local/lib/libssl.a(ssl_rsa.o) (d2i_RSAPrivateKey)
/usr/local/lib/libcrypto.a(rsa_eng.o)
                              /usr/local/lib/libssl.a(s3_clnt.o) (RSA_free)
/usr/local/lib/libcrypto.a(dsa_asn1.o)
                              /usr/local/lib/libssl.a(s3_clnt.o) (DSA_sign)
/usr/local/lib/libcrypto.a(dsa_vrf.o)
                              /usr/local/lib/libcrypto.a(dsa_asn1.o) (DSA_do_verify)
/usr/local/lib/libcrypto.a(dsa_sign.o)
                              /usr/local/lib/libcrypto.a(dsa_asn1.o) (DSA_do_sign)
/usr/local/lib/libcrypto.a(dsa_utl.o)
                              /usr/local/lib/libcrypto.a(dsa_asn1.o) (DSA_SIG_new)
/usr/local/lib/libcrypto.a(ecs_sign.o)
                              /usr/local/lib/libssl.a(s3_clnt.o) (ECDSA_sign)
/usr/local/lib/libcrypto.a(dh_asn1.o)
                              /usr/local/lib/libssl.a(s3_clnt.o) (d2i_DHparams)
/usr/local/lib/libcrypto.a(dh_key.o)
                              /usr/local/lib/libssl.a(s3_clnt.o) (DH_generate_key)
/usr/local/lib/libcrypto.a(dh_lib.o)
                              /usr/local/lib/libssl.a(s3_clnt.o) (DH_free)
/usr/local/lib/libcrypto.a(dh_check.o)
                              /usr/local/lib/libcrypto.a(dh_key.o) (DH_check_pub_key)
/usr/local/lib/libcrypto.a(ech_key.o)
                              /usr/local/lib/libssl.a(s3_clnt.o) (ECDH_compute_key)
/usr/local/lib/libcrypto.a(eng_lib.o)
                              ../lib/.libs/libcurl.a(libcurl_la-openssl.o) (ENGINE_free)
/usr/local/lib/libcrypto.a(eng_list.o)
                              ../lib/.libs/libcurl.a(libcurl_la-openssl.o) (ENGINE_get_first)
/usr/local/lib/libcrypto.a(eng_init.o)
                              ../lib/.libs/libcurl.a(libcurl_la-openssl.o) (ENGINE_finish)
/usr/local/lib/libcrypto.a(eng_ctrl.o)
                              ../lib/.libs/libcurl.a(libcurl_la-openssl.o) (ENGINE_ctrl)
/usr/local/lib/libcrypto.a(eng_pkey.o)
                              /usr/local/lib/libssl.a(ssl_sess.o) (ENGINE_get_ssl_client_cert_function)
/usr/local/lib/libcrypto.a(eng_fat.o)
                              ../lib/.libs/libcurl.a(libcurl_la-openssl.o) (ENGINE_set_default)
/usr/local/lib/libcrypto.a(tb_rsa.o)
                              /usr/local/lib/libcrypto.a(eng_fat.o) (ENGINE_register_RSA)
/usr/local/lib/libcrypto.a(tb_dsa.o)
                              /usr/local/lib/libcrypto.a(eng_fat.o) (ENGINE_register_DSA)
/usr/local/lib/libcrypto.a(tb_ecdsa.o)
                              /usr/local/lib/libcrypto.a(eng_fat.o) (ENGINE_register_ECDSA)
/usr/local/lib/libcrypto.a(tb_dh.o)
                              /usr/local/lib/libcrypto.a(eng_fat.o) (ENGINE_register_DH)
/usr/local/lib/libcrypto.a(tb_ecdh.o)
                              /usr/local/lib/libcrypto.a(eng_fat.o) (ENGINE_register_ECDH)
/usr/local/lib/libcrypto.a(tb_rand.o)
                              /usr/local/lib/libcrypto.a(eng_fat.o) (ENGINE_register_RAND)
/usr/local/lib/libcrypto.a(tb_cipher.o)
                              /usr/local/lib/libcrypto.a(eng_fat.o) (ENGINE_register_ciphers)
/usr/local/lib/libcrypto.a(tb_digest.o)
                              /usr/local/lib/libcrypto.a(eng_fat.o) (ENGINE_register_digests)
/usr/local/lib/libcrypto.a(buffer.o)
                              /usr/local/lib/libssl.a(s3_both.o) (BUF_MEM_grow_clean)
/usr/local/lib/libcrypto.a(buf_str.o)
                              /usr/local/lib/libssl.a(s3_lib.o) (BUF_strdup)
/usr/local/lib/libcrypto.a(bio_lib.o)
                              /usr/local/lib/libssl.a(ssl_lib.o) (BIO_pop)
/usr/local/lib/libcrypto.a(bss_mem.o)
                              ../lib/.libs/libcurl.a(libcurl_la-openssl.o) (BIO_s_mem)
/usr/local/lib/libcrypto.a(bss_file.o)
                              /usr/local/lib/libssl.a(ssl_cert.o) (BIO_s_file)
/usr/local/lib/libcrypto.a(bss_sock.o)
                              /usr/local/lib/libssl.a(ssl_lib.o) (BIO_s_socket)
/usr/local/lib/libcrypto.a(bss_conn.o)
                              /usr/local/lib/libssl.a(bio_ssl.o) (BIO_s_connect)
/usr/local/lib/libcrypto.a(bf_buff.o)
                              /usr/local/lib/libssl.a(ssl_lib.o) (BIO_f_buffer)
/usr/local/lib/libcrypto.a(b_print.o)
                              ../lib/.libs/libcurl.a(libcurl_la-openssl.o) (BIO_printf)
/usr/local/lib/libcrypto.a(b_sock.o)
                              /usr/local/lib/libcrypto.a(bss_conn.o) (BIO_get_host_ip)
/usr/local/lib/libcrypto.a(stack.o)
                              ../lib/.libs/libcurl.a(libcurl_la-openssl.o) (sk_num)
/usr/local/lib/libcrypto.a(lhash.o)
                              /usr/local/lib/libssl.a(ssl_lib.o) (lh_new)
/usr/local/lib/libcrypto.a(randfile.o)
                              ../lib/.libs/libcurl.a(libcurl_la-openssl.o) (RAND_load_file)
/usr/local/lib/libcrypto.a(rand_lib.o)
                              /usr/local/lib/libcrypto.a(eng_lib.o) (RAND_set_rand_method)
/usr/local/lib/libcrypto.a(err.o)
                              ../lib/.libs/libcurl.a(libcurl_la-openssl.o) (ERR_clear_error)
/usr/local/lib/libcrypto.a(err_def.o)
                              /usr/local/lib/libcrypto.a(err.o) (ERR_get_state)
/usr/local/lib/libcrypto.a(err_all.o)
                              /usr/local/lib/libssl.a(ssl_err2.o) (ERR_load_crypto_strings)
/usr/local/lib/libcrypto.a(err_prn.o)
                              ../lib/.libs/libcurl.a(libcurl_la-openssl.o) (ERR_error_string_n)
/usr/local/lib/libcrypto.a(err_str.o)
                              /usr/local/lib/libcrypto.a(err_all.o) (ERR_load_ERR_strings)
/usr/local/lib/libcrypto.a(digest.o)
                              /usr/local/lib/libssl.a(s3_clnt.o) (EVP_DigestInit_ex)
/usr/local/lib/libcrypto.a(evp_enc.o)
                              /usr/local/lib/libssl.a(s2_enc.o) (EVP_EncryptInit_ex)
/usr/local/lib/libcrypto.a(e_des.o)
                              /usr/local/lib/libssl.a(ssl_algs.o) (EVP_des_cbc)
/usr/local/lib/libcrypto.a(e_idea.o)
                              /usr/local/lib/libssl.a(ssl_algs.o) (EVP_idea_cbc)
/usr/local/lib/libcrypto.a(e_des3.o)
                              /usr/local/lib/libssl.a(ssl_algs.o) (EVP_des_ede3_cbc)
/usr/local/lib/libcrypto.a(e_rc4.o)
                              /usr/local/lib/libssl.a(ssl_algs.o) (EVP_rc4)
/usr/local/lib/libcrypto.a(e_aes.o)
                              /usr/local/lib/libssl.a(t1_lib.o) (EVP_aes_128_cbc)
/usr/local/lib/libcrypto.a(names.o)
                              /usr/local/lib/libssl.a(ssl_algs.o) (EVP_add_cipher)
/usr/local/lib/libcrypto.a(e_rc2.o)
                              /usr/local/lib/libssl.a(ssl_algs.o) (EVP_rc2_cbc)
/usr/local/lib/libcrypto.a(enc_min.o)
                              /usr/local/lib/libssl.a(s3_enc.o) (EVP_CipherInit_ex)
/usr/local/lib/libcrypto.a(m_md2.o)
                              /usr/local/lib/libssl.a(ssl_algs.o) (EVP_md2)
/usr/local/lib/libcrypto.a(m_md5.o)
                              /usr/local/lib/libssl.a(s3_enc.o) (EVP_md5)
/usr/local/lib/libcrypto.a(m_sha1.o)
                              /usr/local/lib/libssl.a(s3_enc.o) (EVP_sha1)
/usr/local/lib/libcrypto.a(m_dss1.o)
                              /usr/local/lib/libssl.a(s3_clnt.o) (EVP_dss1)
/usr/local/lib/libcrypto.a(m_ecdsa.o)
                              /usr/local/lib/libssl.a(s3_clnt.o) (EVP_ecdsa)
/usr/local/lib/libcrypto.a(p_sign.o)
                              /usr/local/lib/libssl.a(s2_clnt.o) (EVP_SignFinal)
/usr/local/lib/libcrypto.a(p_verify.o)
                              /usr/local/lib/libssl.a(s3_clnt.o) (EVP_VerifyFinal)
/usr/local/lib/libcrypto.a(p_lib.o)
                              ../lib/.libs/libcurl.a(libcurl_la-openssl.o) (EVP_PKEY_copy_parameters)
/usr/local/lib/libcrypto.a(evp_err.o)
                              /usr/local/lib/libcrypto.a(err_all.o) (ERR_load_EVP_strings)
/usr/local/lib/libcrypto.a(e_null.o)
                              /usr/local/lib/libssl.a(ssl_ciph.o) (EVP_enc_null)
/usr/local/lib/libcrypto.a(c_all.o)
                              ../lib/.libs/libcurl.a(libcurl_la-openssl.o) (OPENSSL_add_all_algorithms_noconf)
/usr/local/lib/libcrypto.a(c_allc.o)
                              /usr/local/lib/libcrypto.a(c_all.o) (OpenSSL_add_all_ciphers)
/usr/local/lib/libcrypto.a(c_alld.o)
                              /usr/local/lib/libcrypto.a(c_all.o) (OpenSSL_add_all_digests)
/usr/local/lib/libcrypto.a(evp_lib.o)
                              /usr/local/lib/libssl.a(s3_enc.o) (EVP_MD_size)
/usr/local/lib/libcrypto.a(evp_pbe.o)
                              /usr/local/lib/libcrypto.a(names.o) (EVP_PBE_cleanup)
/usr/local/lib/libcrypto.a(p5_crpt.o)
                              /usr/local/lib/libcrypto.a(c_allc.o) (PKCS5_PBE_add)
/usr/local/lib/libcrypto.a(p5_crpt2.o)
                              /usr/local/lib/libcrypto.a(p5_crpt.o) (PKCS5_v2_PBE_keyivgen)
/usr/local/lib/libcrypto.a(a_object.o)
                              /usr/local/lib/libcrypto.a(obj_dat.o) (a2d_ASN1_OBJECT)
/usr/local/lib/libcrypto.a(a_int.o)
                              /usr/local/lib/libssl.a(ssl_asn1.o) (ASN1_INTEGER_set)
/usr/local/lib/libcrypto.a(a_type.o)
                              /usr/local/lib/libcrypto.a(rsa_sign.o) (ASN1_TYPE_get)
/usr/local/lib/libcrypto.a(a_dup.o)
                              /usr/local/lib/libssl.a(s3_clnt.o) (ASN1_dup)
/usr/local/lib/libcrypto.a(a_strex.o)
                              ../lib/.libs/libcurl.a(libcurl_la-openssl.o) (ASN1_STRING_to_UTF8)
/usr/local/lib/libcrypto.a(x_pubkey.o)
                              ../lib/.libs/libcurl.a(libcurl_la-openssl.o) (i2d_X509_PUBKEY)
/usr/local/lib/libcrypto.a(x_sig.o)
                              /usr/local/lib/libcrypto.a(rsa_sign.o) (X509_SIG_free)
/usr/local/lib/libcrypto.a(x_attrib.o)
                              /usr/local/lib/libcrypto.a(p_lib.o) (X509_ATTRIBUTE_free)
/usr/local/lib/libcrypto.a(x_bignum.o)
                              /usr/local/lib/libcrypto.a(rsa_asn1.o) (BIGNUM_it)
/usr/local/lib/libcrypto.a(x_long.o)
                              /usr/local/lib/libcrypto.a(rsa_asn1.o) (LONG_it)
/usr/local/lib/libcrypto.a(x_name.o)
                              /usr/local/lib/libssl.a(ssl_lib.o) (X509_NAME_dup)
/usr/local/lib/libcrypto.a(x_x509.o)
                              /usr/local/lib/libssl.a(s3_both.o) (i2d_X509)
/usr/local/lib/libcrypto.a(x_x509a.o)
                              /usr/local/lib/libcrypto.a(x_x509.o) (X509_CERT_AUX_free)
/usr/local/lib/libcrypto.a(d2i_pu.o)
                              /usr/local/lib/libcrypto.a(x_pubkey.o) (d2i_PublicKey)
/usr/local/lib/libcrypto.a(d2i_pr.o)
                              /usr/local/lib/libssl.a(ssl_rsa.o) (d2i_PrivateKey)
/usr/local/lib/libcrypto.a(i2d_pu.o)
                              /usr/local/lib/libcrypto.a(x_pubkey.o) (i2d_PublicKey)
/usr/local/lib/libcrypto.a(t_x509.o)
                              ../lib/.libs/libcurl.a(libcurl_la-openssl.o) (ASN1_TIME_print)
/usr/local/lib/libcrypto.a(t_x509a.o)
                              /usr/local/lib/libcrypto.a(t_x509.o) (X509_CERT_AUX_print)
/usr/local/lib/libcrypto.a(t_pkey.o)
                              /usr/local/lib/libcrypto.a(t_x509.o) (RSA_print)
/usr/local/lib/libcrypto.a(tasn_new.o)
                              /usr/local/lib/libcrypto.a(x_pubkey.o) (ASN1_item_new)
/usr/local/lib/libcrypto.a(tasn_fre.o)
                              /usr/local/lib/libcrypto.a(a_type.o) (ASN1_primitive_free)
/usr/local/lib/libcrypto.a(tasn_enc.o)
                              /usr/local/lib/libcrypto.a(x_name.o) (ASN1_item_ex_i2d)
/usr/local/lib/libcrypto.a(tasn_dec.o)
                              /usr/local/lib/libcrypto.a(x_name.o) (ASN1_item_ex_d2i)
/usr/local/lib/libcrypto.a(tasn_utl.o)
                              /usr/local/lib/libcrypto.a(tasn_fre.o) (asn1_get_choice_selector)
/usr/local/lib/libcrypto.a(tasn_typ.o)
                              /usr/local/lib/libcrypto.a(x_x509.o) (ASN1_INTEGER_it)
/usr/local/lib/libcrypto.a(x_exten.o)
                              /usr/local/lib/libcrypto.a(x_x509.o) (X509_EXTENSION_it)
/usr/local/lib/libcrypto.a(asn1_par.o)
                              /usr/local/lib/libcrypto.a(a_strex.o) (ASN1_tag2str)
/usr/local/lib/libcrypto.a(asn1_lib.o)
                              /usr/local/lib/libssl.a(ssl_asn1.o) (ASN1_get_object)
/usr/local/lib/libcrypto.a(asn1_err.o)
                              /usr/local/lib/libcrypto.a(err_all.o) (ERR_load_ASN1_strings)
/usr/local/lib/libcrypto.a(evp_asn1.o)
                              /usr/local/lib/libcrypto.a(e_rc2.o) (ASN1_TYPE_get_int_octetstring)
/usr/local/lib/libcrypto.a(p5_pbe.o)
                              /usr/local/lib/libcrypto.a(p5_crpt.o) (PBEPARAM_free)
/usr/local/lib/libcrypto.a(p5_pbev2.o)
                              /usr/local/lib/libcrypto.a(p5_crpt2.o) (PBE2PARAM_free)
/usr/local/lib/libcrypto.a(pem_all.o)
                              /usr/local/lib/libssl.a(ssl_rsa.o) (PEM_read_bio_RSAPrivateKey)
/usr/local/lib/libcrypto.a(pem_err.o)
                              /usr/local/lib/libcrypto.a(err_all.o) (ERR_load_PEM_strings)
/usr/local/lib/libcrypto.a(pem_x509.o)
                              /usr/local/lib/libssl.a(ssl_cert.o) (PEM_read_bio_X509)
/usr/local/lib/libcrypto.a(pem_oth.o)
                              /usr/local/lib/libcrypto.a(pem_all.o) (PEM_ASN1_read_bio)
/usr/local/lib/libcrypto.a(pem_pkey.o)
                              /usr/local/lib/libssl.a(ssl_rsa.o) (PEM_read_bio_PrivateKey)
/usr/local/lib/libcrypto.a(x509_d2.o)
                              /usr/local/lib/libssl.a(ssl_lib.o) (X509_STORE_load_locations)
/usr/local/lib/libcrypto.a(x509_cmp.o)
                              /usr/local/lib/libssl.a(s3_clnt.o) (X509_NAME_cmp)
/usr/local/lib/libcrypto.a(x509_obj.o)
                              /usr/local/lib/libcrypto.a(x_x509.o) (X509_NAME_oneline)
/usr/local/lib/libcrypto.a(x509_vfy.o)
                              /usr/local/lib/libssl.a(ssl_cert.o) (X509_verify_cert)
/usr/local/lib/libcrypto.a(x509_err.o)
                              /usr/local/lib/libcrypto.a(err_all.o) (ERR_load_X509_strings)
/usr/local/lib/libcrypto.a(x509name.o)
                              /usr/local/lib/libcrypto.a(a_strex.o) (X509_NAME_entry_count)
/usr/local/lib/libcrypto.a(x509_v3.o)
                              ../lib/.libs/libcurl.a(libcurl_la-openssl.o) (X509_EXTENSION_get_object)
/usr/local/lib/libcrypto.a(x509_ext.o)
                              ../lib/.libs/libcurl.a(libcurl_la-openssl.o) (X509_get_ext_d2i)
/usr/local/lib/libcrypto.a(x509type.o)
                              /usr/local/lib/libssl.a(s3_clnt.o) (X509_certificate_type)
/usr/local/lib/libcrypto.a(x509_lu.o)
                              ../lib/.libs/libcurl.a(libcurl_la-openssl.o) (X509_STORE_add_lookup)
/usr/local/lib/libcrypto.a(x_all.o)
                              /usr/local/lib/libcrypto.a(x509_vfy.o) (X509_verify)
/usr/local/lib/libcrypto.a(x509_txt.o)
                              ../lib/.libs/libcurl.a(libcurl_la-openssl.o) (X509_verify_cert_error_string)
/usr/local/lib/libcrypto.a(x509_trs.o)
                              /usr/local/lib/libcrypto.a(x509_vfy.o) (X509_check_trust)
/usr/local/lib/libcrypto.a(by_file.o)
                              ../lib/.libs/libcurl.a(libcurl_la-openssl.o) (X509_load_crl_file)
/usr/local/lib/libcrypto.a(by_dir.o)
                              /usr/local/lib/libcrypto.a(x509_d2.o) (X509_LOOKUP_hash_dir)
/usr/local/lib/libcrypto.a(x509_vpm.o)
                              /usr/local/lib/libssl.a(ssl_lib.o) (X509_VERIFY_PARAM_inherit)
/usr/local/lib/libcrypto.a(v3_lib.o)
                              /usr/local/lib/libcrypto.a(x509_ext.o) (X509V3_add1_i2d)
/usr/local/lib/libcrypto.a(v3_prn.o)
                              ../lib/.libs/libcurl.a(libcurl_la-openssl.o) (X509V3_EXT_print)
/usr/local/lib/libcrypto.a(v3_utl.o)
                              /usr/local/lib/libcrypto.a(v3_prn.o) (X509V3_conf_free)
/usr/local/lib/libcrypto.a(v3err.o)
                              /usr/local/lib/libcrypto.a(err_all.o) (ERR_load_X509V3_strings)
/usr/local/lib/libcrypto.a(v3_genn.o)
                              /usr/local/lib/libcrypto.a(v3_utl.o) (GENERAL_NAME_free)
/usr/local/lib/libcrypto.a(v3_alt.o)
                              /usr/local/lib/libcrypto.a(v3_lib.o) (v3_alt)
/usr/local/lib/libcrypto.a(v3_skey.o)
                              /usr/local/lib/libcrypto.a(v3_lib.o) (v3_skey_id)
/usr/local/lib/libcrypto.a(v3_akey.o)
                              /usr/local/lib/libcrypto.a(v3_lib.o) (v3_akey_id)
/usr/local/lib/libcrypto.a(v3_pku.o)
                              /usr/local/lib/libcrypto.a(v3_lib.o) (v3_pkey_usage_period)
/usr/local/lib/libcrypto.a(v3_int.o)
                              /usr/local/lib/libcrypto.a(v3_lib.o) (v3_crl_num)
/usr/local/lib/libcrypto.a(v3_enum.o)
                              /usr/local/lib/libcrypto.a(v3_lib.o) (v3_crl_reason)
/usr/local/lib/libcrypto.a(v3_sxnet.o)
                              /usr/local/lib/libcrypto.a(v3_lib.o) (v3_sxnet)
/usr/local/lib/libcrypto.a(v3_cpols.o)
                              /usr/local/lib/libcrypto.a(v3_lib.o) (v3_cpols)
/usr/local/lib/libcrypto.a(v3_crld.o)
                              /usr/local/lib/libcrypto.a(v3_lib.o) (v3_crld)
/usr/local/lib/libcrypto.a(v3_purp.o)
                              ../lib/.libs/libcurl.a(libcurl_la-openssl.o) (X509_check_issued)
/usr/local/lib/libcrypto.a(v3_info.o)
                              /usr/local/lib/libcrypto.a(v3_lib.o) (v3_info)
/usr/local/lib/libcrypto.a(v3_ocsp.o)
                              /usr/local/lib/libcrypto.a(v3_lib.o) (v3_ocsp_crlid)
/usr/local/lib/libcrypto.a(v3_akeya.o)
                              /usr/local/lib/libcrypto.a(v3_akey.o) (AUTHORITY_KEYID_it)
/usr/local/lib/libcrypto.a(v3_pmaps.o)
                              /usr/local/lib/libcrypto.a(v3_lib.o) (v3_policy_mappings)
/usr/local/lib/libcrypto.a(v3_pcons.o)
                              /usr/local/lib/libcrypto.a(v3_lib.o) (v3_policy_constraints)
/usr/local/lib/libcrypto.a(v3_ncons.o)
                              /usr/local/lib/libcrypto.a(v3_lib.o) (v3_name_constraints)
/usr/local/lib/libcrypto.a(v3_pcia.o)
                              /usr/local/lib/libcrypto.a(v3_purp.o) (PROXY_CERT_INFO_EXTENSION_free)
/usr/local/lib/libcrypto.a(v3_pci.o)
                              /usr/local/lib/libcrypto.a(v3_lib.o) (v3_pci)
/usr/local/lib/libcrypto.a(pcy_cache.o)
                              /usr/local/lib/libcrypto.a(x_x509.o) (policy_cache_free)
/usr/local/lib/libcrypto.a(pcy_data.o)
                              /usr/local/lib/libcrypto.a(pcy_cache.o) (policy_data_new)
/usr/local/lib/libcrypto.a(pcy_map.o)
                              /usr/local/lib/libcrypto.a(pcy_cache.o) (policy_cache_set_mapping)
/usr/local/lib/libcrypto.a(pcy_tree.o)
                              /usr/local/lib/libcrypto.a(x509_vfy.o) (X509_policy_tree_free)
/usr/local/lib/libcrypto.a(pcy_lib.o)
                              /usr/local/lib/libcrypto.a(pcy_tree.o) (X509_policy_tree_get0_user_policies)
/usr/local/lib/libcrypto.a(conf_err.o)
                              /usr/local/lib/libcrypto.a(err_all.o) (ERR_load_CONF_strings)
/usr/local/lib/libcrypto.a(conf_mod.o)
                              ../lib/.libs/libcurl.a(libcurl_la-openssl.o) (CONF_modules_load_file)
/usr/local/lib/libcrypto.a(conf_mall.o)
                              ../lib/.libs/libcurl.a(libcurl_la-openssl.o) (OPENSSL_load_builtin_modules)
/usr/local/lib/libcrypto.a(pk7_asn1.o)
                              /usr/local/lib/libcrypto.a(x_all.o) (PKCS7_it)
/usr/local/lib/libcrypto.a(pkcs7err.o)
                              /usr/local/lib/libcrypto.a(err_all.o) (ERR_load_PKCS7_strings)
/usr/local/lib/libcrypto.a(p12_asn.o)
                              ../lib/.libs/libcurl.a(libcurl_la-openssl.o) (PKCS12_free)
/usr/local/lib/libcrypto.a(p12_crpt.o)
                              ../lib/.libs/libcurl.a(libcurl_la-openssl.o) (PKCS12_PBE_add)
/usr/local/lib/libcrypto.a(p12_key.o)
                              /usr/local/lib/libcrypto.a(p12_crpt.o) (PKCS12_key_gen_asc)
/usr/local/lib/libcrypto.a(p12_kiss.o)
                              ../lib/.libs/libcurl.a(libcurl_la-openssl.o) (PKCS12_parse)
/usr/local/lib/libcrypto.a(p12_mutl.o)
                              /usr/local/lib/libcrypto.a(p12_kiss.o) (PKCS12_verify_mac)
/usr/local/lib/libcrypto.a(p12_utl.o)
                              /usr/local/lib/libcrypto.a(p12_kiss.o) (PKCS12_certbag2x509)
/usr/local/lib/libcrypto.a(pk12err.o)
                              /usr/local/lib/libcrypto.a(err_all.o) (ERR_load_PKCS12_strings)
/usr/local/lib/libcrypto.a(p12_p8d.o)
                              /usr/local/lib/libcrypto.a(pem_pkey.o) (PKCS8_decrypt)
/usr/local/lib/libcrypto.a(comp_lib.o)
                              /usr/local/lib/libssl.a(s3_enc.o) (COMP_CTX_new)
/usr/local/lib/libcrypto.a(c_zlib.o)
                              /usr/local/lib/libssl.a(ssl_ciph.o) (COMP_zlib)
/usr/local/lib/libcrypto.a(ocsp_asn.o)
                              /usr/local/lib/libcrypto.a(v3_ocsp.o) (OCSP_CRLID_it)
/usr/local/lib/libcrypto.a(ocsp_cl.o)
                              ../lib/.libs/libcurl.a(libcurl_la-openssl.o) (OCSP_check_validity)
/usr/local/lib/libcrypto.a(ocsp_srv.o)
                              ../lib/.libs/libcurl.a(libcurl_la-openssl.o) (OCSP_basic_add1_cert)
/usr/local/lib/libcrypto.a(ocsp_prn.o)
                              ../lib/.libs/libcurl.a(libcurl_la-openssl.o) (OCSP_response_status_str)
/usr/local/lib/libcrypto.a(ocsp_vfy.o)
                              ../lib/.libs/libcurl.a(libcurl_la-openssl.o) (OCSP_basic_verify)
/usr/local/lib/libcrypto.a(ocsp_err.o)
                              /usr/local/lib/libcrypto.a(err_all.o) (ERR_load_OCSP_strings)
/usr/local/lib/libcrypto.a(ui_err.o)
                              /usr/local/lib/libcrypto.a(err_all.o) (ERR_load_UI_strings)
/usr/local/lib/libcrypto.a(ui_lib.o)
                              ../lib/.libs/libcurl.a(libcurl_la-openssl.o) (UI_set_result)
/usr/local/lib/libcrypto.a(ui_openssl.o)
                              ../lib/.libs/libcurl.a(libcurl_la-openssl.o) (UI_OpenSSL)
/usr/local/lib/libcrypto.a(cpt_err.o)
                              /usr/local/lib/libcrypto.a(err_all.o) (ERR_load_CRYPTO_strings)
/usr/local/lib/libcrypto.a(uid.o)
                              /usr/local/lib/libcrypto.a(randfile.o) (OPENSSL_issetugid)
/usr/local/lib/libcrypto.a(obj_err.o)
                              /usr/local/lib/libcrypto.a(err_all.o) (ERR_load_OBJ_strings)
/usr/local/lib/libcrypto.a(md2_dgst.o)
                              /usr/local/lib/libcrypto.a(m_md2.o) (MD2_Init)
/usr/local/lib/libcrypto.a(sha1dgst.o)
                              /usr/local/lib/libcrypto.a(m_sha1.o) (SHA1_Update)
/usr/local/lib/libcrypto.a(sha512.o)
                              /usr/local/lib/libcrypto.a(m_sha1.o) (SHA512_Final)
/usr/local/lib/libcrypto.a(ecb3_enc.o)
                              /usr/local/lib/libcrypto.a(e_des3.o) (DES_ecb3_encrypt)
/usr/local/lib/libcrypto.a(cfb64enc.o)
                              /usr/local/lib/libcrypto.a(e_des.o) (DES_cfb64_encrypt)
/usr/local/lib/libcrypto.a(cfb64ede.o)
                              /usr/local/lib/libcrypto.a(e_des3.o) (DES_ede3_cfb64_encrypt)
/usr/local/lib/libcrypto.a(cfb_enc.o)
                              /usr/local/lib/libcrypto.a(e_des.o) (DES_cfb_encrypt)
/usr/local/lib/libcrypto.a(ofb64ede.o)
                              /usr/local/lib/libcrypto.a(e_des3.o) (DES_ede3_ofb64_encrypt)
/usr/local/lib/libcrypto.a(ofb64enc.o)
                              /usr/local/lib/libcrypto.a(e_des.o) (DES_ofb64_encrypt)
/usr/local/lib/libcrypto.a(aes_ecb.o)
                              /usr/local/lib/libcrypto.a(e_aes.o) (AES_ecb_encrypt)
/usr/local/lib/libcrypto.a(aes_cfb.o)
                              /usr/local/lib/libcrypto.a(e_aes.o) (AES_cfb1_encrypt)
/usr/local/lib/libcrypto.a(aes_ofb.o)
                              /usr/local/lib/libcrypto.a(e_aes.o) (AES_ofb128_encrypt)
/usr/local/lib/libcrypto.a(aes_core.o)
                              /usr/local/lib/libcrypto.a(e_aes.o) (AES_set_encrypt_key)
/usr/local/lib/libcrypto.a(aes_cbc.o)
                              /usr/local/lib/libcrypto.a(e_aes.o) (AES_cbc_encrypt)
/usr/local/lib/libcrypto.a(rc2_ecb.o)
                              /usr/local/lib/libcrypto.a(e_rc2.o) (RC2_ecb_encrypt)
/usr/local/lib/libcrypto.a(rc2_skey.o)
                              /usr/local/lib/libcrypto.a(e_rc2.o) (RC2_set_key)
/usr/local/lib/libcrypto.a(rc2_cbc.o)
                              /usr/local/lib/libcrypto.a(e_rc2.o) (RC2_cbc_encrypt)
/usr/local/lib/libcrypto.a(rc2cfb64.o)
                              /usr/local/lib/libcrypto.a(e_rc2.o) (RC2_cfb64_encrypt)
/usr/local/lib/libcrypto.a(rc2ofb64.o)
                              /usr/local/lib/libcrypto.a(e_rc2.o) (RC2_ofb64_encrypt)
/usr/local/lib/libcrypto.a(rc4_enc.o)
                              /usr/local/lib/libcrypto.a(e_rc4.o) (RC4)
/usr/local/lib/libcrypto.a(rc4_skey.o)
                              /usr/local/lib/libcrypto.a(e_rc4.o) (RC4_set_key)
/usr/local/lib/libcrypto.a(i_cbc.o)
                              /usr/local/lib/libcrypto.a(e_idea.o) (idea_cbc_encrypt)
/usr/local/lib/libcrypto.a(i_cfb64.o)
                              /usr/local/lib/libcrypto.a(e_idea.o) (idea_cfb64_encrypt)
/usr/local/lib/libcrypto.a(i_ofb64.o)
                              /usr/local/lib/libcrypto.a(e_idea.o) (idea_ofb64_encrypt)
/usr/local/lib/libcrypto.a(i_ecb.o)
                              /usr/local/lib/libcrypto.a(e_idea.o) (idea_ecb_encrypt)
/usr/local/lib/libcrypto.a(i_skey.o)
                              /usr/local/lib/libcrypto.a(e_idea.o) (idea_set_encrypt_key)
/usr/local/lib/libcrypto.a(bn_add.o)
                              /usr/local/lib/libcrypto.a(rsa_lib.o) (BN_sub)
/usr/local/lib/libcrypto.a(bn_exp.o)
                              /usr/local/lib/libcrypto.a(dh_key.o) (BN_mod_exp_mont)
/usr/local/lib/libcrypto.a(bn_mul.o)
                              /usr/local/lib/libcrypto.a(rsa_lib.o) (BN_mul)
/usr/local/lib/libcrypto.a(bn_mod.o)
                              /usr/local/lib/libcrypto.a(bn_exp.o) (BN_nnmod)
/usr/local/lib/libcrypto.a(bn_rand.o)
                              /usr/local/lib/libcrypto.a(dh_key.o) (BN_rand)
/usr/local/lib/libcrypto.a(bn_blind.o)
                              /usr/local/lib/libcrypto.a(rsa_lib.o) (BN_BLINDING_create_param)
/usr/local/lib/libcrypto.a(bn_gcd.o)
                              /usr/local/lib/libcrypto.a(rsa_lib.o) (BN_mod_inverse)
/usr/local/lib/libcrypto.a(bn_prime.o)
                              /usr/local/lib/libcrypto.a(dh_check.o) (BN_is_prime_ex)
/usr/local/lib/libcrypto.a(bn_err.o)
                              /usr/local/lib/libcrypto.a(err_all.o) (ERR_load_BN_strings)
/usr/local/lib/libcrypto.a(bn_sqr.o)
                              /usr/local/lib/libcrypto.a(bn_exp.o) (BN_sqr)
/usr/local/lib/libcrypto.a(bn_recp.o)
                              /usr/local/lib/libcrypto.a(bn_exp.o) (BN_RECP_CTX_init)
/usr/local/lib/libcrypto.a(bn_mont.o)
                              /usr/local/lib/libcrypto.a(bn_exp.o) (BN_from_montgomery)
/usr/local/lib/libcrypto.a(ec_cvt.o)
                              /usr/local/lib/libcrypto.a(ec_curve.o) (EC_GROUP_new_curve_GFp)
/usr/local/lib/libcrypto.a(ec_err.o)
                              /usr/local/lib/libcrypto.a(err_all.o) (ERR_load_EC_strings)
/usr/local/lib/libcrypto.a(ec_print.o)
                              /usr/local/lib/libcrypto.a(t_pkey.o) (EC_POINT_point2bn)
/usr/local/lib/libcrypto.a(ec_asn1.o)
                              /usr/local/lib/libcrypto.a(d2i_pr.o) (d2i_ECPrivateKey)
/usr/local/lib/libcrypto.a(ec2_smpl.o)
                              /usr/local/lib/libcrypto.a(ec_asn1.o) (ec_GF2m_simple_group_set_curve)
/usr/local/lib/libcrypto.a(ec2_mult.o)
                              /usr/local/lib/libcrypto.a(ec2_smpl.o) (ec_GF2m_simple_mul)
/usr/local/lib/libcrypto.a(rsa_eay.o)
                              /usr/local/lib/libcrypto.a(rsa_eng.o) (RSA_PKCS1_SSLeay)
/usr/local/lib/libcrypto.a(rsa_err.o)
                              /usr/local/lib/libcrypto.a(err_all.o) (ERR_load_RSA_strings)
/usr/local/lib/libcrypto.a(rsa_pk1.o)
                              /usr/local/lib/libcrypto.a(rsa_eay.o) (RSA_padding_add_PKCS1_type_1)
/usr/local/lib/libcrypto.a(rsa_ssl.o)
                              /usr/local/lib/libcrypto.a(rsa_eay.o) (RSA_padding_check_SSLv23)
/usr/local/lib/libcrypto.a(rsa_none.o)
                              /usr/local/lib/libcrypto.a(rsa_eay.o) (RSA_padding_add_none)
/usr/local/lib/libcrypto.a(rsa_oaep.o)
                              /usr/local/lib/libcrypto.a(rsa_eay.o) (RSA_padding_add_PKCS1_OAEP)
/usr/local/lib/libcrypto.a(rsa_x931.o)
                              /usr/local/lib/libcrypto.a(rsa_eay.o) (RSA_padding_add_X931)
/usr/local/lib/libcrypto.a(dsa_lib.o)
                              /usr/local/lib/libcrypto.a(dsa_asn1.o) (DSA_free)
/usr/local/lib/libcrypto.a(dsa_err.o)
                              /usr/local/lib/libcrypto.a(err_all.o) (ERR_load_DSA_strings)
/usr/local/lib/libcrypto.a(dsa_ossl.o)
                              /usr/local/lib/libcrypto.a(dsa_lib.o) (DSA_OpenSSL)
/usr/local/lib/libcrypto.a(ecs_lib.o)
                              /usr/local/lib/libcrypto.a(ecs_sign.o) (ecdsa_check)
/usr/local/lib/libcrypto.a(ecs_asn1.o)
                              /usr/local/lib/libcrypto.a(ecs_sign.o) (ECDSA_SIG_free)
/usr/local/lib/libcrypto.a(ecs_ossl.o)
                              /usr/local/lib/libcrypto.a(ecs_lib.o) (ECDSA_OpenSSL)
/usr/local/lib/libcrypto.a(ecs_vrf.o)
                              /usr/local/lib/libcrypto.a(m_ecdsa.o) (ECDSA_verify)
/usr/local/lib/libcrypto.a(ecs_err.o)
                              /usr/local/lib/libcrypto.a(err_all.o) (ERR_load_ECDSA_strings)
/usr/local/lib/libcrypto.a(dh_err.o)
                              /usr/local/lib/libcrypto.a(err_all.o) (ERR_load_DH_strings)
/usr/local/lib/libcrypto.a(ech_lib.o)
                              /usr/local/lib/libcrypto.a(ech_key.o) (ecdh_check)
/usr/local/lib/libcrypto.a(ech_ossl.o)
                              /usr/local/lib/libcrypto.a(ech_lib.o) (ECDH_OpenSSL)
/usr/local/lib/libcrypto.a(ech_err.o)
                              /usr/local/lib/libcrypto.a(err_all.o) (ERR_load_ECDH_strings)
/usr/local/lib/libcrypto.a(dso_err.o)
                              /usr/local/lib/libcrypto.a(err_all.o) (ERR_load_DSO_strings)
/usr/local/lib/libcrypto.a(dso_lib.o)
                              /usr/local/lib/libcrypto.a(conf_mod.o) (DSO_free)
/usr/local/lib/libcrypto.a(dso_openssl.o)
                              /usr/local/lib/libcrypto.a(dso_lib.o) (DSO_METHOD_openssl)
/usr/local/lib/libcrypto.a(eng_err.o)
                              /usr/local/lib/libcrypto.a(err_all.o) (ERR_load_ENGINE_strings)
/usr/local/lib/libcrypto.a(eng_table.o)
                              /usr/local/lib/libcrypto.a(tb_rsa.o) (engine_table_register)
/usr/local/lib/libcrypto.a(eng_cnf.o)
                              /usr/local/lib/libcrypto.a(conf_mall.o) (ENGINE_add_conf_module)
/usr/local/lib/libcrypto.a(buf_err.o)
                              /usr/local/lib/libcrypto.a(err_all.o) (ERR_load_BUF_strings)
/usr/local/lib/libcrypto.a(bio_err.o)
                              /usr/local/lib/libcrypto.a(err_all.o) (ERR_load_BIO_strings)
/usr/local/lib/libcrypto.a(b_dump.o)
                              /usr/local/lib/libcrypto.a(asn1_par.o) (BIO_dump_indent)
/usr/local/lib/libcrypto.a(md_rand.o)
                              /usr/local/lib/libcrypto.a(rand_lib.o) (RAND_SSLeay)
/usr/local/lib/libcrypto.a(rand_err.o)
                              /usr/local/lib/libcrypto.a(err_all.o) (ERR_load_RAND_strings)
/usr/local/lib/libcrypto.a(rand_unix.o)
                              /usr/local/lib/libcrypto.a(md_rand.o) (RAND_poll)
/usr/local/lib/libcrypto.a(err_bio.o)
                              /usr/local/lib/libcrypto.a(t_x509.o) (ERR_print_errors)
/usr/local/lib/libcrypto.a(evp_cnf.o)
                              /usr/local/lib/libcrypto.a(conf_mall.o) (EVP_add_alg_module)
/usr/local/lib/libcrypto.a(e_bf.o)
                              /usr/local/lib/libcrypto.a(c_allc.o) (EVP_bf_ecb)
/usr/local/lib/libcrypto.a(e_xcbc_d.o)
                              /usr/local/lib/libcrypto.a(c_allc.o) (EVP_desx_cbc)
/usr/local/lib/libcrypto.a(e_cast.o)
                              /usr/local/lib/libcrypto.a(c_allc.o) (EVP_cast5_ecb)
/usr/local/lib/libcrypto.a(m_md4.o)
                              /usr/local/lib/libcrypto.a(c_alld.o) (EVP_md4)
/usr/local/lib/libcrypto.a(m_sha.o)
                              /usr/local/lib/libcrypto.a(c_alld.o) (EVP_sha)
/usr/local/lib/libcrypto.a(m_dss.o)
                              /usr/local/lib/libcrypto.a(c_alld.o) (EVP_dss)
/usr/local/lib/libcrypto.a(m_ripemd.o)
                              /usr/local/lib/libcrypto.a(c_alld.o) (EVP_ripemd160)
/usr/local/lib/libcrypto.a(evp_pkey.o)
                              /usr/local/lib/libcrypto.a(pem_pkey.o) (EVP_PKCS82PKEY)
/usr/local/lib/libcrypto.a(a_bitstr.o)
                              /usr/local/lib/libcrypto.a(tasn_enc.o) (i2c_ASN1_BIT_STRING)
/usr/local/lib/libcrypto.a(a_utctm.o)
                              /usr/local/lib/libcrypto.a(x509_vfy.o) (ASN1_UTCTIME_set)
/usr/local/lib/libcrypto.a(a_gentm.o)
                              /usr/local/lib/libcrypto.a(ocsp_cl.o) (ASN1_GENERALIZEDTIME_check)
/usr/local/lib/libcrypto.a(a_time.o)
                              /usr/local/lib/libcrypto.a(ocsp_srv.o) (ASN1_TIME_to_generalizedtime)
/usr/local/lib/libcrypto.a(a_octet.o)
                              /usr/local/lib/libcrypto.a(v3_purp.o) (ASN1_OCTET_STRING_cmp)
/usr/local/lib/libcrypto.a(a_print.o)
                              /usr/local/lib/libcrypto.a(x509name.o) (ASN1_PRINTABLE_type)
/usr/local/lib/libcrypto.a(a_set.o)
                              /usr/local/lib/libcrypto.a(d2i_pr.o) (d2i_ASN1_SET)
/usr/local/lib/libcrypto.a(a_d2i_fp.o)
                              /usr/local/lib/libcrypto.a(x_all.o) (ASN1_d2i_fp)
/usr/local/lib/libcrypto.a(a_i2d_fp.o)
                              /usr/local/lib/libcrypto.a(x_all.o) (ASN1_i2d_fp)
/usr/local/lib/libcrypto.a(a_enum.o)
                              /usr/local/lib/libcrypto.a(ocsp_srv.o) (ASN1_ENUMERATED_set)
/usr/local/lib/libcrypto.a(a_utf8.o)
                              /usr/local/lib/libcrypto.a(a_strex.o) (UTF8_getc)
/usr/local/lib/libcrypto.a(a_sign.o)
                              /usr/local/lib/libcrypto.a(x_all.o) (ASN1_item_sign)
/usr/local/lib/libcrypto.a(a_digest.o)
                              /usr/local/lib/libcrypto.a(x_all.o) (ASN1_item_digest)
/usr/local/lib/libcrypto.a(a_verify.o)
                              /usr/local/lib/libcrypto.a(x_all.o) (ASN1_item_verify)
/usr/local/lib/libcrypto.a(a_mbstr.o)
                              /usr/local/lib/libcrypto.a(a_strex.o) (ASN1_mbstring_copy)
/usr/local/lib/libcrypto.a(x_algor.o)
                              /usr/local/lib/libcrypto.a(x_pubkey.o) (X509_ALGOR_it)
/usr/local/lib/libcrypto.a(x_val.o)
                              /usr/local/lib/libcrypto.a(x_x509.o) (X509_VAL_it)
/usr/local/lib/libcrypto.a(x_req.o)
                              /usr/local/lib/libcrypto.a(x_all.o) (X509_REQ_INFO_it)
/usr/local/lib/libcrypto.a(x_crl.o)
                              /usr/local/lib/libcrypto.a(x_all.o) (X509_CRL_INFO_it)
/usr/local/lib/libcrypto.a(x_info.o)
                              /usr/local/lib/libcrypto.a(by_file.o) (X509_INFO_free)
/usr/local/lib/libcrypto.a(x_spki.o)
                              /usr/local/lib/libcrypto.a(x_all.o) (NETSCAPE_SPKAC_it)
/usr/local/lib/libcrypto.a(nsseq.o)
                              /usr/local/lib/libcrypto.a(pem_all.o) (d2i_NETSCAPE_CERT_SEQUENCE)
/usr/local/lib/libcrypto.a(i2d_pr.o)
                              /usr/local/lib/libcrypto.a(pem_all.o) (i2d_PrivateKey)
/usr/local/lib/libcrypto.a(f_int.o)
                              /usr/local/lib/libcrypto.a(v3_ocsp.o) (i2a_ASN1_INTEGER)
/usr/local/lib/libcrypto.a(f_string.o)
                              /usr/local/lib/libcrypto.a(v3_ocsp.o) (i2a_ASN1_STRING)
/usr/local/lib/libcrypto.a(x_pkey.o)
                              /usr/local/lib/libcrypto.a(x_info.o) (X509_PKEY_free)
/usr/local/lib/libcrypto.a(a_bool.o)
                              /usr/local/lib/libcrypto.a(asn1_par.o) (d2i_ASN1_BOOLEAN)
/usr/local/lib/libcrypto.a(asn1_gen.o)
                              /usr/local/lib/libcrypto.a(v3_alt.o) (ASN1_generate_v3)
/usr/local/lib/libcrypto.a(a_bytes.o)
                              /usr/local/lib/libcrypto.a(evp_asn1.o) (i2d_ASN1_bytes)
/usr/local/lib/libcrypto.a(a_strnid.o)
                              /usr/local/lib/libcrypto.a(x509name.o) (ASN1_STRING_set_by_NID)
/usr/local/lib/libcrypto.a(asn_pack.o)
                              /usr/local/lib/libcrypto.a(evp_pkey.o) (ASN1_seq_unpack)
/usr/local/lib/libcrypto.a(p8_pkey.o)
                              /usr/local/lib/libcrypto.a(p12_asn.o) (PKCS8_PRIV_KEY_INFO_it)
/usr/local/lib/libcrypto.a(asn_moid.o)
                              /usr/local/lib/libcrypto.a(conf_mall.o) (ASN1_add_oid_module)
/usr/local/lib/libcrypto.a(pem_info.o)
                              /usr/local/lib/libcrypto.a(by_file.o) (PEM_X509_INFO_read_bio)
/usr/local/lib/libcrypto.a(pem_lib.o)
                              /usr/local/lib/libcrypto.a(pem_all.o) (PEM_ASN1_write_bio)
/usr/local/lib/libcrypto.a(pem_xaux.o)
                              /usr/local/lib/libcrypto.a(by_file.o) (PEM_read_bio_X509_AUX)
/usr/local/lib/libcrypto.a(x509_def.o)
                              /usr/local/lib/libcrypto.a(conf_mod.o) (X509_get_default_cert_area)
/usr/local/lib/libcrypto.a(x509_req.o)
                              /usr/local/lib/libcrypto.a(v3_utl.o) (X509_REQ_get_extensions)
/usr/local/lib/libcrypto.a(x509rset.o)
                              /usr/local/lib/libcrypto.a(x509_req.o) (X509_REQ_set_subject_name)
/usr/local/lib/libcrypto.a(x509_att.o)
                              /usr/local/lib/libcrypto.a(evp_pkey.o) (X509at_get_attr_count)
/usr/local/lib/libcrypto.a(v3_bcons.o)
                              /usr/local/lib/libcrypto.a(v3_lib.o) (v3_bcons)
/usr/local/lib/libcrypto.a(v3_bitst.o)
                              /usr/local/lib/libcrypto.a(v3_lib.o) (v3_nscert)
/usr/local/lib/libcrypto.a(v3_conf.o)
                              /usr/local/lib/libcrypto.a(v3_lib.o) (X509V3_EXT_i2d)
/usr/local/lib/libcrypto.a(v3_extku.o)
                              /usr/local/lib/libcrypto.a(v3_lib.o) (v3_ext_ku)
/usr/local/lib/libcrypto.a(v3_ia5.o)
                              /usr/local/lib/libcrypto.a(v3_lib.o) (v3_ns_ia5_list)
/usr/local/lib/libcrypto.a(pcy_node.o)
                              /usr/local/lib/libcrypto.a(pcy_tree.o) (policy_node_cmp_new)
/usr/local/lib/libcrypto.a(conf_lib.o)
                              /usr/local/lib/libcrypto.a(v3_conf.o) (CONF_set_nconf)
/usr/local/lib/libcrypto.a(conf_api.o)
                              /usr/local/lib/libcrypto.a(conf_lib.o) (_CONF_get_section_values)
/usr/local/lib/libcrypto.a(conf_def.o)
                              /usr/local/lib/libcrypto.a(conf_lib.o) (NCONF_default)
/usr/local/lib/libcrypto.a(p12_add.o)
                              /usr/local/lib/libcrypto.a(p12_utl.o) (PKCS12_item_pack_safebag)
/usr/local/lib/libcrypto.a(p12_attr.o)
                              /usr/local/lib/libcrypto.a(p12_kiss.o) (PKCS12_get_attr_gen)
/usr/local/lib/libcrypto.a(p12_decr.o)
                              /usr/local/lib/libcrypto.a(p12_p8d.o) (PKCS12_item_decrypt_d2i)
/usr/local/lib/libcrypto.a(p12_p8e.o)
                              /usr/local/lib/libcrypto.a(p12_add.o) (PKCS8_encrypt)
/usr/local/lib/libcrypto.a(ocsp_lib.o)
                              /usr/local/lib/libcrypto.a(ocsp_vfy.o) (OCSP_id_issuer_cmp)
/usr/local/lib/libcrypto.a(o_time.o)
                              /usr/local/lib/libcrypto.a(a_utctm.o) (OPENSSL_gmtime)
/usr/local/lib/libcrypto.a(sha_dgst.o)
                              /usr/local/lib/libcrypto.a(m_sha.o) (SHA_Update)
/usr/local/lib/libcrypto.a(rmd_dgst.o)
                              /usr/local/lib/libcrypto.a(m_ripemd.o) (RIPEMD160_Update)
/usr/local/lib/libcrypto.a(xcbc_enc.o)
                              /usr/local/lib/libcrypto.a(e_xcbc_d.o) (DES_xcbc_encrypt)
/usr/local/lib/libcrypto.a(bf_skey.o)
                              /usr/local/lib/libcrypto.a(e_bf.o) (BF_set_key)
/usr/local/lib/libcrypto.a(bf_ecb.o)
                              /usr/local/lib/libcrypto.a(e_bf.o) (BF_ecb_encrypt)
/usr/local/lib/libcrypto.a(bf_enc.o)
                              /usr/local/lib/libcrypto.a(bf_skey.o) (BF_encrypt)
/usr/local/lib/libcrypto.a(bf_cfb64.o)
                              /usr/local/lib/libcrypto.a(e_bf.o) (BF_cfb64_encrypt)
/usr/local/lib/libcrypto.a(bf_ofb64.o)
                              /usr/local/lib/libcrypto.a(e_bf.o) (BF_ofb64_encrypt)
/usr/local/lib/libcrypto.a(c_skey.o)
                              /usr/local/lib/libcrypto.a(e_cast.o) (CAST_set_key)
/usr/local/lib/libcrypto.a(c_ecb.o)
                              /usr/local/lib/libcrypto.a(e_cast.o) (CAST_ecb_encrypt)
/usr/local/lib/libcrypto.a(c_enc.o)
                              /usr/local/lib/libcrypto.a(c_ecb.o) (CAST_encrypt)
/usr/local/lib/libcrypto.a(c_cfb64.o)
                              /usr/local/lib/libcrypto.a(e_cast.o) (CAST_cfb64_encrypt)
/usr/local/lib/libcrypto.a(c_ofb64.o)
                              /usr/local/lib/libcrypto.a(e_cast.o) (CAST_ofb64_encrypt)
/usr/local/lib/libcrypto.a(bn_div.o)
                              /usr/local/lib/libcrypto.a(bn_exp.o) (BN_div)
/usr/local/lib/libcrypto.a(bn_exp2.o)
                              /usr/local/lib/libcrypto.a(dsa_ossl.o) (BN_mod_exp2_mont)
/usr/local/lib/libcrypto.a(bn_gf2m.o)
                              /usr/local/lib/libcrypto.a(ec2_smpl.o) (BN_GF2m_add)
/usr/local/lib/libcrypto.a(ecp_mont.o)
                              /usr/local/lib/libcrypto.a(ec_cvt.o) (EC_GFp_mont_method)
/usr/local/lib/libcrypto.a(ecp_nist.o)
                              /usr/local/lib/libcrypto.a(ec_cvt.o) (EC_GFp_nist_method)
/usr/local/lib/libcrypto.a(dso_null.o)
                              /usr/local/lib/libcrypto.a(dso_openssl.o) (DSO_METHOD_null)
/usr/local/lib/libcrypto.a(encode.o)
                              /usr/local/lib/libcrypto.a(pem_lib.o) (EVP_EncodeUpdate)
/usr/local/lib/libcrypto.a(evp_key.o)
                              /usr/local/lib/libcrypto.a(pem_lib.o) (EVP_BytesToKey)
/usr/local/lib/libcrypto.a(pk7_lib.o)
                              /usr/local/lib/libcrypto.a(p12_add.o) (PKCS7_set_type)
/usr/local/lib/libcrypto.a(bn_nist.o)
                              /usr/local/lib/libcrypto.a(ecp_nist.o) (BN_nist_mod_192)
/usr/local/lib/libcrypto.a(ecp_smpl.o)
                              /usr/local/lib/libcrypto.a(ecp_mont.o) (ec_GFp_simple_group_init)
/usr/local/lib/libcrypto.a(bn_kron.o)
                              /usr/local/lib/libcrypto.a(ecp_smpl.o) (BN_kronecker)
/usr/local/lib/libcrypto.a(bn_sqrt.o)
                              /usr/local/lib/libcrypto.a(ecp_smpl.o) (BN_mod_sqrt)
/usr/local/lib/libz.a(deflate.o)
                              /usr/local/lib/libcrypto.a(c_zlib.o) (deflateEnd)
/usr/local/lib/libz.a(trees.o)
                              /usr/local/lib/libz.a(deflate.o) (_dist_code)
/usr/local/lib/libz.a(zutil.o)
                              /usr/local/lib/libz.a(deflate.o) (z_errmsg)
/usr/local/lib/libz.a(inflate.o)
                              tool_hugehelp.o (inflateInit2_)
/usr/local/lib/libz.a(inftrees.o)
                              /usr/local/lib/libz.a(inflate.o) (inflate_table)
/usr/local/lib/libz.a(inffast.o)
                              /usr/local/lib/libz.a(inflate.o) (inflate_fast)
/usr/local/lib/libz.a(adler32.o)
                              /usr/local/lib/libz.a(deflate.o) (adler32)
/usr/local/lib/libz.a(compress.o)
                              /usr/local/lib/libz.a(deflate.o) (compressBound)
/usr/local/lib/libz.a(crc32.o)
                              /usr/local/lib/libz.a(deflate.o) (crc32)
/usr/local/lib/libgen.a(basename.o)
                              ../lib/.libs/libcurl.a(libcurl_la-formdata.o) (basename)
/gg/lib/gcc-lib/ppc-morphos/2.95.3/libnix/libgcc.a(_divdi3.o)
                              ../lib/.libs/libcurl.a(libcurl_la-progress.o) (__divdi3)
/gg/lib/gcc-lib/ppc-morphos/2.95.3/libnix/libgcc.a(_eprintf.o)
                              /usr/local/lib/libcrypto.a(md_rand.o) (__eprintf)
/gg/lib/gcc-lib/ppc-morphos/2.95.3/libnix/libgcc.a(_fixdfdi.o)
                              ../lib/.libs/libcurl.a(libcurl_la-progress.o) (__fixdfdi)
/gg/lib/gcc-lib/ppc-morphos/2.95.3/libnix/libgcc.a(_fixunsdfdi.o)
                              /gg/lib/gcc-lib/ppc-morphos/2.95.3/libnix/libgcc.a(_fixdfdi.o) (__fixunsdfdi)
/gg/lib/gcc-lib/ppc-morphos/2.95.3/libnix/libgcc.a(_floatdidf.o)
                              tool_cb_prg.o (__floatdidf)
/gg/lib/gcc-lib/ppc-morphos/2.95.3/libnix/libgcc.a(_udivdi3.o)
                              ../lib/.libs/libcurl.a(libcurl_la-mprintf.o) (__udivdi3)
/gg/lib/gcc-lib/ppc-morphos/2.95.3/libnix/libgcc.a(_umoddi3.o)
                              ../lib/.libs/libcurl.a(libcurl_la-mprintf.o) (__umoddi3)
/gg/lib/gcc-lib/ppc-morphos/2.95.3/libnix/libgcc.a(_cmpdi2.o)
                              /gg/lib/gcc-lib/ppc-morphos/2.95.3/libnix/libgcc.a(_fixunsdfdi.o) (__cmpdi2)
/gg/ppc-morphos/lib/libnix/libc.a(__nocommandline.o)
                              /gg/ppc-morphos/lib/libnix/crt0.o (__nocommandline)
/gg/ppc-morphos/lib/libnix/libc.a(printf.o)
                              tool_help.o (printf)
/gg/ppc-morphos/lib/libnix/libc.a(vfprintf.o)
                              /usr/local/lib/libcrypto.a(cryptlib.o) (vfprintf)
/gg/ppc-morphos/lib/libnix/libc.a(vprintf.o)
                              /gg/ppc-morphos/lib/libnix/libc.a(printf.o) (vprintf)
/gg/ppc-morphos/lib/libnix/libc.a(__stdio.o)
                              tool_cb_dbg.o (__sF)
/gg/ppc-morphos/lib/libnix/libc.a(fopen.o)
                              tool_cb_dbg.o (fopen)
/gg/ppc-morphos/lib/libnix/libc.a(calloc.o)
                              tool_hugehelp.o (calloc)
/gg/ppc-morphos/lib/libnix/libc.a(malloc.o)
                              slist_wc.o (malloc)
/gg/ppc-morphos/lib/libnix/libc.a(_MSTEP.o)
                              /gg/ppc-morphos/lib/libnix/libc.a(malloc.o) (_MSTEP)
/gg/ppc-morphos/lib/libnix/libc.a(freopen.o)
                              /gg/ppc-morphos/lib/libnix/libc.a(fopen.o) (freopen)
/gg/ppc-morphos/lib/libnix/libc.a(free.o)
                              slist_wc.o (free)
/gg/ppc-morphos/lib/libnix/libc.a(errno.o)
                              tool_cb_rea.o (errno)
/gg/ppc-morphos/lib/libnix/libc.a(__fflush.o)
                              /gg/ppc-morphos/lib/libnix/libc.a(freopen.o) (__fflush)
/gg/ppc-morphos/lib/libnix/libc.a(open.o)
                              tool_getpass.o (open)
/gg/ppc-morphos/lib/libnix/libc.a(__isatty.o)
                              tool_operate.o (isatty)
/gg/ppc-morphos/lib/libnix/libc.a(__seterrno.o)
                              /gg/ppc-morphos/lib/libnix/libc.a(freopen.o) (_OSERR)
/gg/ppc-morphos/lib/libnix/libc.a(_ctype_.o)
                              tool_cb_hdr.o (_ctype_)
/gg/ppc-morphos/lib/libnix/libc.a(fputc.o)
                              tool_cb_dbg.o (fputc)
/gg/ppc-morphos/lib/libnix/libc.a(__swbuf.o)
                              /gg/ppc-morphos/lib/libnix/libc.a(fputc.o) (__swbuf)
/gg/ppc-morphos/lib/libnix/libc.a(realloc.o)
                              tool_paramhlp.o (realloc)
/gg/ppc-morphos/lib/libnix/libc.a(signal.o)
                              tool_main.o (signal)
/gg/ppc-morphos/lib/libnix/libc.a(__signalfunc.o)
                              /gg/ppc-morphos/lib/libnix/libc.a(signal.o) (__signalfunc)
/gg/ppc-morphos/lib/libnix/libc.a(memset.o)
                              tool_cb_prg.o (memset)
/gg/ppc-morphos/lib/libnix/libc.a(time.o)
                              tool_cb_dbg.o (time)
/gg/ppc-morphos/lib/libnix/libc.a(fread.o)
                              tool_paramhlp.o (fread)
/gg/ppc-morphos/lib/libnix/libc.a(strerror.o)
                              tool_cb_wrt.o (strerror)
/gg/ppc-morphos/lib/libnix/libc.a(ftell.o)
                              ../lib/.libs/libcurl.a(libcurl_la-vtls.o) (ftell)
/gg/ppc-morphos/lib/libnix/libc.a(fseek.o)
                              tool_operate.o (fseek)
/gg/ppc-morphos/lib/libnix/libc.a(fwrite.o)
                              tool_cb_dbg.o (fwrite)
/gg/ppc-morphos/lib/libnix/libc.a(__gmtoffset.o)
                              /gg/ppc-morphos/lib/libnix/libc.a(time.o) (__gmtoffset)
/gg/ppc-morphos/lib/libnix/libc.a(strtod.o)
                              tool_paramhlp.o (strtod)
/gg/ppc-morphos/lib/libnix/libc.a(abort.o)
                              ../lib/.libs/libcurl.a(libcurl_la-rand.o) (abort)
/gg/ppc-morphos/lib/libnix/libc.a(atoi.o)
                              ../lib/.libs/libcurl.a(libcurl_la-telnet.o) (atoi)
/gg/ppc-morphos/lib/libnix/libc.a(qsort.o)
                              /gg/ppc-morphos/lib/libnix/crt0.o (qsort)
/gg/ppc-morphos/lib/libnix/libc.a(strtol.o)
                              tool_cb_prg.o (strtol)
/gg/ppc-morphos/lib/libnix/libc.a(strtoul.o)
                              tool_urlglob.o (strtoul)
/gg/ppc-morphos/lib/libnix/libc.a(getenv.o)
                              tool_homedir.o (getenv)
/gg/ppc-morphos/lib/libnix/libc.a(localtime.o)
                              tool_cb_dbg.o (localtime)
/gg/ppc-morphos/lib/libnix/libc.a(gmtime.o)
                              /gg/ppc-morphos/lib/libnix/libc.a(localtime.o) (gmtime_r)
/gg/ppc-morphos/lib/libnix/libc.a(fflush.o)
                              tool_cb_dbg.o (fflush)
/gg/ppc-morphos/lib/libnix/libc.a(fgets.o)
                              tool_paramhlp.o (fgets)
/gg/ppc-morphos/lib/libnix/libc.a(fprintf.o)
                              /usr/local/lib/libcrypto.a(rsa_sign.o) (fprintf)
/gg/ppc-morphos/lib/libnix/libc.a(fputs.o)
                              tool_cb_dbg.o (fputs)
/gg/ppc-morphos/lib/libnix/libc.a(memchr.o)
                              ../lib/.libs/libcurl.a(libcurl_la-sendf.o) (memchr)
/gg/ppc-morphos/lib/libnix/libc.a(memcmp.o)
                              tool_cb_hdr.o (memcmp)
/gg/ppc-morphos/lib/libnix/libc.a(memmove.o)
                              tool_cb_hdr.o (memmove)
/gg/ppc-morphos/lib/libnix/libc.a(bcopy.o)
                              /gg/ppc-morphos/lib/libnix/libc.a(memmove.o) (bcopy)
/gg/ppc-morphos/lib/libnix/libc.a(puts.o)
                              tool_help.o (puts)
/gg/ppc-morphos/lib/libnix/libc.a(setvbuf.o)
                              /usr/local/lib/libcrypto.a(randfile.o) (setvbuf)
/gg/ppc-morphos/lib/libnix/libc.a(sprintf.o)
                              ../lib/.libs/libcurl.a(libcurl_la-mprintf.o) (sprintf)
/gg/ppc-morphos/lib/libnix/libc.a(sscanf.o)
                              tool_formparse.o (sscanf)
/gg/ppc-morphos/lib/libnix/libc.a(strcat.o)
                              /usr/local/lib/libcrypto.a(v3_alt.o) (strcat)
/gg/ppc-morphos/lib/libnix/libc.a(strchr.o)
                              tool_cb_hdr.o (strchr)
/gg/ppc-morphos/lib/libnix/libc.a(strcmp.o)
                              tool_cb_dbg.o (strcmp)
/gg/ppc-morphos/lib/libnix/libc.a(strcpy.o)
                              tool_dirhie.o (strcpy)
/gg/ppc-morphos/lib/libnix/libc.a(strcspn.o)
                              tool_getparam.o (strcspn)
/gg/ppc-morphos/lib/libnix/libc.a(strlen.o)
                              tool_cb_hdr.o (strlen)
/gg/ppc-morphos/lib/libnix/libc.a(strncmp.o)
                              tool_getparam.o (strncmp)
/gg/ppc-morphos/lib/libnix/libc.a(strncpy.o)
                              tool_getparam.o (strncpy)
/gg/ppc-morphos/lib/libnix/libc.a(strpbrk.o)
                              tool_getparam.o (strpbrk)
/gg/ppc-morphos/lib/libnix/libc.a(strrchr.o)
                              tool_bname.o (strrchr)
/gg/ppc-morphos/lib/libnix/libc.a(strstr.o)
                              tool_formparse.o (strstr)
/gg/ppc-morphos/lib/libnix/libc.a(strtok.o)
                              ../lib/.libs/libcurl.a(libcurl_la-cookie.o) (strtok_r)
/gg/ppc-morphos/lib/libnix/libc.a(memcpy.o)
                              tool_cb_hdr.o (memcpy)
/gg/ppc-morphos/lib/libnix/libc.a(vsprintf.o)
                              /gg/ppc-morphos/lib/libnix/libc.a(sprintf.o) (vsprintf)
/gg/ppc-morphos/lib/libnix/libc.a(vsscanf.o)
                              /gg/ppc-morphos/lib/libnix/libc.a(sscanf.o) (vsscanf)
/gg/ppc-morphos/lib/libnix/libc.a(dirent.o)
                              /usr/local/lib/libcrypto.a(o_dir.o) (opendir)
/gg/ppc-morphos/lib/libnix/libc.a(stat.o)
                              tool_getparam.o (stat)
/gg/ppc-morphos/lib/libnix/libc.a(__stat.o)
                              /gg/ppc-morphos/lib/libnix/libc.a(stat.o) (__stat)
/gg/ppc-morphos/lib/libnix/libc.a(access.o)
                              tool_dirhie.o (access)
/gg/ppc-morphos/lib/libnix/libc.a(fstat.o)
                              tool_operate.o (fstat)
/gg/ppc-morphos/lib/libnix/libc.a(bzero.o)
                              ../lib/.libs/libcurl.a(libcurl_la-select.o) (bzero)
/gg/ppc-morphos/lib/libnix/libc.a(strdup.o)
                              tool_dirhie.o (strdup)
/gg/ppc-morphos/lib/libnix/libc.a(gettimeofday.o)
                              ../lib/.libs/libcurl.a(libcurl_la-timeval.o) (gettimeofday)
/gg/ppc-morphos/lib/libnix/libc.a(mkdir.o)
                              tool_dirhie.o (mkdir)
/gg/ppc-morphos/lib/libnix/libc.a(strtoll.o)
                              ../lib/.libs/libcurl.a(libcurl_la-cookie.o) (strtoll)
/gg/ppc-morphos/lib/libnix/libc.a(strtoull.o)
                              /gg/ppc-morphos/lib/libnix/libc.a(strtoll.o) (strtoull)
/gg/ppc-morphos/lib/libnix/libc.a(__stdv37.o)
                              /gg/ppc-morphos/lib/libnix/libc.a(open.o) (__stdiov37)
/gg/ppc-morphos/lib/libnix/libc.a(__stdwin.o)
                              /gg/ppc-morphos/lib/libnix/libc.a(open.o) (__stdiowin)
/gg/ppc-morphos/lib/libnix/libc.a(semaphore.o)
                              /gg/ppc-morphos/lib/libnix/libc.a(fopen.o) (__global_lock)
/gg/ppc-morphos/lib/libnix/libc.a(write.o)
                              ../lib/.libs/libcurl.a(libcurl_la-file.o) (write)
/gg/ppc-morphos/lib/libnix/libc.a(read.o)
                              tool_cb_rea.o (read)
/gg/ppc-morphos/lib/libnix/libc.a(lseek.o)
                              tool_cb_see.o (lseek)
/gg/ppc-morphos/lib/libnix/libc.a(lseek64.o)
                              /gg/ppc-morphos/lib/libnix/libc.a(__swbuf.o) (lseek64)
/gg/ppc-morphos/lib/libnix/libc.a(chmod.o)
                              /usr/local/lib/libcrypto.a(randfile.o) (chmod)
/gg/ppc-morphos/lib/libnix/libc.a(destructors.o)
                              /gg/ppc-morphos/lib/libnix/libc.a(dirent.o) (__alloc_destructor)
/gg/ppc-morphos/lib/libnix/libc.a(printfshared.o)
                              /gg/ppc-morphos/lib/libnix/libc.a(vfprintf.o) (_printfshared)
/gg/ppc-morphos/lib/libnix/libc.a(__chkabort.o)
                              /gg/ppc-morphos/lib/libnix/libc.a(write.o) (__chkabort)
/gg/ppc-morphos/lib/libnix/libc.a(raise.o)
                              /gg/ppc-morphos/lib/libnix/libc.a(signal.o) (raise)
/gg/ppc-morphos/lib/libnix/libc.a(isinf.o)
                              /gg/ppc-morphos/lib/libnix/libc.a(printfshared.o) (isinf)
/gg/ppc-morphos/lib/libnix/libc.a(isnan.o)
                              /gg/ppc-morphos/lib/libnix/libc.a(printfshared.o) (isnan)
/gg/ppc-morphos/lib/libnix/libc.a(__decimalpoint.o)
                              /gg/ppc-morphos/lib/libnix/libc.a(printfshared.o) (__decimalpoint)
/gg/ppc-morphos/lib/libnix/libc.a(scanfshared.o)
                              /gg/ppc-morphos/lib/libnix/libc.a(vsscanf.o) (_scanfshared)
/gg/ppc-morphos/lib/libnix/libc.a(fgetc.o)
                              /gg/ppc-morphos/lib/libnix/libc.a(fgets.o) (fgetc)
/gg/ppc-morphos/lib/libnix/libc.a(__srget.o)
                              /gg/ppc-morphos/lib/libnix/libc.a(fread.o) (__srget)
/gg/ppc-morphos/lib/libnix/libc.a(__localevec.o)
                              /gg/ppc-morphos/lib/libnix/libc.a(dirent.o) (__localevec)
/gg/ppc-morphos/lib/libnix/libc.a(strspn.o)
                              /gg/ppc-morphos/lib/libnix/libc.a(strtok.o) (strspn)
/gg/ppc-morphos/lib/libaboxstubs.a(accept.o)
                              ../lib/.libs/libcurl.a(libcurl_la-ftp.o) (accept)
/gg/ppc-morphos/lib/libaboxstubs.a(bind.o)
                              ../lib/.libs/libcurl.a(libcurl_la-connect.o) (bind)
/gg/ppc-morphos/lib/libaboxstubs.a(connect.o)
                              ../lib/.libs/libcurl.a(libcurl_la-connect.o) (connect)
/gg/ppc-morphos/lib/libaboxstubs.a(FindTask.o)
                              ../lib/.libs/libcurl.a(libcurl_la-smb.o) (FindTask)
/gg/ppc-morphos/lib/libaboxstubs.a(geteuid.o)
                              ../lib/.libs/libcurl.a(libcurl_la-netrc.o) (geteuid)
/gg/ppc-morphos/lib/libaboxstubs.a(gethostbyname.o)
                              ../lib/.libs/libcurl.a(libcurl_la-hostip4.o) (gethostbyname)
/gg/ppc-morphos/lib/libaboxstubs.a(gethostname.o)
                              ../lib/.libs/libcurl.a(libcurl_la-curl_gethostname.o) (gethostname)
/gg/ppc-morphos/lib/libaboxstubs.a(getpeername.o)
                              ../lib/.libs/libcurl.a(libcurl_la-connect.o) (getpeername)
/gg/ppc-morphos/lib/libaboxstubs.a(getpwuid.o)
                              ../lib/.libs/libcurl.a(libcurl_la-netrc.o) (getpwuid)
/gg/ppc-morphos/lib/libaboxstubs.a(getsockname.o)
                              ../lib/.libs/libcurl.a(libcurl_la-connect.o) (getsockname)
/gg/ppc-morphos/lib/libaboxstubs.a(getsockopt.o)
                              ../lib/.libs/libcurl.a(libcurl_la-connect.o) (getsockopt)
/gg/ppc-morphos/lib/libaboxstubs.a(listen.o)
                              ../lib/.libs/libcurl.a(libcurl_la-ftp.o) (listen)
/gg/ppc-morphos/lib/libaboxstubs.a(recv.o)
                              ../lib/.libs/libcurl.a(libcurl_la-sendf.o) (recv)
/gg/ppc-morphos/lib/libaboxstubs.a(recvfrom.o)
                              ../lib/.libs/libcurl.a(libcurl_la-tftp.o) (recvfrom)
/gg/ppc-morphos/lib/libaboxstubs.a(send.o)
                              ../lib/.libs/libcurl.a(libcurl_la-sendf.o) (send)
/gg/ppc-morphos/lib/libaboxstubs.a(sendto.o)
                              ../lib/.libs/libcurl.a(libcurl_la-tftp.o) (sendto)
/gg/ppc-morphos/lib/libaboxstubs.a(setsockopt.o)
                              ../lib/.libs/libcurl.a(libcurl_la-connect.o) (setsockopt)
/gg/ppc-morphos/lib/libaboxstubs.a(socket.o)
                              ../lib/.libs/libcurl.a(libcurl_la-connect.o) (socket)
/gg/ppc-morphos/lib/libaboxstubs.a(WaitSelect.o)
                              ../lib/.libs/libcurl.a(libcurl_la-select.o) (WaitSelect)
/gg/ppc-morphos/lib/libnix/libauto.a(SocketBase.o)
                              tool_sleep.o (SocketBase)
/gg/ppc-morphos/lib/libnix/libauto.a(UserGroupBase.o)
                              /usr/local/lib/libcrypto.a(uid.o) (UserGroupBase)
/gg/ppc-morphos/lib/libnix/libauto.a(__initlibraries.o)
                              /gg/ppc-morphos/lib/libnix/libauto.a(SocketBase.o) (__openlib)
/gg/ppc-morphos/lib/libnix/libauto.a(__openliberror.o)
                              /gg/ppc-morphos/lib/libnix/libauto.a(__initlibraries.o) (__openliberror)
/gg/ppc-morphos/lib/libnix/libauto.a(__oslibversion.o)
                              /gg/ppc-morphos/lib/libnix/libauto.a(SocketBase.o) (__oslibversion)

Allocating common symbols
Common symbol       size              file

__programname       0x4               /gg/ppc-morphos/lib/libnix/libc.a(__nocommandline.o)
ThisRequiresConstructorHandling
                    0x4               /gg/ppc-morphos/lib/libnix/crt0.o
SocketBase          0x4               /gg/ppc-morphos/lib/libnix/libauto.a(SocketBase.o)
__commandline       0x4               /gg/ppc-morphos/lib/libnix/crt0.o
__commandlen        0x4               /gg/ppc-morphos/lib/libnix/crt0.o
__elfobject         0x4               /gg/ppc-morphos/lib/libnix/crt0.o
__argc              0x4               /gg/ppc-morphos/lib/libnix/crt0.o
DOSBase             0x4               /gg/ppc-morphos/lib/libnix/crt0.o
__commandbuf        0x4               /gg/ppc-morphos/lib/libnix/libc.a(__nocommandline.o)
curl_jmpenv         0x17c             ../lib/.libs/libcurl.a(libcurl_la-hostip.o)
_WBenchMsg          0x4               /gg/ppc-morphos/lib/libnix/crt0.o
__argv              0x4               /gg/ppc-morphos/lib/libnix/crt0.o
__curdir            0x4               /gg/ppc-morphos/lib/libnix/crt0.o
__SaveSP            0x4               /gg/ppc-morphos/lib/libnix/crt0.o
__global_lock       0x2e              /gg/ppc-morphos/lib/libnix/libc.a(semaphore.o)
__currentprocess    0x4               /gg/ppc-morphos/lib/libnix/crt0.o
UserGroupBase       0x4               /gg/ppc-morphos/lib/libnix/libauto.a(UserGroupBase.o)
_shadow_DES_check_key
                    0x4               /usr/local/lib/libcrypto.a(set_key.o)
SysBase             0x4               /gg/ppc-morphos/lib/libnix/crt0.o

Memory Configuration

Name             Origin             Length             Attributes
*default*        0x00000000         0xffffffff

Linker script and memory map

LOAD /gg/ppc-morphos/lib/libnix/crt0.o
LOAD slist_wc.o
LOAD tool_binmode.o
LOAD tool_bname.o
LOAD tool_cb_dbg.o
LOAD tool_cb_hdr.o
LOAD tool_cb_prg.o
LOAD tool_cb_rea.o
LOAD tool_cb_see.o
LOAD tool_cb_wrt.o
LOAD tool_cfgable.o
LOAD tool_convert.o
LOAD tool_dirhie.o
LOAD tool_doswin.o
LOAD tool_easysrc.o
LOAD tool_formparse.o
LOAD tool_getparam.o
LOAD tool_getpass.o
LOAD tool_help.o
LOAD tool_helpers.o
LOAD tool_homedir.o
LOAD tool_hugehelp.o
LOAD tool_libinfo.o
LOAD tool_main.o
LOAD tool_metalink.o
LOAD tool_mfiles.o
LOAD tool_msgs.o
LOAD tool_operate.o
LOAD tool_operhlp.o
LOAD tool_panykey.o
LOAD tool_paramhlp.o
LOAD tool_parsecfg.o
LOAD tool_strdup.o
LOAD tool_setopt.o
LOAD tool_sleep.o
LOAD tool_urlglob.o
LOAD tool_util.o
LOAD tool_vms.o
LOAD tool_writeenv.o
LOAD tool_writeout.o
LOAD tool_xattr.o
LOAD ../lib/strtoofft.o
LOAD ../lib/nonblock.o
LOAD ../lib/warnless.o
LOAD ../lib/.libs/libcurl.a
LOAD /usr/local/lib/libssl.a
LOAD /usr/local/lib/libcrypto.a
LOAD /usr/local/lib/libz.a
LOAD /usr/local/lib/libgen.a
LOAD /gg/lib/gcc-lib/ppc-morphos/2.95.3/libnix/libgcc.a
LOAD /gg/ppc-morphos/lib/libnix/libc.a
LOAD /gg/ppc-morphos/lib/libabox.a
LOAD /gg/ppc-morphos/lib/libaboxstubs.a
LOAD /gg/ppc-morphos/lib/libnix/libc.a
LOAD /gg/ppc-morphos/lib/libnix/libauto.a
LOAD /gg/lib/gcc-lib/ppc-morphos/2.95.3/libnix/libgcc.a
                0x00000000                PROVIDE (__stack, 0x0)
                0x00000001                PROVIDE (__machtype, 0x1)
                0x00000074                .=SIZEOF_HEADERS

.interp
 *(.interp)

.hash
 *(.hash)

.dynsym
 *(.dynsym)

.dynstr
 *(.dynstr)

.gnu.version
 *(.gnu.version)

.gnu.version_d
 *(.gnu.version_d)

.gnu.version_r
 *(.gnu.version_r)

.rela.text
 *(.rela.text)
 *(.rela.text.*)
 *(.rela.gnu.linkonce.t*)

.rela.data
 *(.rela.data)
 *(.rela.data.*)
 *(.rela.gnu.linkonce.d*)

.rela.rodata
 *(.rela.rodata)
 *(.rela.rodata.*)
 *(.rela.gnu.linkonce.r*)

.rela.got
 *(.rela.got)

.rela.got1
 *(.rela.got1)

.rela.got2
 *(.rela.got2)

.rela.ctors
 *(.rela.ctors)

.rela.dtors
 *(.rela.dtors)

.rela.init
 *(.rela.init)

.rela.fini
 *(.rela.fini)

.rela.bss
 *(.rela.bss)
 *(.rela.bss.*)
 *(.rela.gnu.linkonce.b.*)

.rela.plt
 *(.rela.plt)

.rela.sdata
 *(.rela.sdata)
 *(.rela.sdata.*)
 *(.rela.gnu.linkonce.s.*)

.rela.sbss
 *(.rela.sbss)
 *(.rela.sbss.*)
 *(.rela.gnu.linkonce.sb.*)

.rela.sdata2
 *(.rela.sdata2)
 *(.rela.sdata2.*)

.rela.sbss2
 *(.rela.sbss2)
 *(.rela.sbss2.*)

.text           0x00000000   0x13b30c
                0x00000000                PROVIDE (__text_start, .)
 *(.text)
 .text          0x00000000      0x650 /gg/ppc-morphos/lib/libnix/crt0.o
                0x00000000                __start
                0x000004fc                exit
                0x000004fc                _exit
 .text          0x00000650      0x13c slist_wc.o
                0x00000650                slist_wc_append
                0x00000738                slist_wc_free_all
 .text          0x0000078c       0xdc tool_bname.o
                0x0000078c                tool_basename
 .text          0x00000868      0xa58 tool_cb_dbg.o
                0x00000868                tool_debug_cb
 .text          0x000012c0      0x680 tool_cb_hdr.o
                0x000012c0                tool_header_cb
 .text          0x00001940      0x580 tool_cb_prg.o
                0x00001940                tool_progress_cb
                0x00001d9c                progressbarinit
 .text          0x00001ec0       0xd4 tool_cb_rea.o
                0x00001ec0                tool_read_cb
 .text          0x00001f94      0x1d8 tool_cb_see.o
                0x00001f94                tool_seek_cb
 .text          0x0000216c      0x358 tool_cb_wrt.o
                0x0000232c                tool_write_cb
                0x0000216c                tool_create_output_file
 .text          0x000024c4      0xaa0 tool_cfgable.o
                0x000024c4                config_init
                0x00002ef4                config_free
 .text          0x00002f64      0x360 tool_dirhie.o
                0x00003080                create_dir_hierarchy
 .text          0x000032c4      0x960 tool_easysrc.o
                0x00003368                easysrc_add
                0x0000356c                easysrc_perform
                0x000038d4                dumpeasysrc
                0x00003824                easysrc_cleanup
                0x000033f0                easysrc_addf
                0x000034f8                easysrc_init
 .text          0x00003c24      0xd7c tool_formparse.o
                0x00003efc                formparse
 .text          0x000049a0     0x5f0c tool_getparam.o
                0x00004d48                getparameter
                0x0000a51c                parse_args
 .text          0x0000a8ac      0x194 tool_getpass.o
                0x0000a900                getpass_r
 .text          0x0000aa40      0x2bc tool_help.o
                0x0000aac8                tool_version_info
                0x0000ac40                tool_list_engines
                0x0000aa40                tool_help
 .text          0x0000acfc      0x324 tool_helpers.o
                0x0000af14                customrequest_helper
                0x0000ae1c                SetHTTPrequest
                0x0000acfc                param2text
 .text          0x0000b020      0x128 tool_homedir.o
                0x0000b0b0                homedir
 .text          0x0000b148      0x228 tool_hugehelp.o
                0x0000b1d8                hugehelp
 .text          0x0000b370      0x124 tool_libinfo.o
                0x0000b370                get_libcurl_info
 .text          0x0000b494      0x420 tool_main.o
                0x0000b7f8                main
 .text          0x0000b8b4      0x298 tool_mfiles.o
                0x0000b920                AddMultiFiles
                0x0000baa8                FreeMultiInfo
 .text          0x0000bb4c      0x46c tool_msgs.o
                0x0000bdf8                warnf
                0x0000bec4                helpf
                0x0000bd1c                notef
 .text          0x0000bfb8     0x61c0 tool_operate.o
                0x00011e74                operate
 .text          0x00012178      0x564 tool_operhlp.o
                0x0001231c                stdin_upload
                0x00012178                clean_getout
                0x000125b4                get_url_file_name
                0x000123a8                add_file_name_to_url
                0x00012260                output_expected
 .text          0x000126dc     0x1238 tool_paramhlp.o
                0x000126dc                new_getout
                0x0001290c                file2memory
                0x000137b0                get_args
                0x00012b84                str2num
                0x000134cc                add2list
                0x00013608                ftpcccmethod
                0x00013154                str2offset
                0x00012d50                str2udouble
                0x00013544                ftpfilemethod
                0x00012ddc                proto2num
                0x000136a8                delegation
                0x000130a8                check_protocol
                0x00012cac                str2double
                0x00012c2c                str2unum
                0x00012b28                cleanarg
                0x00012788                file2string
 .text          0x00013914      0xba4 tool_parsecfg.o
                0x00013914                parseconfig
 .text          0x000144b8     0x1c24 tool_setopt.o
                0x00015358                tool_setopt_slist
                0x00014714                tool_setopt_enum
                0x00015630                tool_setopt
                0x00014b14                tool_setopt_bitmask
                0x00014d74                tool_setopt_httppost
                0x000148b4                tool_setopt_flags
 .text          0x000160dc      0x18c tool_sleep.o
                0x000160dc                tool_go_sleep
 .text          0x00016268     0x200c tool_urlglob.o
                0x00017844                glob_cleanup
                0x000179e4                glob_next_url
                0x00017e24                glob_match_url
                0x0001764c                glob_url
 .text          0x00018274      0x1d8 tool_util.o
                0x000182dc                tool_tvdiff
                0x00018420                tool_tvlong
                0x00018274                tool_tvnow
                0x00018338                tool_tvdiff_secs
 .text          0x0001844c      0xc3c tool_writeout.o
                0x0001844c                ourWriteOut
 .text          0x00019088       0x2c tool_xattr.o
                0x00019088                fwrite_xattr
 .text          0x000190b4      0x4d8 ../lib/strtoofft.o
                0x000190b4                curlx_strtoll
 .text          0x0001958c       0xb4 ../lib/nonblock.o
                0x0001958c                curlx_nonblock
 .text          0x00019640      0x3bc ../lib/warnless.o
                0x00019640                curlx_ultous
                0x00019990                curlx_uitosi
                0x00019764                curlx_uztoul
                0x00019870                curlx_uztosz
                0x0001972c                curlx_uztosi
                0x000198e8                curlx_sztosi
                0x00019958                curlx_uitouc
                0x00019828                curlx_sltous
                0x00019920                curlx_uitous
                0x000196b0                curlx_ultosi
                0x00019790                curlx_uztoui
                0x000197f4                curlx_sltoui
                0x00019678                curlx_ultouc
                0x000197bc                curlx_sltosi
                0x000198a8                curlx_sotouz
                0x000196e8                curlx_uztoso
                0x000199c8                curlx_sitouz
 .text          0x000199fc     0x20e4 ../lib/.libs/libcurl.a(libcurl_la-formdata.o)
                0x0001ad30                Curl_formclean
                0x0001a930                curl_formadd
                0x0001ba50                Curl_formpostheader
                0x0001af14                curl_formfree
                0x0001b200                Curl_getformdata
                0x0001b918                Curl_FormReader
                0x0001b7f8                Curl_FormInit
                0x0001adc8                curl_formget
 .text          0x0001bae0     0x1050 ../lib/.libs/libcurl.a(libcurl_la-sendf.o)
                0x0001c228                Curl_recv_plain
                0x0001bec8                Curl_sendf
                0x0001c6d8                Curl_read_plain
                0x0001c0dc                Curl_send_plain
                0x0001bd94                Curl_failf
                0x0001c630                Curl_client_write
                0x0001c9f4                Curl_debug
                0x0001bc98                Curl_recv_has_postponed_data
                0x0001bca0                Curl_infof
                0x0001c048                Curl_write
                0x0001c3c4                Curl_client_chop_write
                0x0001c758                Curl_read
                0x0001c1d0                Curl_write_plain
 .text          0x0001cb30      0x1a8 ../lib/.libs/libcurl.a(libcurl_la-version.o)
                0x0001cb58                curl_version
                0x0001cc4c                curl_version_info
                0x0001cb30                Curl_version_init
 .text          0x0001ccd8       0x6c ../lib/.libs/libcurl.a(libcurl_la-getenv.o)
                0x0001cd24                curl_getenv
 .text          0x0001cd44      0x5d4 ../lib/.libs/libcurl.a(libcurl_la-escape.o)
                0x0001d250                curl_easy_unescape
                0x0001d064                Curl_urldecode
                0x0001cecc                curl_escape
                0x0001cf28                curl_easy_escape
                0x0001cef8                curl_unescape
                0x0001d2ec                curl_free
 .text          0x0001d318     0x1fdc ../lib/.libs/libcurl.a(libcurl_la-mprintf.o)
                0x0001f0f4                curl_mprintf
                0x0001ec34                curl_mvsnprintf
                0x0001ee34                curl_maprintf
                0x0001ef64                curl_mvaprintf
                0x0001f2c4                curl_mvfprintf
                0x0001f288                curl_mvprintf
                0x0001f040                curl_msprintf
                0x0001f1a4                curl_mfprintf
                0x0001ecac                curl_msnprintf
                0x0001f244                curl_mvsprintf
 .text          0x0001f2f4      0x274 ../lib/.libs/libcurl.a(libcurl_la-strcase.o)
                0x0001f528                curl_strequal
                0x0001f3f4                Curl_strncasecompare
                0x0001f3a4                Curl_safe_strcasecompare
                0x0001f30c                Curl_strcasecompare
                0x0001f2f4                Curl_raw_toupper
                0x0001f548                curl_strnequal
                0x0001f4bc                Curl_strntoupper
 .text          0x0001f568      0xcf8 ../lib/.libs/libcurl.a(libcurl_la-easy.o)
                0x000201a4                curl_easy_send
                0x0001f694                curl_global_init_mem
                0x0001fbe8                curl_easy_getinfo
                0x0001f82c                curl_easy_setopt
                0x0001ffb0                curl_easy_pause
                0x0001f758                curl_global_cleanup
                0x00020118                curl_easy_recv
                0x0001fb9c                curl_easy_perform
                0x0001f7d4                curl_easy_init
                0x0001fee8                curl_easy_reset
                0x0001f670                curl_global_init
                0x0001fcb0                curl_easy_duphandle
                0x0001fbc0                curl_easy_cleanup
 .text          0x00020260     0x18cc ../lib/.libs/libcurl.a(libcurl_la-connect.o)
                0x000218a0                Curl_closesocket
                0x00020dcc                Curl_is_connected
                0x00021a4c                Curl_conncontrol
                0x0002194c                Curl_socket
                0x000202e0                Curl_timeleft
                0x00021230                Curl_tcpnodelay
                0x00021aa0                Curl_conn_data_pending
                0x00020bf0                Curl_updateconninfo
                0x00020a8c                Curl_persistconninfo
                0x000215dc                Curl_connecthost
                0x00021764                Curl_getconnectinfo
                0x00021830                Curl_connalive
 .text          0x00021b2c     0x4088 ../lib/.libs/libcurl.a(libcurl_la-multi.o)
                0x00022a4c                curl_multi_wait
                0x00025994                Curl_expire_clear
                0x00024968                Curl_multi_closed
                0x000226b8                Curl_multi_handlePipeBreak
                0x00025718                Curl_expire
                0x00025b18                Curl_multi_pipelining_server_bl
                0x0002442c                curl_multi_cleanup
                0x00025300                curl_multi_socket_action
                0x00025b10                Curl_multi_pipelining_site_bl
                0x00022e20                Curl_multi_add_perform
                0x0002549c                curl_multi_timeout
                0x00021ef4                curl_multi_init
                0x00025a98                Curl_multi_max_host_connections
                0x00021f1c                curl_multi_add_handle
                0x00025ab0                Curl_multi_max_total_connections
                0x00022448                curl_multi_remove_handle
                0x00022690                Curl_pipeline_wanted
                0x00021d78                Curl_multi_handle
                0x000258b0                Curl_expire_latest
                0x00025a50                curl_multi_assign
                0x00025aec                Curl_multi_chunk_length_penalty_size
                0x00024d9c                curl_multi_setopt
                0x0002535c                curl_multi_socket_all
                0x0002426c                curl_multi_perform
                0x000228d8                curl_multi_fdset
                0x00022df8                Curl_multi_connchanged
                0x00025b20                Curl_multi_process_pending_handles
                0x00024588                curl_multi_info_read
                0x00025ac8                Curl_multi_content_length_penalty_size
                0x000252a8                curl_multi_socket
 .text          0x00025bb4      0x17c ../lib/.libs/libcurl.a(libcurl_la-inet_pton.o)
                0x00025bb4                Curl_inet_pton
 .text          0x00025d30      0x804 ../lib/.libs/libcurl.a(libcurl_la-strerror.o)
                0x0002643c                Curl_strerror
                0x00025d30                curl_easy_strerror
                0x000263a0                curl_share_strerror
                0x000262d0                curl_multi_strerror
 .text          0x00026534      0x104 ../lib/.libs/libcurl.a(libcurl_la-inet_ntop.o)
                0x000265f0                Curl_inet_ntop
 .text          0x00026638      0xacc ../lib/.libs/libcurl.a(libcurl_la-parsedate.o)
                0x00027094                Curl_gmtime
                0x0002704c                curl_getdate
 .text          0x00027104      0xa38 ../lib/.libs/libcurl.a(libcurl_la-select.o)
                0x00027104                select
                0x0002712c                Curl_wait_ms
                0x000276f8                Curl_poll
                0x00027288                Curl_socket_check
 .text          0x00027b3c      0x538 ../lib/.libs/libcurl.a(libcurl_la-splay.o)
                0x00027b3c                Curl_splay
                0x00027dc8                Curl_splaygetbest
                0x00027f20                Curl_splayremovebyaddr
                0x00027c94                Curl_splayinsert
 .text          0x00028074       0xf8 ../lib/.libs/libcurl.a(libcurl_la-strdup.o)
                0x000280ec                Curl_saferealloc
                0x00028074                Curl_memdup
 .text          0x0002816c      0x234 ../lib/.libs/libcurl.a(libcurl_la-slist.o)
                0x000282a0                Curl_slist_duplicate
                0x0002819c                Curl_slist_append_nodup
                0x00028310                curl_slist_free_all
                0x00028224                curl_slist_append
 .text          0x000283a0      0x198 ../lib/.libs/libcurl.a(libcurl_la-rand.o)
                0x00028498                Curl_rand
 .text          0x00028538      0x754 ../lib/.libs/libcurl.a(libcurl_la-conncache.o)
                0x00028830                Curl_conncache_find_bundle
                0x00028760                Curl_conncache_init
                0x00028b50                Curl_conncache_foreach
                0x00028ae0                Curl_conncache_remove_conn
                0x00028798                Curl_conncache_destroy
                0x00028c10                Curl_conncache_find_first_connection
                0x000289bc                Curl_conncache_add_conn
 .text          0x00028c8c      0x924 ../lib/.libs/libcurl.a(libcurl_la-pipeline.o)
                0x00029478                Curl_recvpipe_head
                0x000295a4                Curl_pipeline_leave_read
                0x00028ed4                Curl_add_handle_to_pipeline
                0x00028fe8                Curl_pipeline_site_blacklisted
                0x000290b0                Curl_pipeline_set_site_blacklist
                0x00028d28                Curl_pipeline_penalized
                0x00028f60                Curl_move_handle_from_send_to_recv_pipe
                0x0002952c                Curl_pipeline_checkget_read
                0x00029598                Curl_pipeline_leave_write
                0x0002949c                Curl_sendpipe_head
                0x0002931c                Curl_pipeline_set_server_blacklist
                0x00029248                Curl_pipeline_server_blacklisted
                0x000294c0                Curl_pipeline_checkget_write
 .text          0x000295b0     0x17ec ../lib/.libs/libcurl.a(libcurl_la-vtls.o)
                0x00029b98                Curl_ssl_sessionid_lock
                0x00029ad4                Curl_ssl_connect_nonblocking
                0x00029bdc                Curl_ssl_sessionid_unlock
                0x0002a444                Curl_ssl_initsessions
                0x00029e9c                Curl_ssl_kill_session
                0x0002ad50                Curl_ssl_md5sum
                0x000298bc                Curl_ssl_backend
                0x0002ad74                Curl_ssl_cert_status_request
                0x0002a648                Curl_ssl_push_certinfo_len
                0x00029904                Curl_ssl_cleanup
                0x000298c4                Curl_ssl_init
                0x0002a340                Curl_ssl_close
                0x0002a5d0                Curl_ssl_init_certinfo
                0x000295b0                Curl_ssl_config_matches
                0x0002a3e4                Curl_ssl_set_engine
                0x0002a424                Curl_ssl_engines_list
                0x0002a4c8                Curl_ssl_version
                0x00029a24                Curl_ssl_connect
                0x0002a4e8                Curl_ssl_check_cxn
                0x0002a528                Curl_ssl_free_certinfo
                0x0002a244                Curl_ssl_close_all
                0x0002a800                Curl_ssl_random
                0x00029c1c                Curl_ssl_getsessionid
                0x00029f2c                Curl_ssl_delsessionid
                0x0002966c                Curl_clone_primary_ssl_config
                0x0002a404                Curl_ssl_set_engine_default
                0x0002a978                Curl_pin_peer_pubkey
                0x0002a508                Curl_ssl_data_pending
                0x00029f84                Curl_ssl_addsessionid
                0x0002ad94                Curl_ssl_false_start
                0x000297f4                Curl_free_primary_ssl_config
                0x0002a360                Curl_ssl_shutdown
                0x0002a784                Curl_ssl_push_certinfo
                0x0002a2f8                Curl_ssl_getsock
 .text          0x0002ad9c      0x160 ../lib/.libs/libcurl.a(libcurl_la-timeval.o)
                0x0002adec                curlx_tvdiff
                0x0002ad9c                curlx_tvnow
                0x0002aef4                Curl_tvlong
                0x0002ae44                curlx_tvdiff_secs
 .text          0x0002aefc      0x574 ../lib/.libs/libcurl.a(libcurl_la-base64.o)
                0x0002b000                Curl_base64_decode
                0x0002b424                Curl_base64url_encode
                0x0002b3d8                Curl_base64_encode
 .text          0x0002b470      0xc5c ../lib/.libs/libcurl.a(libcurl_la-hostip.o)
                0x0002bbe4                Curl_resolv_timeout
                0x0002b6d0                Curl_hostcache_prune
                0x0002b564                Curl_printable_address
                0x0002bd48                Curl_mk_dnscache
                0x0002b850                Curl_fetch_addr
                0x0002bc74                Curl_resolv_unlock
                0x0002be00                Curl_loadhostpairs
                0x0002b8f8                Curl_cache_addr
                0x0002bd84                Curl_hostcache_clean
                0x0002ba34                Curl_resolv
                0x0002b540                Curl_num_addresses
                0x0002b470                Curl_global_host_cache_init
                0x0002b4f8                Curl_global_host_cache_dtor
 .text          0x0002c0cc     0x1420 ../lib/.libs/libcurl.a(libcurl_la-progress.o)
                0x0002c64c                Curl_pgrsResetTimesSizes
                0x0002cb98                Curl_pgrsUpdate
                0x0002c6c8                Curl_pgrsTime
                0x0002cb18                Curl_pgrsSetDownloadSize
                0x0002ca58                Curl_pgrsSetUploadCounter
                0x0002cb58                Curl_pgrsSetUploadSize
                0x0002c848                Curl_pgrsStartNow
                0x0002c998                Curl_pgrsSetDownloadCounter
                0x0002c5d8                Curl_pgrsDone
                0x0002c8c0                Curl_pgrsLimitWaitTime
 .text          0x0002d4ec     0x22d0 ../lib/.libs/libcurl.a(libcurl_la-cookie.o)
                0x0002d8b8                Curl_cookie_loadfiles
                0x0002ea00                Curl_cookie_init
                0x0002dadc                Curl_cookie_add
                0x0002f234                Curl_cookie_clearsess
                0x0002f5ec                Curl_cookie_list
                0x0002f1a4                Curl_cookie_clearall
                0x0002f1e4                Curl_cookie_freelist
                0x0002ef30                Curl_cookie_getlist
                0x0002f2fc                Curl_cookie_cleanup
                0x0002f6b4                Curl_flush_cookies
 .text          0x0002f7bc     0x522c ../lib/.libs/libcurl.a(libcurl_la-http.o)
                0x00030938                Curl_add_buffer_free
                0x0002f7bc                Curl_http_setup_conn
                0x00030bf0                Curl_add_bufferf
                0x00030d0c                Curl_add_buffer
                0x0002fedc                Curl_http_auth_act
                0x00030454                Curl_http_input_auth
                0x000302d0                Curl_http_output_auth
                0x00030f9c                Curl_http_connect
                0x00030e64                Curl_compareheader
                0x000310e4                Curl_http_done
                0x000316ec                Curl_add_timecondition
                0x00030904                Curl_add_buffer_init
                0x00031860                Curl_http
                0x0002f8a0                Curl_checkProxyheaders
                0x0003375c                Curl_http_readwrite_headers
                0x0002f944                Curl_copy_header_value
                0x0003098c                Curl_add_buffer_send
                0x0002f818                Curl_checkheaders
                0x000313d4                Curl_add_custom_headers
 .text          0x000349e8     0xa4f8 ../lib/.libs/libcurl.a(libcurl_la-url.o)
                0x000352cc                Curl_setopt
                0x00035178                Curl_open
                0x00034fec                Curl_init_userdefined
                0x00034c90                Curl_dupset
                0x000349e8                Curl_freeset
                0x0003ebac                Curl_init_do
                0x0003ba88                Curl_free_request_state
                0x0003a928                Curl_protocol_getsock
                0x000399e4                Curl_getoff_all_pipelines
                0x0003aa64                Curl_protocol_connect
                0x00039728                Curl_disconnect
                0x0003a760                Curl_connected_proxy
                0x00039968                Curl_removeHandleFromPipeline
                0x0003eac8                Curl_connect
                0x0003a9ac                Curl_protocol_connecting
                0x0003aa08                Curl_protocol_doing
                0x0003e94c                Curl_setup_conn
                0x0003a89c                Curl_verboseconnect
                0x00034d98                Curl_close
                0x00039b44                Curl_oldest_idle_connection
                0x0003a968                Curl_doing_getsock
 .text          0x0003eee0      0x524 ../lib/.libs/libcurl.a(libcurl_la-dict.o)
 .text          0x0003f404       0x18 ../lib/.libs/libcurl.a(libcurl_la-if2ip.o)
                0x0003f40c                Curl_if_is_interface_name
                0x0003f404                Curl_ipv6_scope
                0x0003f414                Curl_if2ip
 .text          0x0003f41c      0x134 ../lib/.libs/libcurl.a(libcurl_la-speedcheck.o)
                0x0003f44c                Curl_speedcheck
                0x0003f41c                Curl_speedinit
 .text          0x0003f550     0x2014 ../lib/.libs/libcurl.a(libcurl_la-telnet.o)
 .text          0x00041564      0x434 ../lib/.libs/libcurl.a(libcurl_la-netrc.o)
                0x00041564                Curl_parsenetrc
 .text          0x00041998      0xafc ../lib/.libs/libcurl.a(libcurl_la-getinfo.o)
                0x00042250                Curl_getinfo
                0x00041998                Curl_initinfo
 .text          0x00042494     0x24d4 ../lib/.libs/libcurl.a(libcurl_la-transfer.o)
                0x00043cf4                Curl_init_CONNECT
                0x000426bc                Curl_readrewind
                0x0004380c                Curl_readwrite
                0x00042494                Curl_fillreadbuffer
                0x000447f4                Curl_setup_transfer
                0x00042870                Curl_meets_timecondition
                0x000446ac                Curl_retry_request
                0x00043d08                Curl_pretransfer
                0x0004439c                Curl_follow
                0x00043c30                Curl_single_getsock
                0x00043eb0                Curl_posttransfer
 .text          0x00044968      0x110 ../lib/.libs/libcurl.a(libcurl_la-wildcard.o)
                0x000449bc                Curl_wildcard_dtor
                0x00044968                Curl_wildcard_init
 .text          0x00044a78      0x684 ../lib/.libs/libcurl.a(libcurl_la-http_chunks.o)
                0x00044abc                Curl_httpchunk_init
                0x00044ad4                Curl_httpchunk_read
                0x00045060                Curl_chunked_strerror
 .text          0x000450fc      0x3ac ../lib/.libs/libcurl.a(libcurl_la-llist.o)
                0x00045114                Curl_llist_alloc
                0x00045174                Curl_llist_insert_next
                0x00045260                Curl_llist_remove
                0x000453bc                Curl_llist_count
                0x000453c4                Curl_llist_move
                0x00045350                Curl_llist_destroy
 .text          0x000454a8      0x8b8 ../lib/.libs/libcurl.a(libcurl_la-hash.o)
                0x00045b00                Curl_hash_clean
                0x00045c24                Curl_hash_str
                0x00045a58                Curl_hash_destroy
                0x0004576c                Curl_hash_add
                0x00045b28                Curl_hash_clean_with_criterium
                0x00045ca4                Curl_hash_start_iterate
                0x000458b8                Curl_hash_delete
                0x00045c60                Curl_str_key_compare
                0x00045538                Curl_hash_init
                0x00045994                Curl_hash_pick
                0x00045cb8                Curl_hash_next_element
 .text          0x00045d60      0x8a4 ../lib/.libs/libcurl.a(libcurl_la-content_encoding.o)
                0x00046290                Curl_unencode_gzip_write
                0x00046094                Curl_unencode_deflate_write
                0x000465c8                Curl_unencode_cleanup
 .text          0x00046604      0x5dc ../lib/.libs/libcurl.a(libcurl_la-share.o)
                0x000469e8                curl_share_cleanup
                0x00046684                curl_share_setopt
                0x00046604                curl_share_init
                0x00046b80                Curl_share_unlock
                0x00046b20                Curl_share_lock
 .text          0x00046be0      0x344 ../lib/.libs/libcurl.a(libcurl_la-http_digest.o)
                0x00046be0                Curl_input_digest
                0x00046edc                Curl_digest_cleanup
                0x00046ca8                Curl_output_digest
 .text          0x00046f24      0x124 ../lib/.libs/libcurl.a(libcurl_la-hostip4.o)
                0x00046fac                Curl_ipv4_resolve_r
                0x00046f38                Curl_getaddrinfo
                0x00046f24                Curl_ipvalid
 .text          0x00047048       0x20 ../lib/.libs/libcurl.a(libcurl_la-hostsyn.o)
                0x00047060                Curl_set_dns_local_ip6
                0x00047050                Curl_set_dns_interface
                0x00047048                Curl_set_dns_servers
                0x00047058                Curl_set_dns_local_ip4
 .text          0x00047068     0x1d04 ../lib/.libs/libcurl.a(libcurl_la-tftp.o)
 .text          0x00048d6c      0xf00 ../lib/.libs/libcurl.a(libcurl_la-socks.o)
                0x00049368                Curl_SOCKS5
                0x00048d6c                Curl_blockread_all
                0x00048e68                Curl_SOCKS4
 .text          0x00049c6c      0x408 ../lib/.libs/libcurl.a(libcurl_la-curl_addrinfo.o)
                0x00049ce8                Curl_he2ai
                0x00049c6c                Curl_freeaddrinfo
                0x00049ec0                Curl_ip2addr
                0x0004a004                Curl_str2addr
 .text          0x0004a074       0x44 ../lib/.libs/libcurl.a(libcurl_la-curl_memrchr.o)
                0x0004a074                Curl_memrchr
 .text          0x0004a0b8     0x2f90 ../lib/.libs/libcurl.a(libcurl_la-imap.o)
 .text          0x0004d048     0x1cac ../lib/.libs/libcurl.a(libcurl_la-pop3.o)
                0x0004ea74                Curl_pop3_write
 .text          0x0004ecf4     0x210c ../lib/.libs/libcurl.a(libcurl_la-smtp.o)
                0x00050b6c                Curl_smtp_escape_eob
 .text          0x00050e00      0xa64 ../lib/.libs/libcurl.a(libcurl_la-pingpong.o)
                0x000510d0                Curl_pp_init
                0x00050ef0                Curl_pp_statemach
                0x000512b0                Curl_pp_sendf
                0x0005171c                Curl_pp_flushsend
                0x0005182c                Curl_pp_moredata
                0x000516dc                Curl_pp_getsock
                0x00050e00                Curl_pp_state_timeout
                0x00051344                Curl_pp_readresp
                0x0005113c                Curl_pp_vsendf
                0x000517d4                Curl_pp_disconnect
 .text          0x00051864     0x1254 ../lib/.libs/libcurl.a(libcurl_la-rtsp.o)
                0x000518d8                Curl_rtsp_connisdead
                0x00052860                Curl_rtsp_parseheader
 .text          0x00052ab8       0x80 ../lib/.libs/libcurl.a(libcurl_la-curl_gethostname.o)
                0x00052ab8                Curl_gethostname
 .text          0x00052b38      0x244 ../lib/.libs/libcurl.a(libcurl_la-gopher.o)
 .text          0x00052d7c      0xdc8 ../lib/.libs/libcurl.a(libcurl_la-http_proxy.o)
                0x00052ddc                Curl_proxy_connect
                0x00052f2c                Curl_proxyCONNECT
 .text          0x00053b44      0x40c ../lib/.libs/libcurl.a(libcurl_la-http_ntlm.o)
                0x00053ccc                Curl_output_ntlm
                0x00053f08                Curl_http_ntlm_cleanup
                0x00053b44                Curl_input_ntlm
 .text          0x00053f50      0xcd0 ../lib/.libs/libcurl.a(libcurl_la-curl_sasl.o)
                0x00053f7c                Curl_sasl_decode_mech
                0x000541f4                Curl_sasl_can_authenticate
                0x000541bc                Curl_sasl_init
                0x0005421c                Curl_sasl_start
                0x000540ec                Curl_sasl_parse_url_auth_option
                0x000546b0                Curl_sasl_continue
                0x00053f50                Curl_sasl_cleanup
 .text          0x00054c20      0x2d8 ../lib/.libs/libcurl.a(libcurl_la-dotdot.o)
                0x00054c20                Curl_dedotdotify
 .text          0x00054ef8     0x1750 ../lib/.libs/libcurl.a(libcurl_la-smb.o)
 .text          0x00056648      0x460 ../lib/.libs/libcurl.a(libcurl_la-curl_endian.o)
                0x00056a0c                Curl_write16_le
                0x00056648                Curl_read16_le
                0x00056840                Curl_read16_be
                0x00056a3c                Curl_write64_le
                0x0005665c                Curl_read32_le
                0x00056688                Curl_read64_le
                0x00056a1c                Curl_write32_le
                0x00056854                Curl_read32_be
                0x00056880                Curl_read64_be
 .text          0x00056aa8      0x24c ../lib/.libs/libcurl.a(libcurl_la-cleartext.o)
                0x00056c18                Curl_auth_create_login_message
                0x00056aa8                Curl_auth_create_plain_message
                0x00056cd4                Curl_auth_create_external_message
 .text          0x00056cf4      0x23c ../lib/.libs/libcurl.a(libcurl_la-cram.o)
                0x00056d78                Curl_auth_create_cram_md5_message
                0x00056cf4                Curl_auth_decode_cram_md5_message
 .text          0x00056f30     0x167c ../lib/.libs/libcurl.a(libcurl_la-digest.o)
                0x00058050                Curl_auth_create_digest_http_message
                0x00057598                Curl_auth_is_digest_supported
                0x00057bac                Curl_auth_decode_digest_http_message
                0x000584d8                Curl_auth_digest_cleanup
                0x000575a0                Curl_auth_create_digest_md5_message
                0x00056f30                Curl_auth_digest_get_pair
 .text          0x000585ac      0xadc ../lib/.libs/libcurl.a(libcurl_la-ntlm.o)
                0x00058898                Curl_auth_create_ntlm_type1_message
                0x000589ac                Curl_auth_create_ntlm_type3_message
                0x000586b4                Curl_auth_is_ntlm_supported
                0x00059030                Curl_auth_ntlm_cleanup
                0x000586bc                Curl_auth_decode_ntlm_type2_message
 .text          0x00059088      0x114 ../lib/.libs/libcurl.a(libcurl_la-oauth2.o)
                0x00059088                Curl_auth_create_oauth_bearer_message
 .text          0x0005919c     0x4d94 ../lib/.libs/libcurl.a(libcurl_la-openssl.o)
                0x0005a000                Curl_ossl_set_engine_default
                0x0005a418                Curl_ossl_close_all
                0x0005d8f0                Curl_ossl_connect
                0x0005a1d8                Curl_ossl_shutdown
                0x00059da0                Curl_ossl_init
                0x0005dcac                Curl_ossl_version
                0x0005d934                Curl_ossl_data_pending
                0x00059e20                Curl_ossl_check_cxn
                0x0005a17c                Curl_ossl_close
                0x0005d8c8                Curl_ossl_connect_nonblocking
                0x0005a094                Curl_ossl_engines_list
                0x0005de28                Curl_ossl_md5sum
                0x0005dda0                Curl_ossl_random
                0x00059ef4                Curl_ossl_set_engine
                0x0005a3f8                Curl_ossl_session_free
                0x0005dea8                Curl_ossl_sha256sum
                0x00059df0                Curl_ossl_cleanup
                0x0005df28                Curl_ossl_cert_status_request
 .text          0x0005df30      0xc68 ../lib/.libs/libcurl.a(libcurl_la-file.o)
 .text          0x0005eb98     0x6534 ../lib/.libs/libcurl.a(libcurl_la-ftp.o)
                0x0005f4ac                Curl_GetFTPResponse
                0x0006452c                Curl_ftpsend
 .text          0x000650cc       0xc8 ../lib/.libs/libcurl.a(libcurl_la-fileinfo.o)
                0x000650cc                Curl_fileinfo_alloc
                0x0006512c                Curl_fileinfo_dtor
 .text          0x00065194     0x15a0 ../lib/.libs/libcurl.a(libcurl_la-ftplistparser.o)
                0x00065194                Curl_ftp_parselist_data_alloc
                0x0006521c                Curl_ftp_parselist_geterror
                0x000651c8                Curl_ftp_parselist_data_free
                0x00065640                Curl_ftp_parselist
 .text          0x00066734      0x1d4 ../lib/.libs/libcurl.a(libcurl_la-md5.o)
                0x00066734                Curl_md5it
                0x000667b4                Curl_MD5_init
                0x00066888                Curl_MD5_final
                0x00066854                Curl_MD5_update
 .text          0x00066908      0x2a8 ../lib/.libs/libcurl.a(libcurl_la-hmac.o)
                0x00066b08                Curl_HMAC_final
                0x00066908                Curl_HMAC_init
                0x00066ad4                Curl_HMAC_update
 .text          0x00066bb0      0x858 ../lib/.libs/libcurl.a(libcurl_la-curl_ntlm_core.o)
                0x00067064                Curl_ntlm_core_mk_ntlmv2_hash
                0x00066fd4                Curl_hmac_md5
                0x00066ef4                Curl_ntlm_core_mk_nt_hash
                0x00066cb8                Curl_ntlm_core_lm_resp
                0x00067354                Curl_ntlm_core_mk_lmv2_resp
                0x00067160                Curl_ntlm_core_mk_ntlmv2_resp
                0x00066d70                Curl_ntlm_core_mk_lm_hash
 .text          0x00067408      0x298 ../lib/.libs/libcurl.a(libcurl_la-hostcheck.o)
                0x000675b8                Curl_cert_hostcheck
 .text          0x000676a0      0x134 ../lib/.libs/libcurl.a(libcurl_la-vauth.o)
                0x00067738                Curl_auth_user_contains_domain
                0x000676a0                Curl_auth_build_spn
 .text          0x000677d4      0xcd8 ../lib/.libs/libcurl.a(libcurl_la-curl_fnmatch.o)
                0x00068468                Curl_fnmatch
 .text          0x000684ac     0x39fc /usr/local/lib/libssl.a(s3_clnt.o)
                0x0006bcc8                ssl_do_client_cert_cb
                0x0006bc34                ssl3_get_server_done
                0x0006b8f4                ssl3_check_cert_and_algorithm
                0x00068fec                ssl3_get_server_hello
                0x0006b70c                ssl3_send_client_certificate
                0x0006b4d0                ssl3_send_client_verify
                0x00069540                ssl3_get_server_certificate
                0x0006a8f8                ssl3_get_new_session_ticket
                0x0006ab08                ssl3_get_cert_status
                0x00068d08                ssl3_client_hello
                0x000699fc                ssl3_get_key_exchange
                0x0006acf4                ssl3_send_client_key_exchange
                0x000684ac                ssl3_connect
                0x0006a564                ssl3_get_certificate_request
                0x0006bc28                SSLv3_client_method
 .text          0x0006bea8     0x1608 /usr/local/lib/libssl.a(s3_lib.o)
                0x0006cb54                sslv3_base_method
                0x0006cb60                ssl3_get_cipher_by_char
                0x0006d3ec                ssl3_ctx_callback_ctrl
                0x0006d238                ssl3_shutdown
                0x0006ccf0                ssl3_renegotiate
                0x0006ccc8                ssl3_get_cipher
                0x0006cc04                ssl3_get_req_cert_type
                0x0006cec0                ssl3_new
                0x0006cf48                ssl3_read
                0x0006ccc0                ssl3_num_ciphers
                0x0006d474                ssl3_pending
                0x0006bea8                ssl3_free
                0x0006c0b4                ssl3_ctrl
                0x0006bf90                ssl3_clear
                0x0006d110                ssl3_write
                0x0006c66c                ssl3_ctx_ctrl
                0x0006cbcc                ssl3_put_cipher_by_char
                0x0006d4a8                ssl3_default_timeout
                0x0006d02c                ssl3_peek
                0x0006cdc4                ssl3_choose_cipher
                0x0006d328                ssl3_callback_ctrl
                0x0006cd2c                ssl3_renegotiate_check
 .text          0x0006d4b0     0x1278 /usr/local/lib/libssl.a(s3_enc.o)
                0x0006e098                ssl3_generate_master_secret
                0x0006e404                ssl3_init_finished_mac
                0x0006e4d0                ssl3_final_finish_mac
                0x0006e5b4                ssl3_record_sequence_update
                0x0006e538                ssl3_cert_verify_mac
                0x0006e1d4                ssl3_alert_code
                0x0006df10                ssl3_mac
                0x0006d6a8                ssl3_change_cipher_state
                0x0006dd3c                ssl3_enc
                0x0006db9c                ssl3_setup_key_block
                0x0006e46c                ssl3_cleanup_key_block
                0x0006e564                ssl3_finish_mac
 .text          0x0006e728     0x198c /usr/local/lib/libssl.a(s3_pkt.o)
                0x0006fde4                ssl3_send_alert
                0x0006f208                ssl3_read_bytes
                0x0006fec4                ssl3_write_bytes
                0x00070050                ssl3_do_uncompress
                0x0006fba4                ssl3_do_change_cipher_spec
                0x0006ffec                ssl3_do_compress
                0x0006e728                ssl3_read_n
                0x0006fcdc                ssl3_dispatch_alert
                0x0006f0ac                ssl3_write_pending
 .text          0x000700b4      0xe18 /usr/local/lib/libssl.a(s3_both.o)
                0x00070554                ssl3_get_message
                0x00070d0c                ssl3_do_write
                0x000700b4                ssl3_send_finished
                0x0007021c                ssl3_output_cert_chain
                0x00070c20                ssl3_send_change_cipher_spec
                0x00070b0c                ssl3_get_finished
                0x000709d0                ssl_verify_alarm_type
                0x00070de8                ssl3_setup_buffers
                0x00070934                ssl_cert_type
 .text          0x00070ecc      0xc48 /usr/local/lib/libssl.a(s23_clnt.o)
                0x00071ab8                SSLv23_client_method
                0x00070ecc                ssl23_connect
 .text          0x00071b14      0x330 /usr/local/lib/libssl.a(s23_lib.o)
                0x00071dac                ssl23_put_cipher_by_char
                0x00071c4c                ssl23_peek
                0x00071cfc                ssl23_write
                0x00071b20                ssl23_num_ciphers
                0x00071b54                ssl23_get_cipher
                0x00071e3c                ssl23_default_timeout
                0x00071dd4                ssl23_get_cipher_by_char
                0x00071b14                sslv23_base_method
                0x00071b9c                ssl23_read
 .text          0x00071e44      0x108 /usr/local/lib/libssl.a(s23_pkt.o)
                0x00071ec8                ssl23_write_bytes
                0x00071e44                ssl23_read_bytes
 .text          0x00071f4c       0x3c /usr/local/lib/libssl.a(t1_clnt.o)
                0x00071f4c                TLSv1_client_method
 .text          0x00071f88     0x120c /usr/local/lib/libssl.a(t1_lib.o)
                0x000730e0                tls1_new
                0x00072a60                ssl_check_clienthello_tlsext
                0x00072d1c                tls1_process_ticket
                0x00073154                tls1_clear
                0x00072870                ssl_parse_serverhello_tlsext
                0x00073188                tlsv1_base_method
                0x00073134                tls1_free
                0x00072458                ssl_parse_clienthello_tlsext
                0x00071f88                ssl_add_clienthello_tlsext
                0x0007231c                ssl_add_serverhello_tlsext
                0x000730d8                tls1_default_timeout
                0x00072bbc                ssl_check_serverhello_tlsext
 .text          0x00073194     0x1700 /usr/local/lib/libssl.a(t1_enc.o)
                0x00074834                tls1_cert_verify_mac
                0x00073de4                tls1_enc
                0x000734e8                tls1_change_cipher_state
                0x0007445c                tls1_alert_code
                0x000742e4                tls1_generate_master_secret
                0x000746e4                tls1_final_finish_mac
                0x00073c14                tls1_setup_key_block
                0x000740d0                tls1_mac
 .text          0x00074894     0x40ac /usr/local/lib/libssl.a(ssl_lib.o)
                0x00078028                SSL_CTX_set_tmp_rsa_callback
                0x000780f8                SSL_CTX_set_tmp_ecdh_callback
                0x00077358                SSL_check_private_key
                0x00077f10                SSL_set_ex_data
                0x00076d80                SSL_get_rbio
                0x00075cd4                check_srvr_ecc_cert_and_alg
                0x0007805c                SSL_set_tmp_rsa_callback
                0x00076c00                SSL_set_fd
                0x00077cd4                SSL_set_connect_state
                0x000756f8                SSL_CTX_free
                0x00076810                SSL_get_peer_finished
                0x00077ef8                SSL_state
                0x00077b88                SSL_shutdown
                0x00077958                SSL_CTX_callback_ctrl
                0x000760d0                SSL_dup
                0x0007826c                ssl_cipher_id_cmp
                0x00077e04                SSL_CTX_set_default_verify_paths
                0x00077ddc                SSL_set_quiet_shutdown
                0x00077424                SSL_CTX_set_session_id_context
                0x00076744                SSL_get_servername
                0x00075ef4                SSL_get_error
                0x00076fac                SSL_SESSION_cmp
                0x00076968                SSL_get_fd
                0x00077694                SSL_peek
                0x00077df4                SSL_get_shutdown
                0x00077614                SSL_read
                0x00078730                ssl_get_ciphers_by_id
                0x00074a28                SSL_new
                0x00076774                SSL_get_servername_type
                0x00074894                SSL_clear
                0x000753a4                SSL_CTX_new
                0x00076734                SSL_set_msg_callback
                0x00074eb8                SSL_set_wfd
                0x00075820                ssl_set_cert_masks
                0x00076e0c                SSL_get_verify_mode
                0x000767a8                SSL_get_finished
                0x00077f9c                SSL_CTX_set_ex_data
                0x000772b4                SSL_CTX_set_default_passwd_cb
                0x000769d4                SSL_get_wfd
                0x000770bc                SSL_has_matching_session_id
                0x00077e54                SSL_set_SSL_CTX
                0x00077dcc                SSL_CTX_set_quiet_shutdown
                0x00076f80                SSL_SESSION_hash
                0x00077270                SSL_CTX_get_verify_callback
                0x0007817c                SSL_get_current_expansion
                0x00077e28                SSL_CTX_load_verify_locations
                0x00076bd4                SSL_pending
                0x000779e4                SSL_CTX_set_ssl_version
                0x00077278                SSL_CTX_set_verify
                0x00077558                SSL_set_trust
                0x00076a20                SSL_get_cipher_list
                0x00076e40                SSL_set_verify
                0x00077dac                SSL_get_privatekey
                0x00077dd4                SSL_CTX_get_quiet_shutdown
                0x00077510                SSL_set_purpose
                0x000782c4                ssl_bytes_to_cipher_list
                0x000780c4                SSL_set_tmp_dh_callback
                0x00077b78                SSL_renegotiate_pending
                0x00076ce4                SSL_set_bio
                0x00077998                SSL_get_version
                0x00076988                SSL_get_rfd
                0x00075e00                ssl_get_server_send_cert
                0x00078294                ssl_cipher_ptr_id_cmp
                0x00077fe4                SSL_CTX_get_ex_new_index
                0x00077918                SSL_callback_ctrl
                0x00078864                ssl_free_wbio_buffer
                0x00077de4                SSL_get_quiet_shutdown
                0x00077488                SSL_set_session_id_context
                0x00077d8c                SSL_get_certificate
                0x00078694                ssl_get_sign_pkey
                0x00076d90                SSL_set_cipher_list
                0x000772a8                SSL_CTX_set_cert_verify_callback
                0x00076878                SSL_CTX_set_cipher_list
                0x00076d88                SSL_get_wbio
                0x00077dec                SSL_set_shutdown
                0x0007812c                SSL_set_tmp_ecdh_callback
                0x00077b38                SSL_renegotiate
                0x00077e4c                SSL_get_SSL_CTX
                0x00075048                SSL_set_rfd
                0x00078658                ssl_undefined_const_function
                0x00077ef0                SSL_get_info_callback
                0x00076e14                SSL_get_verify_depth
                0x00077c14                SSL_get_ssl_method
                0x000784c0                ssl_update_cache
                0x000781d4                ssl_clear_cipher_ctx
                0x00078410                ssl_cipher_list_to_bytes
                0x00076e54                SSL_set_verify_depth
                0x0007757c                SSL_accept
                0x00077534                SSL_CTX_set_trust
                0x000751d0                SSL_CTX_ctrl
                0x00077dfc                SSL_version
                0x000774ec                SSL_CTX_set_purpose
                0x00076bcc                SSL_get_read_ahead
                0x00076e04                SSL_set_read_ahead
                0x0007861c                ssl_undefined_void_function
                0x00077d60                SSL_get_default_timeout
                0x000768ec                SSL_CTX_get_cert_store
                0x00077a90                SSL_do_handshake
                0x0007672c                SSL_CTX_set_msg_callback
                0x000785e0                ssl_undefined_function
                0x00077790                SSL_ctrl
                0x00077f34                SSL_get_ex_data
                0x00078764                ssl_init_wbio_buffer
                0x0007705c                SSL_set_generate_session_id
                0x00077d18                SSL_set_accept_state
                0x00076ffc                SSL_CTX_set_generate_session_id
                0x0007673c                SSL_CTX_sessions
                0x0007693c                SSL_get_current_cipher
                0x00077f58                SSL_get_ex_new_index
                0x00078160                SSL_get_current_compression
                0x00076934                SSL_want
                0x000772c4                SSL_CTX_check_private_key
                0x00078090                SSL_CTX_set_tmp_dh_callback
                0x00077a5c                SSL_get_ciphers
                0x00077ee8                SSL_set_info_callback
                0x000775c8                SSL_connect
                0x00076e38                SSL_get_verify_callback
                0x00074cec                SSL_free
                0x00076e78                SSL_copy_session_id
                0x00076ac8                SSL_get_shared_ciphers
                0x000772bc                SSL_CTX_set_default_passwd_cb_userdata
                0x000768f4                SSL_CTX_set_cert_store
                0x000788bc                ssl_ok
                0x000771a0                SSL_get_peer_certificate
                0x00077f08                SSL_get_verify_result
                0x00077f00                SSL_set_verify_result
                0x00077284                SSL_CTX_set_verify_depth
                0x0007724c                SSL_CTX_get_verify_depth
                0x00078198                ssl_bad_method
                0x00077c1c                SSL_set_ssl_method
                0x00077fc0                SSL_CTX_get_ex_data
                0x00077214                SSL_get_peer_cert_chain
                0x00077704                SSL_write
                0x00077244                SSL_CTX_get_verify_mode
 .text          0x00078940       0x24 /usr/local/lib/libssl.a(ssl_err2.o)
                0x00078940                SSL_load_error_strings
 .text          0x00078964     0x1130 /usr/local/lib/libssl.a(ssl_cert.o)
                0x00078964                ssl_cert_dup
                0x00078e78                SSL_load_client_CA_file
                0x00079428                SSL_CTX_get_client_CA_list
                0x00079340                SSL_set_client_CA_list
                0x000791b4                SSL_add_dir_cert_subjects_to_stack
                0x00079050                SSL_add_file_cert_subjects_to_stack
                0x00079550                SSL_dup_CA_list
                0x00079914                ssl_sess_cert_new
                0x00079760                ssl_cert_inst
                0x0007999c                ssl_sess_cert_free
                0x000794c0                SSL_CTX_add_client_CA
                0x000795e4                SSL_get_ex_data_X509_STORE_CTX_idx
                0x00079a60                ssl_set_peer_cert_type
                0x00079430                SSL_add_client_CA
                0x00079850                ssl_cert_free
                0x000796d8                ssl_cert_new
                0x00078c68                ssl_verify_cert_chain
                0x00079388                SSL_CTX_set_client_CA_list
                0x000793d0                SSL_get_client_CA_list
 .text          0x00079a94     0x14ac /usr/local/lib/libssl.a(ssl_sess.o)
                0x0007a6e8                SSL_CTX_set_info_callback
                0x0007a708                SSL_CTX_set_client_cert_engine
                0x0007a6e0                SSL_CTX_sess_get_get_cb
                0x0007a148                SSL_CTX_add_session
                0x0007a8e8                SSL_SESSION_new
                0x0007a6d0                SSL_CTX_sess_get_remove_cb
                0x00079dfc                ssl_get_prev_session
                0x00079a94                ssl_get_new_session
                0x0007aac8                SSL_get_session
                0x0007abcc                ssl_clear_bad_session
                0x0007ab40                SSL_SESSION_set_ex_data
                0x0007ab88                SSL_SESSION_get_ex_new_index
                0x0007a7b8                SSL_CTX_set_timeout
                0x0007a898                SSL_SESSION_set_time
                0x0007a7ec                SSL_CTX_flush_sessions
                0x0007a9bc                SSL_SESSION_free
                0x0007a9a4                SSL_SESSION_get_id
                0x0007a880                SSL_SESSION_get_time
                0x0007a6b8                SSL_CTX_sess_set_new_cb
                0x0007a8cc                SSL_SESSION_set_timeout
                0x0007a6c8                SSL_CTX_sess_set_remove_cb
                0x0007a7a8                SSL_CTX_set_cookie_generate_cb
                0x0007a700                SSL_CTX_get_client_cert_cb
                0x0007aad0                SSL_get1_session
                0x0007a7b0                SSL_CTX_set_cookie_verify_cb
                0x0007a7d4                SSL_CTX_get_timeout
                0x0007a2a8                SSL_set_session
                0x0007a6d8                SSL_CTX_sess_set_get_cb
                0x0007a8b4                SSL_SESSION_get_timeout
                0x0007a6f0                SSL_CTX_get_info_callback
                0x0007ab64                SSL_SESSION_get_ex_data
                0x0007aaa4                SSL_CTX_remove_session
                0x0007a6c0                SSL_CTX_sess_get_new_cb
                0x0007a6f8                SSL_CTX_set_client_cert_cb
 .text          0x0007af40     0x1a9c /usr/local/lib/libssl.a(ssl_ciph.o)
                0x0007bd98                ssl_create_cipher_list
                0x0007c8fc                SSL_COMP_get_name
                0x0007c914                SSL_COMP_get_compression_methods
                0x0007c180                SSL_CIPHER_description
                0x0007c734                SSL_COMP_add_compression_method
                0x0007b18c                ssl_cipher_get_evp
                0x0007c8e0                SSL_CIPHER_get_name
                0x0007c93c                ssl3_comp_find
                0x0007af40                ssl_load_ciphers
                0x0007c894                SSL_CIPHER_get_version
                0x0007c870                SSL_CIPHER_get_bits
 .text          0x0007c9dc     0x1778 /usr/local/lib/libssl.a(ssl_rsa.o)
                0x0007c9dc                SSL_use_certificate_file
                0x0007cca8                SSL_use_RSAPrivateKey_file
                0x0007e010                SSL_CTX_use_certificate
                0x0007db00                SSL_use_PrivateKey_ASN1
                0x0007ce80                SSL_use_PrivateKey_file
                0x0007da74                SSL_use_PrivateKey
                0x0007d30c                SSL_CTX_use_RSAPrivateKey_file
                0x0007d974                SSL_use_RSAPrivateKey_ASN1
                0x0007e09c                SSL_CTX_use_certificate_ASN1
                0x0007df5c                SSL_CTX_use_PrivateKey_ASN1
                0x0007ddd0                SSL_CTX_use_RSAPrivateKey_ASN1
                0x0007ded0                SSL_CTX_use_PrivateKey
                0x0007d898                SSL_use_RSAPrivateKey
                0x0007dbb4                SSL_use_certificate
                0x0007dc40                SSL_use_certificate_ASN1
                0x0007d668                SSL_CTX_use_certificate_chain_file
                0x0007d4e0                SSL_CTX_use_PrivateKey_file
                0x0007d168                SSL_CTX_use_certificate_file
                0x0007dcf4                SSL_CTX_use_RSAPrivateKey
 .text          0x0007e154     0x1544 /usr/local/lib/libssl.a(ssl_asn1.o)
                0x0007e804                d2i_SSL_SESSION
                0x0007e154                i2d_SSL_SESSION
 .text          0x0007f698      0x150 /usr/local/lib/libssl.a(ssl_algs.o)
                0x0007f698                SSL_library_init
 .text          0x0007f7e8      0xe24 /usr/local/lib/libssl.a(bio_ssl.o)
                0x00080300                BIO_new_buffer_ssl_connect
                0x00080384                BIO_ssl_copy_session_id
                0x00080410                BIO_ssl_shutdown
                0x000801d8                BIO_new_ssl
                0x000801cc                BIO_f_ssl
                0x00080270                BIO_new_ssl_connect
 .text          0x0008060c       0x58 /usr/local/lib/libssl.a(ssl_err.o)
                0x0008060c                ERR_load_SSL_strings
 .text          0x00080664     0x1abc /usr/local/lib/libssl.a(s2_clnt.o)
                0x00081f40                SSLv2_client_method
                0x00081d68                ssl2_set_certificate
                0x00080664                ssl2_connect
 .text          0x00082120      0x5ec /usr/local/lib/libssl.a(s2_lib.o)
                0x00082348                ssl2_put_cipher_by_char
                0x00082120                ssl2_generate_key_material
                0x00082624                ssl2_clear
                0x000824c8                ssl2_new
                0x000826a8                ssl2_ctx_ctrl
                0x000824a0                ssl2_get_cipher
                0x000822d0                ssl2_get_cipher_by_char
                0x000823c0                ssl2_write_error
                0x000822c4                sslv2_base_method
                0x00082690                ssl2_ctrl
                0x000826b8                ssl2_ctx_callback_ctrl
                0x00082388                ssl2_return_error
                0x000826b0                ssl2_callback_ctrl
                0x00082614                ssl2_shutdown
                0x000826c0                ssl2_pending
                0x000825a8                ssl2_free
                0x00082704                ssl2_default_timeout
                0x00082498                ssl2_num_ciphers
 .text          0x0008270c      0x3a4 /usr/local/lib/libssl.a(s2_enc.o)
                0x0008270c                ssl2_enc_init
                0x000829c4                ssl2_mac
                0x00082950                ssl2_enc
 .text          0x00082ab0      0xfe4 /usr/local/lib/libssl.a(s2_pkt.o)
                0x00083654                ssl2_do_write
                0x000838c8                ssl2_read
                0x000838ec                ssl2_peek
                0x00083910                ssl2_write
                0x00083810                ssl2_part_read
 .text          0x00083a94      0x340 /usr/local/lib/libcrypto.a(cryptlib.o)
                0x00083d74                int_CRYPTO_set_do_dynlock_callback
                0x00083b3c                CRYPTO_num_locks
                0x00083bcc                CRYPTO_set_id_callback
                0x00083a94                OPENSSL_showfatal
                0x00083db8                OPENSSL_isservice
                0x00083b44                CRYPTO_lock
                0x00083be4                CRYPTO_thread_id
                0x00083c48                CRYPTO_add_lock
                0x00083dc4                OPENSSL_stderr
                0x00083bb4                CRYPTO_set_add_lock_callback
                0x00083bd8                CRYPTO_get_id_callback
                0x00083d80                OpenSSLDie
                0x00083b9c                CRYPTO_set_locking_callback
                0x00083dc0                OPENSSL_cpuid_setup
                0x00083db0                OPENSSL_ia32cap_loc
                0x00083bc0                CRYPTO_get_add_lock_callback
                0x00083ba8                CRYPTO_get_locking_callback
 .text          0x00083dd4      0xd64 /usr/local/lib/libcrypto.a(mem.o)
                0x00084a78                CRYPTO_remove_all_info
                0x00084598                CRYPTO_get_mem_ex_functions
                0x000846cc                CRYPTO_malloc_locked
                0x000844b0                CRYPTO_set_mem_info_functions
                0x0008498c                CRYPTO_set_mem_debug_options
                0x00084464                CRYPTO_set_mem_debug_functions
                0x000847b8                CRYPTO_free_locked
                0x00084918                CRYPTO_free
                0x000849fc                CRYPTO_push_info_
                0x0008411c                CRYPTO_remalloc
                0x00084370                CRYPTO_set_mem_ex_functions
                0x00083f5c                CRYPTO_realloc_clean
                0x000844cc                CRYPTO_get_mem_functions
                0x00084618                CRYPTO_get_locked_mem_ex_functions
                0x0008425c                CRYPTO_set_mem_functions
                0x000849c0                CRYPTO_get_mem_debug_options
                0x00084a3c                CRYPTO_pop_info
                0x00084664                CRYPTO_get_mem_debug_functions
                0x0008454c                CRYPTO_get_locked_mem_functions
                0x00084310                CRYPTO_set_locked_mem_functions
                0x0008440c                CRYPTO_set_locked_mem_ex_functions
                0x0008482c                CRYPTO_malloc
                0x00083dd4                CRYPTO_realloc
 .text          0x00084b38       0x84 /usr/local/lib/libcrypto.a(mem_clr.o)
                0x00084b38                OPENSSL_cleanse
 .text          0x00084bbc     0x10f0 /usr/local/lib/libcrypto.a(mem_dbg.o)
                0x00085a88                CRYPTO_mem_leaks_fp
                0x00085150                CRYPTO_dbg_malloc
                0x00085a7c                CRYPTO_dbg_get_options
                0x00085a70                CRYPTO_dbg_set_options
                0x00085b08                CRYPTO_mem_leaks_cb
                0x00084ea8                CRYPTO_dbg_pop_info
                0x00085388                CRYPTO_dbg_free
                0x0008580c                CRYPTO_malloc_debug_init
                0x00085954                CRYPTO_dbg_realloc
                0x00084d58                CRYPTO_dbg_push_info
                0x000856dc                CRYPTO_mem_leaks
                0x00084ff8                CRYPTO_dbg_remove_all_info
                0x00085870                CRYPTO_is_mem_check_on
                0x00084bbc                CRYPTO_mem_ctrl
                0x00085900                CRYPTO_strdup
 .text          0x00085cac       0xfc /usr/local/lib/libcrypto.a(cversion.o)
                0x00085cac                SSLeay_version
                0x00085d9c                SSLeay
 .text          0x00085da8      0xf64 /usr/local/lib/libcrypto.a(ex_data.o)
                0x0008641c                CRYPTO_get_ex_data_implementation
                0x000864a0                CRYPTO_set_ex_data_implementation
                0x00086930                CRYPTO_get_ex_data
                0x000865a4                CRYPTO_get_ex_new_index
                0x0008670c                CRYPTO_dup_ex_data
                0x0008685c                CRYPTO_set_ex_data
                0x00086990                CRYPTO_cleanup_all_ex_data
                0x00086664                CRYPTO_new_ex_data
                0x000867b4                CRYPTO_free_ex_data
                0x00086514                CRYPTO_ex_data_new_class
 .text          0x00086d0c      0x190 /usr/local/lib/libcrypto.a(o_dir.o)
                0x00086d0c                OPENSSL_DIR_read
                0x00086e28                OPENSSL_DIR_end
 .text          0x00086e9c      0x900 /usr/local/lib/libcrypto.a(o_names.o)
                0x00087014                OBJ_NAME_get
                0x000870fc                OBJ_NAME_add
                0x00087358                OBJ_NAME_remove
                0x00087494                OBJ_NAME_do_all
                0x00087400                OBJ_NAME_cleanup
                0x000874d4                OBJ_NAME_do_all_sorted
                0x00086e9c                OBJ_NAME_new_index
                0x000872ec                OBJ_NAME_init
 .text          0x0008779c     0x15d4 /usr/local/lib/libcrypto.a(obj_dat.o)
                0x000889ec                OBJ_create
                0x0008877c                OBJ_ln2nid
                0x00088528                OBJ_nid2sn
                0x000889d4                OBJ_new_nid
                0x00088818                OBJ_sn2nid
                0x00087c20                OBJ_obj2txt
                0x000886b0                OBJ_txt2nid
                0x00088140                OBJ_create_objects
                0x00088368                OBJ_nid2obj
                0x00088444                OBJ_nid2ln
                0x00088608                OBJ_obj2nid
                0x000888b4                OBJ_bsearch
                0x00087a74                OBJ_txt2obj
                0x00088ae8                OBJ_cleanup
                0x00087878                OBJ_add_object
                0x000888d8                OBJ_bsearch_ex
 .text          0x00088d70      0x1e8 /usr/local/lib/libcrypto.a(obj_lib.o)
                0x00088d70                OBJ_dup
                0x00088f1c                OBJ_cmp
 .text          0x00088f58      0xbc0 /usr/local/lib/libcrypto.a(md4_dgst.o)
                0x00088f58                MD4_Update
                0x000890a8                MD4_Final
                0x00089af4                MD4_Transform
                0x00089220                md4_block_data_order
                0x00089aa8                MD4_Init
 .text          0x00089b18      0xec0 /usr/local/lib/libcrypto.a(md5_dgst.o)
                0x00089de0                md5_block_data_order
                0x0008a968                MD5_Init
                0x0008a9b4                MD5_Transform
                0x00089c68                MD5_Final
                0x00089b18                MD5_Update
 .text          0x0008a9d8     0x1e6c /usr/local/lib/libcrypto.a(sha256.o)
                0x0008c594                SHA224_Update
                0x0008c5d4                SHA224
                0x0008a9d8                SHA256_Update
                0x0008c500                SHA224_Init
                0x0008ab28                SHA256_Final
                0x0008c820                SHA256_Transform
                0x0008c5b4                SHA224_Final
                0x0008c6b0                SHA256_Init
                0x0008c744                SHA256
 .text          0x0008c844      0x4ec /usr/local/lib/libcrypto.a(hmac.o)
                0x0008cb48                HMAC_Final
                0x0008c844                HMAC_Init_ex
                0x0008cbc4                HMAC
                0x0008cce4                HMAC_CTX_set_flags
                0x0008ca68                HMAC_CTX_cleanup
                0x0008cabc                HMAC_Init
                0x0008cb24                HMAC_Update
                0x0008ca28                HMAC_CTX_init
 .text          0x0008cd30      0x488 /usr/local/lib/libcrypto.a(set_key.o)
                0x0008cfa8                DES_set_odd_parity
                0x0008cd30                DES_set_key_unchecked
                0x0008cfd4                DES_check_key_parity
                0x0008d010                DES_is_weak_key
                0x0008d074                DES_set_key
                0x0008d0ec                DES_set_key_checked
                0x0008d0b0                DES_key_sched
 .text          0x0008d1b8       0xe8 /usr/local/lib/libcrypto.a(ecb_enc.o)
                0x0008d1b8                DES_ecb_encrypt
 .text          0x0008d2a0     0x37e4 /usr/local/lib/libcrypto.a(des_enc.o)
                0x00090770                DES_encrypt3
                0x000908f8                DES_decrypt3
                0x0008d2a0                DES_encrypt1
                0x0008e5d4                DES_encrypt2
                0x0008fd10                DES_ede3_cbc_encrypt
                0x0008f7d8                DES_ncbc_encrypt
 .text          0x00090a84     0x12d8 /usr/local/lib/libcrypto.a(bn_lib.o)
                0x000918d8                BN_clear_bit
                0x00091b44                bn_dup_expand
                0x00091598                BN_set_negative
                0x00091384                BN_num_bits_word
                0x00090de4                BN_bin2bn
                0x000912dc                BN_value_one
                0x00090ff8                BN_bn2bin
                0x00091674                BN_get_word
                0x000915c4                BN_set_word
                0x000912e8                BN_num_bits
                0x00091984                BN_set_params
                0x0009151c                BN_swap
                0x000911c8                BN_set_bit
                0x00091824                BN_clear
                0x000916a0                BN_free
                0x0009170c                BN_is_bit_set
                0x00091ae0                bn_expand2
                0x00091760                BN_mask_bits
                0x00090cbc                BN_copy
                0x00090bc4                BN_dup
                0x00091c80                bn_cmp_part_words
                0x00091a88                BN_get_params
                0x00091474                BN_init
                0x00091874                BN_ucmp
                0x000914a0                BN_clear_free
                0x000913f4                BN_new
                0x00091c20                bn_cmp_words
                0x000910f0                BN_cmp
 .text          0x00091d5c      0x664 /usr/local/lib/libcrypto.a(bn_ctx.o)
                0x00091e78                BN_CTX_new
                0x0009200c                BN_CTX_get
                0x000920a4                BN_CTX_end
                0x00091f84                BN_CTX_start
                0x00091efc                BN_CTX_init
                0x00091f40                BN_CTX_free
 .text          0x000923c0      0x944 /usr/local/lib/libcrypto.a(bn_print.o)
                0x00092ba0                BN_print_fp
                0x00092c10                BN_print
                0x00092754                BN_hex2bn
                0x000924dc                BN_bn2dec
                0x00092984                BN_dec2bn
                0x000923c0                BN_bn2hex
 .text          0x00092d04      0x560 /usr/local/lib/libcrypto.a(bn_shift.o)
                0x00092fc0                BN_rshift
                0x00092d04                BN_rshift1
                0x00093158                BN_lshift1
                0x00092e1c                BN_lshift
 .text          0x00093264      0x498 /usr/local/lib/libcrypto.a(bn_word.o)
                0x0009364c                BN_mul_word
                0x000933a0                BN_sub_word
                0x00093564                BN_div_word
                0x000934d8                BN_mod_word
                0x00093264                BN_add_word
 .text          0x000936fc     0x77a8 /usr/local/lib/libcrypto.a(bn_asm.o)
                0x00093a0c                bn_mul_words
                0x00094128                bn_mul_comba8
                0x000936fc                bn_mul_add_words
                0x00093dd4                bn_div_words
                0x00094040                bn_sub_words
                0x000984b4                bn_sqr_comba8
                0x0009a670                bn_sqr_comba4
                0x00093c78                bn_sqr_words
                0x000978cc                bn_mul_comba4
                0x00093f48                bn_add_words
 .text          0x0009aea4     0x1f0c /usr/local/lib/libcrypto.a(ec_lib.o)
                0x0009ca9c                EC_EX_DATA_set_data
                0x0009ba48                EC_GROUP_get_asn1_flag
                0x0009b990                EC_GROUP_get_order
                0x0009c798                EC_POINT_cmp
                0x0009bff0                EC_POINT_set_Jprojective_coordinates_GFp
                0x0009cce8                EC_EX_DATA_free_all_data
                0x0009c070                EC_POINT_get_Jprojective_coordinates_GFp
                0x0009c718                EC_POINT_is_on_curve
                0x0009b988                EC_GROUP_get0_generator
                0x0009ca48                EC_GROUP_have_precompute_mult
                0x0009c990                EC_POINT_mul
                0x0009c824                EC_POINT_make_affine
                0x0009ba30                EC_GROUP_set_curve_name
                0x0009cb80                EC_EX_DATA_get_data
                0x0009c698                EC_POINT_is_at_infinity
                0x0009b7c8                EC_GROUP_dup
                0x0009cc58                EC_EX_DATA_clear_free_data
                0x0009b684                EC_GROUP_free
                0x0009cbc8                EC_EX_DATA_free_data
                0x0009be58                EC_POINT_clear_free
                0x0009c588                EC_POINT_dbl
                0x0009ba70                EC_GROUP_set_seed
                0x0009aea4                EC_GROUP_new
                0x0009ba38                EC_GROUP_get_curve_name
                0x0009c470                EC_POINT_oct2point
                0x0009bd28                EC_POINT_new
                0x0009ba68                EC_GROUP_get_seed_len
                0x0009c3f0                EC_POINT_point2oct
                0x0009be08                EC_POINT_free
                0x0009c1f0                EC_POINT_set_compressed_coordinates_GFp
                0x0009c370                EC_POINT_set_compressed_coordinates_GF2m
                0x0009bf70                EC_POINT_set_to_infinity
                0x0009bc78                EC_GROUP_get_degree
                0x0009c0f0                EC_POINT_set_affine_coordinates_GFp
                0x0009bbc8                EC_GROUP_set_curve_GF2m
                0x0009cd4c                EC_EX_DATA_clear_free_all_data
                0x0009c954                EC_POINTs_mul
                0x0009ba58                EC_GROUP_get_point_conversion_form
                0x0009c2f0                EC_POINT_get_affine_coordinates_GF2m
                0x0009ba50                EC_GROUP_set_point_conversion_form
                0x0009bb70                EC_GROUP_get_curve_GFp
                0x0009bf68                EC_POINT_method_of
                0x0009c614                EC_POINT_invert
                0x0009b1d0                EC_GROUP_cmp
                0x0009afb0                EC_GROUP_copy
                0x0009bed8                EC_POINT_copy
                0x0009c170                EC_POINT_get_affine_coordinates_GFp
                0x0009c4f0                EC_POINT_add
                0x0009b888                EC_GROUP_method_of
                0x0009b70c                EC_GROUP_clear_free
                0x0009ba40                EC_GROUP_set_asn1_flag
                0x0009bc20                EC_GROUP_get_curve_GF2m
                0x0009ba60                EC_GROUP_get0_seed
                0x0009b9e0                EC_GROUP_get_cofactor
                0x0009b898                EC_GROUP_set_generator
                0x0009bb18                EC_GROUP_set_curve_GFp
                0x0009b4c0                EC_POINT_dup
                0x0009bcd0                EC_GROUP_check_discriminant
                0x0009c9f4                EC_GROUP_precompute_mult
                0x0009c270                EC_POINT_set_affine_coordinates_GF2m
                0x0009b890                EC_METHOD_get_field_type
                0x0009c8a4                EC_POINTs_make_affine
 .text          0x0009cdb0     0x1600 /usr/local/lib/libcrypto.a(ec_mult.o)
                0x0009d0b0                ec_wNAF_mul
                0x0009dc3c                ec_wNAF_precompute_mult
                0x0009e1e8                ec_wNAF_have_precompute_mult
 .text          0x0009e3b0      0x53c /usr/local/lib/libcrypto.a(ec_curve.o)
                0x0009e850                EC_get_builtin_curves
                0x0009e7a0                EC_GROUP_new_by_curve_name
 .text          0x0009e8ec      0xb74 /usr/local/lib/libcrypto.a(ec_key.o)
                0x0009f040                EC_KEY_new_by_curve_name
                0x0009eaa0                EC_KEY_dup
                0x0009f244                EC_KEY_set_private_key
                0x0009f2a0                EC_KEY_set_public_key
                0x0009f1e8                EC_KEY_set_group
                0x0009ed60                EC_KEY_check_key
                0x0009efb0                EC_KEY_new
                0x0009e8ec                EC_KEY_copy
                0x0009f298                EC_KEY_get0_public_key
                0x0009f310                EC_KEY_set_conv_form
                0x0009f308                EC_KEY_get_conv_form
                0x0009f400                EC_KEY_set_asn1_flag
                0x0009f300                EC_KEY_set_enc_flags
                0x0009ebd4                EC_KEY_generate_key
                0x0009f19c                EC_KEY_up_ref
                0x0009f344                EC_KEY_get_key_method_data
                0x0009f1e0                EC_KEY_get0_group
                0x0009f2f8                EC_KEY_get_enc_flags
                0x0009f100                EC_KEY_free
                0x0009f368                EC_KEY_insert_key_method_data
                0x0009f23c                EC_KEY_get0_private_key
                0x0009f42c                EC_KEY_precompute_mult
 .text          0x0009f460      0x47c /usr/local/lib/libcrypto.a(rsa_lib.o)
                0x0009f7b0                RSA_public_decrypt
                0x0009f7dc                RSA_private_decrypt
                0x0009f758                RSA_public_encrypt
                0x0009f808                RSA_blinding_on
                0x0009f88c                RSA_blinding_off
                0x0009f784                RSA_private_encrypt
                0x0009f460                RSA_setup_blinding
                0x0009f720                RSA_size
 .text          0x0009f8dc      0x55c /usr/local/lib/libcrypto.a(rsa_sign.o)
                0x0009f8dc                RSA_sign
                0x0009fb0c                RSA_verify
 .text          0x0009fe38      0x170 /usr/local/lib/libcrypto.a(rsa_asn1.o)
                0x0009febc                i2d_RSAPrivateKey
                0x0009fe94                d2i_RSAPrivateKey
                0x0009fe38                RSAPrivateKey_asn1_meth
                0x0009fe6c                i2d_RSAPublicKey
                0x0009ff10                RSAPrivateKey_dup
                0x0009fee4                RSAPublicKey_dup
                0x0009fe44                d2i_RSAPublicKey
 .text          0x0009ffa8      0x66c /usr/local/lib/libcrypto.a(rsa_eng.o)
                0x000a050c                RSA_set_method
                0x000a0458                RSA_up_ref
                0x000a0588                RSA_get_ex_new_index
                0x000a0434                RSA_new
                0x0009ffa8                RSA_new_method
                0x000a04c4                RSA_get_default_method
                0x000a05cc                RSA_set_ex_data
                0x000a02c8                RSA_memory_lock
                0x000a0184                RSA_free
                0x000a04b8                RSA_set_default_method
                0x000a05f0                RSA_get_ex_data
                0x000a049c                RSA_flags
                0x000a0504                RSA_get_method
 .text          0x000a0614      0x3a8 /usr/local/lib/libcrypto.a(dsa_asn1.o)
                0x000a0664                DSA_size
                0x000a0748                DSA_verify
                0x000a0830                d2i_DSAparams
                0x000a06d4                DSA_sign
                0x000a0614                i2d_DSA_SIG
                0x000a0880                i2d_DSAPrivateKey
                0x000a0808                d2i_DSAPrivateKey
                0x000a0858                i2d_DSAPublicKey
                0x000a07e0                d2i_DSAPublicKey
                0x000a063c                d2i_DSA_SIG
                0x000a08a8                i2d_DSAparams
 .text          0x000a09bc       0x2c /usr/local/lib/libcrypto.a(dsa_vrf.o)
                0x000a09bc                DSA_do_verify
 .text          0x000a09e8       0x58 /usr/local/lib/libcrypto.a(dsa_sign.o)
                0x000a0a14                DSA_sign_setup
                0x000a09e8                DSA_do_sign
 .text          0x000a0a40       0xa4 /usr/local/lib/libcrypto.a(dsa_utl.o)
                0x000a0a40                DSA_SIG_new
                0x000a0a90                DSA_SIG_free
 .text          0x000a0ae4      0x1e4 /usr/local/lib/libcrypto.a(ecs_sign.o)
                0x000a0bec                ECDSA_sign
                0x000a0c18                ECDSA_sign_ex
                0x000a0ae4                ECDSA_do_sign
                0x000a0b84                ECDSA_sign_setup
                0x000a0b10                ECDSA_do_sign_ex
 .text          0x000a0cc8       0xbc /usr/local/lib/libcrypto.a(dh_asn1.o)
                0x000a0cf0                i2d_DHparams
                0x000a0cc8                d2i_DHparams
 .text          0x000a0d84      0x4d8 /usr/local/lib/libcrypto.a(dh_key.o)
                0x000a1138                DH_OpenSSL
                0x000a1144                DH_generate_key
                0x000a1170                DH_compute_key
 .text          0x000a125c      0x4d8 /usr/local/lib/libcrypto.a(dh_lib.o)
                0x000a16ec                DH_set_ex_data
                0x000a1540                DH_set_default_method
                0x000a154c                DH_get_default_method
                0x000a1670                DH_size
                0x000a1608                DH_new
                0x000a16a8                DH_get_ex_new_index
                0x000a1710                DH_get_ex_data
                0x000a142c                DH_free
                0x000a162c                DH_up_ref
                0x000a158c                DH_set_method
                0x000a125c                DH_new_method
 .text          0x000a1734      0x250 /usr/local/lib/libcrypto.a(dh_check.o)
                0x000a18cc                DH_check_pub_key
                0x000a1734                DH_check
 .text          0x000a1984       0x74 /usr/local/lib/libcrypto.a(ech_key.o)
                0x000a1984                ECDH_compute_key
 .text          0x000a19f8      0x5d0 /usr/local/lib/libcrypto.a(eng_lib.o)
                0x000a1bf4                ENGINE_set_ctrl_function
                0x000a1bdc                ENGINE_set_init_function
                0x000a1be8                ENGINE_set_finish_function
                0x000a1a88                ENGINE_free
                0x000a1de0                engine_cleanup_add_last
                0x000a1ca4                ENGINE_cleanup
                0x000a1b30                ENGINE_set_id
                0x000a1d04                ENGINE_get_destroy_function
                0x000a1e7c                engine_free_util
                0x000a1d0c                ENGINE_get_init_function
                0x000a1cfc                ENGINE_get_name
                0x000a19f8                ENGINE_new
                0x000a1bd0                ENGINE_set_destroy_function
                0x000a1c00                ENGINE_set_flags
                0x000a1c80                ENGINE_get_ex_data
                0x000a1cf4                ENGINE_get_id
                0x000a1d1c                ENGINE_get_ctrl_function
                0x000a1c18                ENGINE_get_ex_new_index
                0x000a1d2c                ENGINE_get_flags
                0x000a1d24                ENGINE_get_cmd_defns
                0x000a1c0c                ENGINE_set_cmd_defns
                0x000a1d34                ENGINE_get_static_state
                0x000a1d14                ENGINE_get_finish_function
                0x000a1c5c                ENGINE_set_ex_data
                0x000a1f40                engine_set_all_null
                0x000a1d40                engine_cleanup_add_first
                0x000a1b80                ENGINE_set_name
 .text          0x000a1fc8      0x974 /usr/local/lib/libcrypto.a(eng_list.o)
                0x000a24d0                ENGINE_get_first
                0x000a2540                ENGINE_get_last
                0x000a288c                ENGINE_up_ref
                0x000a2650                ENGINE_get_prev
                0x000a27dc                ENGINE_remove
                0x000a25b0                ENGINE_get_next
                0x000a224c                ENGINE_by_id
                0x000a26f0                ENGINE_add
 .text          0x000a293c      0x380 /usr/local/lib/libcrypto.a(eng_init.o)
                0x000a293c                ENGINE_finish
                0x000a2bcc                engine_unlocked_finish
                0x000a2a8c                ENGINE_init
                0x000a2b5c                engine_unlocked_init
 .text          0x000a2cbc      0x924 /usr/local/lib/libcrypto.a(eng_ctrl.o)
                0x000a34f0                ENGINE_ctrl_cmd
                0x000a3208                ENGINE_ctrl_cmd_string
                0x000a3094                ENGINE_ctrl
                0x000a3488                ENGINE_cmd_is_executable
 .text          0x000a35e0      0x388 /usr/local/lib/libcrypto.a(eng_pkey.o)
                0x000a360c                ENGINE_get_load_pubkey_function
                0x000a361c                ENGINE_load_private_key
                0x000a3604                ENGINE_get_load_privkey_function
                0x000a3614                ENGINE_get_ssl_client_cert_function
                0x000a35e0                ENGINE_set_load_privkey_function
                0x000a35ec                ENGINE_set_load_pubkey_function
                0x000a384c                ENGINE_load_ssl_client_cert
                0x000a3734                ENGINE_load_public_key
                0x000a35f8                ENGINE_set_load_ssl_client_cert_function
 .text          0x000a3968      0x424 /usr/local/lib/libcrypto.a(eng_fat.o)
                0x000a3c68                ENGINE_register_all_complete
                0x000a3968                ENGINE_set_default
                0x000a3c00                ENGINE_register_complete
                0x000a3cec                ENGINE_set_default_string
 .text          0x000a3d8c      0x1b0 /usr/local/lib/libcrypto.a(tb_rsa.o)
                0x000a3e80                ENGINE_set_RSA
                0x000a3e0c                ENGINE_register_all_RSA
                0x000a3de0                ENGINE_unregister_RSA
                0x000a3e94                ENGINE_get_default_RSA
                0x000a3ec0                ENGINE_set_default_RSA
                0x000a3e8c                ENGINE_get_RSA
                0x000a3d8c                ENGINE_register_RSA
 .text          0x000a3f3c      0x1b0 /usr/local/lib/libcrypto.a(tb_dsa.o)
                0x000a4070                ENGINE_set_default_DSA
                0x000a3f90                ENGINE_unregister_DSA
                0x000a3f3c                ENGINE_register_DSA
                0x000a4030                ENGINE_set_DSA
                0x000a403c                ENGINE_get_DSA
                0x000a4044                ENGINE_get_default_DSA
                0x000a3fbc                ENGINE_register_all_DSA
 .text          0x000a40ec      0x1b0 /usr/local/lib/libcrypto.a(tb_ecdsa.o)
                0x000a4140                ENGINE_unregister_ECDSA
                0x000a4220                ENGINE_set_default_ECDSA
                0x000a41ec                ENGINE_get_ECDSA
                0x000a40ec                ENGINE_register_ECDSA
                0x000a416c                ENGINE_register_all_ECDSA
                0x000a41f4                ENGINE_get_default_ECDSA
                0x000a41e0                ENGINE_set_ECDSA
 .text          0x000a429c      0x1b0 /usr/local/lib/libcrypto.a(tb_dh.o)
                0x000a43a4                ENGINE_get_default_DH
                0x000a429c                ENGINE_register_DH
                0x000a42f0                ENGINE_unregister_DH
                0x000a439c                ENGINE_get_DH
                0x000a43d0                ENGINE_set_default_DH
                0x000a431c                ENGINE_register_all_DH
                0x000a4390                ENGINE_set_DH
 .text          0x000a444c      0x1b0 /usr/local/lib/libcrypto.a(tb_ecdh.o)
                0x000a454c                ENGINE_get_ECDH
                0x000a4580                ENGINE_set_default_ECDH
                0x000a444c                ENGINE_register_ECDH
                0x000a4540                ENGINE_set_ECDH
                0x000a44a0                ENGINE_unregister_ECDH
                0x000a4554                ENGINE_get_default_ECDH
                0x000a44cc                ENGINE_register_all_ECDH
 .text          0x000a45fc      0x1b0 /usr/local/lib/libcrypto.a(tb_rand.o)
                0x000a46f0                ENGINE_set_RAND
                0x000a4704                ENGINE_get_default_RAND
                0x000a46fc                ENGINE_get_RAND
                0x000a4730                ENGINE_set_default_RAND
                0x000a4650                ENGINE_unregister_RAND
                0x000a467c                ENGINE_register_all_RAND
                0x000a45fc                ENGINE_register_RAND
 .text          0x000a47ac      0x294 /usr/local/lib/libcrypto.a(tb_cipher.o)
                0x000a48e0                ENGINE_set_ciphers
                0x000a48ec                ENGINE_get_ciphers
                0x000a47ac                ENGINE_register_ciphers
                0x000a49a0                ENGINE_set_default_ciphers
                0x000a48f4                ENGINE_get_cipher
                0x000a4824                ENGINE_unregister_ciphers
                0x000a4850                ENGINE_register_all_ciphers
                0x000a4974                ENGINE_get_cipher_engine
 .text          0x000a4a40      0x294 /usr/local/lib/libcrypto.a(tb_digest.o)
                0x000a4b74                ENGINE_set_digests
                0x000a4c34                ENGINE_set_default_digests
                0x000a4c08                ENGINE_get_digest_engine
                0x000a4a40                ENGINE_register_digests
                0x000a4b80                ENGINE_get_digests
                0x000a4ab8                ENGINE_unregister_digests
                0x000a4b88                ENGINE_get_digest
                0x000a4ae4                ENGINE_register_all_digests
 .text          0x000a4cd4      0x2dc /usr/local/lib/libcrypto.a(buffer.o)
                0x000a4cd4                BUF_MEM_grow_clean
                0x000a4de8                BUF_MEM_new
                0x000a4e5c                BUF_MEM_free
                0x000a4eb0                BUF_MEM_grow
 .text          0x000a4fb0      0x268 /usr/local/lib/libcrypto.a(buf_str.o)
                0x000a4ff4                BUF_strndup
                0x000a516c                BUF_strlcat
                0x000a5074                BUF_memdup
                0x000a4fb0                BUF_strdup
                0x000a50f4                BUF_strlcpy
 .text          0x000a5218     0x1638 /usr/local/lib/libcrypto.a(bio_lib.o)
                0x000a6784                BIO_find_type
                0x000a5910                BIO_get_callback
                0x000a5930                BIO_method_name
                0x000a5918                BIO_set_callback
                0x000a67f0                BIO_get_retry_BIO
                0x000a66ac                BIO_free_all
                0x000a593c                BIO_method_type
                0x000a58e4                BIO_set_flags
                0x000a6824                BIO_get_retry_reason
                0x000a5bc4                BIO_number_written
                0x000a5218                BIO_indent
                0x000a5dec                BIO_vfree
                0x000a67d8                BIO_next
                0x000a6218                BIO_puts
                0x000a5b44                BIO_get_ex_data
                0x000a5d20                BIO_free
                0x000a5bac                BIO_number_read
                0x000a6334                BIO_ctrl
                0x000a60e0                BIO_write
                0x000a5920                BIO_get_callback_arg
                0x000a5bdc                BIO_new
                0x000a53a4                BIO_pop
                0x000a651c                BIO_ptr_ctrl
                0x000a5fd0                BIO_gets
                0x000a682c                BIO_copy_next_retry
                0x000a54d4                BIO_dup_chain
                0x000a5c64                BIO_set
                0x000a642c                BIO_callback_ctrl
                0x000a5a34                BIO_ctrl_wpending
                0x000a5eac                BIO_read
                0x000a5b20                BIO_set_ex_data
                0x000a5928                BIO_set_callback_arg
                0x000a6558                BIO_int_ctrl
                0x000a5948                BIO_ctrl_pending
                0x000a5b68                BIO_get_ex_new_index
                0x000a5900                BIO_clear_flags
                0x000a6580                BIO_push
                0x000a58f4                BIO_test_flags
 .text          0x000a6850      0x964 /usr/local/lib/libcrypto.a(bss_mem.o)
                0x000a6d88                BIO_new_mem_buf
                0x000a6d7c                BIO_s_mem
 .text          0x000a71b4      0x8e8 /usr/local/lib/libcrypto.a(bss_file.o)
                0x000a7698                BIO_s_file
                0x000a77b0                BIO_new_fp
                0x000a76a4                BIO_new_file
 .text          0x000a7a9c      0x4f4 /usr/local/lib/libcrypto.a(bss_sock.o)
                0x000a7c08                BIO_s_socket
                0x000a7c50                BIO_sock_non_fatal_error
                0x000a7c14                BIO_sock_should_retry
                0x000a7c84                BIO_new_socket
 .text          0x000a7f90     0x110c /usr/local/lib/libcrypto.a(bss_conn.o)
                0x000a8b30                BIO_new_connect
                0x000a9048                BIO_CONNECT_free
                0x000a8fb8                BIO_CONNECT_new
                0x000a8b24                BIO_s_connect
 .text          0x000a909c      0xb40 /usr/local/lib/libcrypto.a(bf_buff.o)
                0x000a9a18                BIO_f_buffer
 .text          0x000a9bdc     0x1904 /usr/local/lib/libcrypto.a(b_print.o)
                0x000ab070                BIO_snprintf
                0x000ab100                BIO_vprintf
                0x000aafdc                BIO_printf
                0x000ab1c4                BIO_vsnprintf
 .text          0x000ab4e0      0xc4c /usr/local/lib/libcrypto.a(b_sock.o)
                0x000ac124                BIO_set_tcp_ndelay
                0x000ac120                BIO_sock_cleanup
                0x000ac00c                BIO_socket_ioctl
                0x000ac084                BIO_socket_nbio
                0x000ab64c                BIO_get_port
                0x000abdf4                BIO_accept
                0x000ab93c                BIO_get_accept_socket
                0x000ab4e0                BIO_get_host_ip
                0x000abf94                BIO_sock_error
                0x000ac118                BIO_sock_init
                0x000abf58                BIO_gethostbyname
 .text          0x000ac12c      0x9dc /usr/local/lib/libcrypto.a(stack.o)
                0x000ac26c                sk_new_null
                0x000ac9ec                sk_dup
                0x000ac12c                sk_num
                0x000ac2d4                sk_pop_free
                0x000ac92c                sk_pop
                0x000ac6c8                sk_push
                0x000ac34c                sk_insert
                0x000ac9cc                sk_set_cmp_func
                0x000ac1b8                sk_new
                0x000ac97c                sk_zero
                0x000ac290                sk_free
                0x000ac144                sk_value
                0x000ac4d4                sk_delete_ptr
                0x000acaf0                sk_is_sorted
                0x000ac450                sk_delete
                0x000ac17c                sk_set
                0x000ac538                sk_find
                0x000ac8b0                sk_shift
                0x000aca9c                sk_sort
                0x000ac7cc                sk_unshift
                0x000ac600                sk_find_ex
 .text          0x000acb08      0x884 /usr/local/lib/libcrypto.a(lhash.o)
                0x000aceb0                lh_free
                0x000ad28c                lh_num_items
                0x000ad0dc                lh_retrieve
                0x000ad1b4                lh_doall_arg
                0x000ad144                lh_doall
                0x000acb08                lh_new
                0x000ad22c                lh_strhash
                0x000acf38                lh_insert
                0x000ad028                lh_delete
 .text          0x000ad38c      0x3ec /usr/local/lib/libcrypto.a(randfile.o)
                0x000ad38c                RAND_load_file
                0x000ad520                RAND_write_file
                0x000ad658                RAND_file_name
 .text          0x000ad778      0x5ec /usr/local/lib/libcrypto.a(rand_lib.o)
                0x000ad848                RAND_set_rand_method
                0x000adbec                RAND_add
                0x000adb34                RAND_seed
                0x000ad898                RAND_get_rand_method
                0x000ad924                RAND_set_rand_engine
                0x000adcb4                RAND_status
                0x000ad9b4                RAND_bytes
                0x000ad778                RAND_cleanup
                0x000ada74                RAND_pseudo_bytes
 .text          0x000add64      0x9c4 /usr/local/lib/libcrypto.a(err.o)
                0x000ae5c0                ERR_peek_error_line
                0x000ae550                ERR_get_error_line_data
                0x000ae6a0                ERR_peek_last_error_line_data
                0x000ae6d8                ERR_set_mark
                0x000ae588                ERR_peek_error
                0x000ae314                ERR_put_error
                0x000ae668                ERR_peek_last_error_line
                0x000ae518                ERR_get_error_line
                0x000ae5f8                ERR_peek_error_line_data
                0x000ae1cc                ERR_pop_to_mark
                0x000add64                ERR_clear_error
                0x000ae4e0                ERR_get_error
                0x000ae630                ERR_peek_last_error
                0x000adfd8                ERR_add_error_data
                0x000ae43c                ERR_set_error_data
 .text          0x000ae728     0x1394 /usr/local/lib/libcrypto.a(err_def.o)
                0x000af184                ERR_get_implementation
                0x000aee88                ERR_remove_state
                0x000aef34                ERR_get_string_table
                0x000af208                ERR_set_implementation
                0x000aea58                ERR_lib_error_string
                0x000af05c                ERR_release_err_state_table
                0x000af0f4                ERR_get_next_error_library
                0x000aebc0                ERR_reason_error_string
                0x000aeb0c                ERR_func_error_string
                0x000ae86c                ERR_get_state
                0x000aed78                ERR_unload_strings
                0x000aedf8                ERR_free_strings
                0x000aec9c                ERR_load_strings
                0x000aefc8                ERR_get_err_state_table
 .text          0x000afabc       0x80 /usr/local/lib/libcrypto.a(err_all.o)
                0x000afabc                ERR_load_crypto_strings
 .text          0x000afb3c      0x3c8 /usr/local/lib/libcrypto.a(err_prn.o)
                0x000afb3c                ERR_error_string_n
                0x000afe08                ERR_print_errors_fp
                0x000afcf0                ERR_error_string
                0x000afd34                ERR_print_errors_cb
 .text          0x000aff04      0x1d8 /usr/local/lib/libcrypto.a(err_str.o)
                0x000b0060                ERR_load_ERR_strings
 .text          0x000b00dc      0x794 /usr/local/lib/libcrypto.a(digest.o)
                0x000b07e8                EVP_DigestInit
                0x000b0834                EVP_DigestFinal
                0x000b0588                EVP_DigestFinal_ex
                0x000b0528                EVP_MD_CTX_destroy
                0x000b0420                EVP_MD_CTX_cleanup
                0x000b0650                EVP_Digest
                0x000b00dc                EVP_DigestInit_ex
                0x000b03f4                EVP_MD_CTX_init
                0x000b055c                EVP_DigestUpdate
                0x000b02a4                EVP_MD_CTX_copy_ex
                0x000b07a0                EVP_MD_CTX_copy
                0x000b04d8                EVP_MD_CTX_create
 .text          0x000b0870      0x9b8 /usr/local/lib/libcrypto.a(evp_enc.o)
                0x000b0d80                EVP_EncryptFinal
                0x000b0ff4                EVP_CipherUpdate
                0x000b105c                EVP_CipherFinal_ex
                0x000b0f98                EVP_CipherInit
                0x000b0c78                EVP_EncryptFinal_ex
                0x000b0e1c                EVP_DecryptUpdate
                0x000b11d0                EVP_CIPHER_CTX_rand_key
                0x000b0c54                EVP_EncryptInit_ex
                0x000b0df8                EVP_DecryptInit_ex
                0x000b1090                EVP_CIPHER_CTX_new
                0x000b0da0                EVP_DecryptInit
                0x000b0a4c                EVP_DecryptFinal_ex
                0x000b0870                EVP_EncryptUpdate
                0x000b11a8                EVP_CIPHER_CTX_set_padding
                0x000b0bfc                EVP_EncryptInit
                0x000b1028                EVP_CipherFinal
                0x000b1118                EVP_CIPHER_CTX_set_key_length
                0x000b10dc                EVP_CIPHER_CTX_free
                0x000b0f78                EVP_DecryptFinal
 .text          0x000b1228      0x2f4 /usr/local/lib/libcrypto.a(e_des.o)
                0x000b1240                EVP_des_cfb1
                0x000b1234                EVP_des_cfb64
                0x000b1228                EVP_des_ecb
                0x000b124c                EVP_des_cfb8
                0x000b1264                EVP_des_cbc
                0x000b1258                EVP_des_ofb
 .text          0x000b151c      0x200 /usr/local/lib/libcrypto.a(e_idea.o)
                0x000b1534                EVP_idea_ofb
                0x000b151c                EVP_idea_ecb
                0x000b1528                EVP_idea_cfb64
                0x000b1540                EVP_idea_cbc
 .text          0x000b171c      0x43c /usr/local/lib/libcrypto.a(e_des3.o)
                0x000b1764                EVP_des_ede3_cfb1
                0x000b177c                EVP_des_ede_ofb
                0x000b1734                EVP_des_ede_ecb
                0x000b1770                EVP_des_ede3_cfb8
                0x000b171c                EVP_des_ede
                0x000b174c                EVP_des_ede_cfb64
                0x000b1758                EVP_des_ede3_cfb64
                0x000b1728                EVP_des_ede3
                0x000b1788                EVP_des_ede3_ofb
                0x000b17a0                EVP_des_ede3_cbc
                0x000b1794                EVP_des_ede_cbc
                0x000b1740                EVP_des_ede3_ecb
 .text          0x000b1b58       0x94 /usr/local/lib/libcrypto.a(e_rc4.o)
                0x000b1b58                EVP_rc4
                0x000b1b64                EVP_rc4_40
 .text          0x000b1bec      0x6e8 /usr/local/lib/libcrypto.a(e_aes.o)
                0x000b1cac                EVP_aes_256_cfb128
                0x000b1ca0                EVP_aes_256_cfb8
                0x000b1c64                EVP_aes_192_cfb128
                0x000b1c1c                EVP_aes_128_cfb128
                0x000b1bf8                EVP_aes_128_cbc
                0x000b1c34                EVP_aes_192_ecb
                0x000b1c40                EVP_aes_192_cbc
                0x000b1c88                EVP_aes_256_cbc
                0x000b1c94                EVP_aes_256_cfb1
                0x000b1c04                EVP_aes_128_cfb1
                0x000b1bec                EVP_aes_128_ecb
                0x000b1c70                EVP_aes_192_ofb
                0x000b1c28                EVP_aes_128_ofb
                0x000b1cb8                EVP_aes_256_ofb
                0x000b1c7c                EVP_aes_256_ecb
                0x000b1c4c                EVP_aes_192_cfb1
                0x000b1c10                EVP_aes_128_cfb8
                0x000b1c58                EVP_aes_192_cfb8
 .text          0x000b22d4      0x19c /usr/local/lib/libcrypto.a(names.o)
                0x000b23f0                EVP_get_cipherbyname
                0x000b22d4                EVP_add_cipher
                0x000b2438                EVP_cleanup
                0x000b2334                EVP_add_digest
                0x000b2414                EVP_get_digestbyname
 .text          0x000b2470      0x448 /usr/local/lib/libcrypto.a(e_rc2.o)
                0x000b25b0                EVP_rc2_cbc
                0x000b25bc                EVP_rc2_40_cbc
                0x000b25c8                EVP_rc2_64_cbc
                0x000b25a4                EVP_rc2_ecb
                0x000b25e0                EVP_rc2_ofb
                0x000b25d4                EVP_rc2_cfb64
 .text          0x000b28b8      0x550 /usr/local/lib/libcrypto.a(enc_min.o)
                0x000b2c9c                EVP_CIPHER_CTX_init
                0x000b2c50                EVP_CIPHER_nid
                0x000b2c64                EVP_CIPHER_CTX_flags
                0x000b2d6c                EVP_CIPHER_CTX_ctrl
                0x000b2cc8                EVP_CIPHER_CTX_cleanup
                0x000b2c70                EVP_Cipher
                0x000b2c58                EVP_CIPHER_CTX_iv_length
                0x000b28b8                EVP_CipherInit_ex
 .text          0x000b2e08       0x80 /usr/local/lib/libcrypto.a(m_md2.o)
                0x000b2e08                EVP_md2
 .text          0x000b2e88       0x80 /usr/local/lib/libcrypto.a(m_md5.o)
                0x000b2e88                EVP_md5
 .text          0x000b2f08      0x1e0 /usr/local/lib/libcrypto.a(m_sha1.o)
                0x000b2f2c                EVP_sha384
                0x000b2f38                EVP_sha512
                0x000b2f08                EVP_sha1
                0x000b2f14                EVP_sha224
                0x000b2f20                EVP_sha256
 .text          0x000b30e8       0x80 /usr/local/lib/libcrypto.a(m_dss1.o)
                0x000b30e8                EVP_dss1
 .text          0x000b3168       0x80 /usr/local/lib/libcrypto.a(m_ecdsa.o)
                0x000b3168                EVP_ecdsa
 .text          0x000b31e8      0x190 /usr/local/lib/libcrypto.a(p_sign.o)
                0x000b31e8                EVP_SignFinal
 .text          0x000b3378      0x194 /usr/local/lib/libcrypto.a(p_verify.o)
                0x000b3378                EVP_VerifyFinal
 .text          0x000b350c      0xc30 /usr/local/lib/libcrypto.a(p_lib.o)
                0x000b3b4c                EVP_PKEY_set1_DSA
                0x000b38e0                EVP_PKEY_bits
                0x000b3a68                EVP_PKEY_set1_RSA
                0x000b367c                EVP_PKEY_cmp
                0x000b39fc                EVP_PKEY_assign
                0x000b3858                EVP_PKEY_type
                0x000b3bcc                EVP_PKEY_get1_DSA
                0x000b3c30                EVP_PKEY_set1_DH
                0x000b3fa0                EVP_PKEY_cmp_parameters
                0x000b350c                EVP_PKEY_copy_parameters
                0x000b3df8                EVP_PKEY_new
                0x000b3ef0                EVP_PKEY_missing_parameters
                0x000b3f6c                EVP_PKEY_save_parameters
                0x000b3994                EVP_PKEY_size
                0x000b3ae8                EVP_PKEY_get1_RSA
                0x000b3cb0                EVP_PKEY_get1_DH
                0x000b3d94                EVP_PKEY_get1_EC_KEY
                0x000b3e78                EVP_PKEY_free
                0x000b3d14                EVP_PKEY_set1_EC_KEY
 .text          0x000b413c       0x58 /usr/local/lib/libcrypto.a(evp_err.o)
                0x000b413c                ERR_load_EVP_strings
 .text          0x000b4194       0x50 /usr/local/lib/libcrypto.a(e_null.o)
                0x000b4194                EVP_enc_null
 .text          0x000b41e4       0x28 /usr/local/lib/libcrypto.a(c_all.o)
                0x000b41e4                OPENSSL_add_all_algorithms_noconf
 .text          0x000b420c      0x424 /usr/local/lib/libcrypto.a(c_allc.o)
                0x000b420c                OpenSSL_add_all_ciphers
 .text          0x000b4630      0x178 /usr/local/lib/libcrypto.a(c_alld.o)
                0x000b4630                OpenSSL_add_all_digests
 .text          0x000b47a8      0x3b4 /usr/local/lib/libcrypto.a(evp_lib.o)
                0x000b4910                EVP_CIPHER_flags
                0x000b48e0                EVP_MD_size
                0x000b49f8                EVP_CIPHER_asn1_to_param
                0x000b48d0                EVP_MD_type
                0x000b4908                EVP_CIPHER_iv_length
                0x000b4950                EVP_MD_CTX_set_flags
                0x000b47a8                EVP_CIPHER_type
                0x000b48e8                EVP_MD_block_size
                0x000b48d8                EVP_MD_pkey_type
                0x000b4920                EVP_CIPHER_CTX_nid
                0x000b492c                EVP_CIPHER_CTX_block_size
                0x000b4940                EVP_CIPHER_CTX_get_app_data
                0x000b4918                EVP_CIPHER_CTX_cipher
                0x000b48f8                EVP_CIPHER_block_size
                0x000b499c                EVP_CIPHER_CTX_test_flags
                0x000b4948                EVP_CIPHER_CTX_set_app_data
                0x000b4938                EVP_CIPHER_CTX_key_length
                0x000b498c                EVP_CIPHER_CTX_clear_flags
                0x000b497c                EVP_CIPHER_CTX_set_flags
                0x000b4a48                EVP_CIPHER_set_asn1_iv
                0x000b48f0                EVP_MD_CTX_md
                0x000b4900                EVP_CIPHER_key_length
                0x000b4960                EVP_MD_CTX_clear_flags
                0x000b4ab8                EVP_CIPHER_get_asn1_iv
                0x000b4970                EVP_MD_CTX_test_flags
                0x000b49a8                EVP_CIPHER_param_to_asn1
 .text          0x000b4b5c      0x274 /usr/local/lib/libcrypto.a(evp_pbe.o)
                0x000b4d78                EVP_PBE_cleanup
                0x000b4b5c                EVP_PBE_CipherInit
                0x000b4cc8                EVP_PBE_alg_add
 .text          0x000b4dd0      0x3a8 /usr/local/lib/libcrypto.a(p5_crpt.o)
                0x000b4dd0                PKCS5_PBE_add
                0x000b4ed0                PKCS5_PBE_keyivgen
 .text          0x000b5178      0x668 /usr/local/lib/libcrypto.a(p5_crpt2.o)
                0x000b562c                PKCS5_PBKDF2_HMAC_SHA1
                0x000b5178                PKCS5_v2_PBE_keyivgen
 .text          0x000b57e0      0x9a8 /usr/local/lib/libcrypto.a(a_object.o)
                0x000b5c34                c2i_ASN1_OBJECT
                0x000b5dfc                ASN1_OBJECT_free
                0x000b6124                i2t_ASN1_OBJECT
                0x000b602c                i2a_ASN1_OBJECT
                0x000b5f50                d2i_ASN1_OBJECT
                0x000b5d78                ASN1_OBJECT_new
                0x000b5e9c                i2d_ASN1_OBJECT
                0x000b57e0                a2d_ASN1_OBJECT
                0x000b6148                ASN1_OBJECT_create
 .text          0x000b6188      0x9a8 /usr/local/lib/libcrypto.a(a_int.o)
                0x000b6188                i2c_ASN1_INTEGER
                0x000b69bc                ASN1_INTEGER_cmp
                0x000b6344                c2i_ASN1_INTEGER
                0x000b6ab4                ASN1_INTEGER_to_BN
                0x000b685c                BN_to_ASN1_INTEGER
                0x000b659c                d2i_ASN1_UINTEGER
                0x000b699c                ASN1_INTEGER_dup
                0x000b6a18                ASN1_INTEGER_get
                0x000b673c                ASN1_INTEGER_set
 .text          0x000b6b30      0x184 /usr/local/lib/libcrypto.a(a_type.o)
                0x000b6bb0                ASN1_TYPE_set1
                0x000b6b30                ASN1_TYPE_get
                0x000b6b58                ASN1_TYPE_set
 .text          0x000b6cb4      0x168 /usr/local/lib/libcrypto.a(a_dup.o)
                0x000b6cb4                ASN1_dup
                0x000b6d74                ASN1_item_dup
 .text          0x000b6e1c      0xed0 /usr/local/lib/libcrypto.a(a_strex.o)
                0x000b7b44                ASN1_STRING_print_ex
                0x000b7c00                X509_NAME_print_ex
                0x000b7b74                X509_NAME_print_ex_fp
                0x000b7a7c                ASN1_STRING_print_ex_fp
                0x000b7aac                ASN1_STRING_to_UTF8
 .text          0x000b7cec      0xe54 /usr/local/lib/libcrypto.a(x_pubkey.o)
                0x000b81a0                X509_PUBKEY_get
                0x000b84e4                d2i_X509_PUBKEY
                0x000b889c                d2i_DSA_PUBKEY
                0x000b8a38                d2i_EC_PUBKEY
                0x000b8494                X509_PUBKEY_new
                0x000b7cec                X509_PUBKEY_set
                0x000b8970                i2d_EC_PUBKEY
                0x000b8534                i2d_PUBKEY
                0x000b87d4                i2d_DSA_PUBKEY
                0x000b850c                i2d_X509_PUBKEY
                0x000b85b4                d2i_PUBKEY
                0x000b8700                d2i_RSA_PUBKEY
                0x000b8638                i2d_RSA_PUBKEY
                0x000b84bc                X509_PUBKEY_free
 .text          0x000b8b40       0xa0 /usr/local/lib/libcrypto.a(x_sig.o)
                0x000b8b68                X509_SIG_free
                0x000b8b40                X509_SIG_new
                0x000b8b90                d2i_X509_SIG
                0x000b8bb8                i2d_X509_SIG
 .text          0x000b8be0      0x19c /usr/local/lib/libcrypto.a(x_attrib.o)
                0x000b8be0                X509_ATTRIBUTE_dup
                0x000b8c0c                X509_ATTRIBUTE_new
                0x000b8cac                X509_ATTRIBUTE_create
                0x000b8c84                i2d_X509_ATTRIBUTE
                0x000b8c34                X509_ATTRIBUTE_free
                0x000b8c5c                d2i_X509_ATTRIBUTE
 .text          0x000b8d7c      0x1bc /usr/local/lib/libcrypto.a(x_bignum.o)
 .text          0x000b8f38      0x1b8 /usr/local/lib/libcrypto.a(x_long.o)
 .text          0x000b90f0      0x754 /usr/local/lib/libcrypto.a(x_name.o)
                0x000b9474                X509_NAME_dup
                0x000b960c                X509_NAME_set
                0x000b951c                d2i_X509_NAME_ENTRY
                0x000b95e4                i2d_X509_NAME
                0x000b94a0                X509_NAME_ENTRY_dup
                0x000b94cc                X509_NAME_ENTRY_new
                0x000b9544                i2d_X509_NAME_ENTRY
                0x000b956c                X509_NAME_new
                0x000b94f4                X509_NAME_ENTRY_free
                0x000b9594                X509_NAME_free
                0x000b95bc                d2i_X509_NAME
 .text          0x000b9844      0x3dc /usr/local/lib/libcrypto.a(x_x509.o)
                0x000b98f4                i2d_X509_CINF
                0x000b9944                X509_free
                0x000b9a00                X509_set_ex_data
                0x000b991c                X509_new
                0x000b98a4                X509_CINF_free
                0x000b9850                X509_dup
                0x000b9a48                i2d_X509_AUX
                0x000b9994                i2d_X509
                0x000b9a24                X509_get_ex_data
                0x000b9aa0                d2i_X509_AUX
                0x000b99bc                X509_get_ex_new_index
                0x000b98cc                d2i_X509_CINF
                0x000b987c                X509_CINF_new
                0x000b9844                X509_asn1_meth
                0x000b996c                d2i_X509
 .text          0x000b9c20      0x598 /usr/local/lib/libcrypto.a(x_x509a.o)
                0x000ba05c                X509_add1_reject_object
                0x000ba108                X509_trust_clear
                0x000b9c48                X509_CERT_AUX_free
                0x000b9fb0                X509_add1_trust_object
                0x000b9c70                d2i_X509_CERT_AUX
                0x000b9d10                d2i_X509_CERT_PAIR
                0x000b9d60                X509_alias_set1
                0x000b9f70                X509_keyid_get0
                0x000b9c98                i2d_X509_CERT_AUX
                0x000b9f30                X509_alias_get0
                0x000b9c20                X509_CERT_AUX_new
                0x000b9ce8                X509_CERT_PAIR_free
                0x000b9e48                X509_keyid_set1
                0x000b9cc0                X509_CERT_PAIR_new
                0x000ba160                X509_reject_clear
                0x000b9d38                i2d_X509_CERT_PAIR
 .text          0x000ba1b8      0x1b0 /usr/local/lib/libcrypto.a(d2i_pu.o)
                0x000ba1b8                d2i_PublicKey
 .text          0x000ba368      0x27c /usr/local/lib/libcrypto.a(d2i_pr.o)
                0x000ba368                d2i_PrivateKey
                0x000ba520                d2i_AutoPrivateKey
 .text          0x000ba5e4       0x88 /usr/local/lib/libcrypto.a(i2d_pu.o)
                0x000ba5e4                i2d_PublicKey
 .text          0x000ba66c     0x1000 /usr/local/lib/libcrypto.a(t_x509.o)
                0x000ba66c                X509_print_ex
                0x000bae74                ASN1_GENERALIZEDTIME_print
                0x000bb314                ASN1_TIME_print
                0x000bb61c                X509_print_fp
                0x000bb57c                X509_print_ex_fp
                0x000bb368                ASN1_STRING_print
                0x000bb1dc                X509_NAME_print
                0x000bb644                X509_print
                0x000bacdc                X509_ocspid_print
                0x000bb460                X509_signature_print
                0x000bb028                ASN1_UTCTIME_print
 .text          0x000bb66c      0x2bc /usr/local/lib/libcrypto.a(t_x509a.o)
                0x000bb66c                X509_CERT_AUX_print
 .text          0x000bb928     0x1e28 /usr/local/lib/libcrypto.a(t_pkey.o)
                0x000bc890                EC_KEY_print
                0x000bd404                DSA_print_fp
                0x000bcecc                DHparams_print
                0x000bb928                RSA_print
                0x000bd628                ECParameters_print_fp
                0x000bd064                DSAparams_print
                0x000bbd88                DSA_print
                0x000bd6b8                EC_KEY_print_fp
                0x000bd24c                RSA_print_fp
                0x000bd534                ECParameters_print
                0x000bd2e4                DHparams_print_fp
                0x000bc070                ECPKParameters_print
                0x000bd49c                ECPKParameters_print_fp
                0x000bd374                DSAparams_print_fp
 .text          0x000bd750      0x660 /usr/local/lib/libcrypto.a(tasn_new.o)
                0x000bdb64                ASN1_item_new
                0x000bdba4                ASN1_item_ex_new
                0x000bda3c                ASN1_primitive_new
                0x000bdbc8                ASN1_template_new
                0x000bdd3c                asn1_primitive_clear
 .text          0x000bddb0      0x4a8 /usr/local/lib/libcrypto.a(tasn_fre.o)
                0x000be054                ASN1_primitive_free
                0x000be198                ASN1_item_ex_free
                0x000be1bc                ASN1_template_free
                0x000be16c                ASN1_item_free
 .text          0x000be258      0xe7c /usr/local/lib/libcrypto.a(tasn_enc.o)
                0x000beb98                asn1_ex_i2c
                0x000bee04                ASN1_item_ndef_i2d
                0x000bee28                ASN1_template_i2d
                0x000bede0                ASN1_item_i2d
                0x000be258                ASN1_item_ex_i2d
 .text          0x000bf0d4     0x1bbc /usr/local/lib/libcrypto.a(tasn_dec.o)
                0x000c0b04                ASN1_item_d2i
                0x000c0ae0                ASN1_tag2bit
                0x000bf0d4                ASN1_item_ex_d2i
                0x000c0b80                ASN1_template_d2i
                0x000c02d4                asn1_ex_c2i
 .text          0x000c0c90      0x440 /usr/local/lib/libcrypto.a(tasn_utl.o)
                0x000c0cd0                asn1_do_adb
                0x000c0ca0                asn1_set_choice_selector
                0x000c0dc0                asn1_do_lock
                0x000c1004                asn1_enc_save
                0x000c0e58                asn1_enc_init
                0x000c0f40                asn1_enc_restore
                0x000c0cb4                asn1_get_field_ptr
                0x000c0c90                asn1_get_choice_selector
                0x000c0eb4                asn1_enc_free
 .text          0x000c10d0      0xbe0 /usr/local/lib/libcrypto.a(tasn_typ.o)
                0x000c18a0                d2i_DISPLAYTEXT
                0x000c1c88                i2d_ASN1_GENERALIZEDTIME
                0x000c1c10                ASN1_GENERALIZEDTIME_new
                0x000c15a8                i2d_ASN1_UTF8STRING
                0x000c19b8                ASN1_T61STRING_free
                0x000c1238                ASN1_INTEGER_free
                0x000c17d8                DIRECTORYSTRING_free
                0x000c11c0                d2i_ASN1_BIT_STRING
                0x000c1850                DISPLAYTEXT_new
                0x000c1878                DISPLAYTEXT_free
                0x000c1558                ASN1_UTF8STRING_free
                0x000c14b8                ASN1_UNIVERSALSTRING_free
                0x000c1a80                d2i_ASN1_IA5STRING
                0x000c1328                i2d_ASN1_ENUMERATED
                0x000c1580                d2i_ASN1_UTF8STRING
                0x000c1210                ASN1_INTEGER_new
                0x000c10f8                ASN1_TYPE_free
                0x000c1120                d2i_ASN1_TYPE
                0x000c12d8                ASN1_ENUMERATED_free
                0x000c1300                d2i_ASN1_ENUMERATED
                0x000c1620                d2i_ASN1_NULL
                0x000c14e0                d2i_ASN1_UNIVERSALSTRING
                0x000c18c8                i2d_DISPLAYTEXT
                0x000c18f0                ASN1_PRINTABLESTRING_new
                0x000c1aa8                i2d_ASN1_IA5STRING
                0x000c1198                ASN1_BIT_STRING_free
                0x000c1288                i2d_ASN1_INTEGER
                0x000c1800                d2i_DIRECTORYSTRING
                0x000c13f0                ASN1_VISIBLESTRING_new
                0x000c1710                ASN1_PRINTABLE_new
                0x000c1170                ASN1_BIT_STRING_new
                0x000c1b98                ASN1_UTCTIME_free
                0x000c1760                d2i_ASN1_PRINTABLE
                0x000c11e8                i2d_ASN1_BIT_STRING
                0x000c1440                d2i_ASN1_VISIBLESTRING
                0x000c1648                i2d_ASN1_NULL
                0x000c17b0                DIRECTORYSTRING_new
                0x000c1b20                d2i_ASN1_GENERALSTRING
                0x000c1350                ASN1_OCTET_STRING_new
                0x000c1148                i2d_ASN1_TYPE
                0x000c1ad0                ASN1_GENERALSTRING_new
                0x000c1968                i2d_ASN1_PRINTABLESTRING
                0x000c1260                d2i_ASN1_INTEGER
                0x000c1c38                ASN1_GENERALIZEDTIME_free
                0x000c1490                ASN1_UNIVERSALSTRING_new
                0x000c1698                ASN1_BMPSTRING_free
                0x000c1a58                ASN1_IA5STRING_free
                0x000c16e8                i2d_ASN1_BMPSTRING
                0x000c1990                ASN1_T61STRING_new
                0x000c1670                ASN1_BMPSTRING_new
                0x000c1b48                i2d_ASN1_GENERALSTRING
                0x000c19e0                d2i_ASN1_T61STRING
                0x000c15f8                ASN1_NULL_free
                0x000c1378                ASN1_OCTET_STRING_free
                0x000c1b70                ASN1_UTCTIME_new
                0x000c16c0                d2i_ASN1_BMPSTRING
                0x000c1940                d2i_ASN1_PRINTABLESTRING
                0x000c1918                ASN1_PRINTABLESTRING_free
                0x000c1c60                d2i_ASN1_GENERALIZEDTIME
                0x000c1be8                i2d_ASN1_UTCTIME
                0x000c13c8                i2d_ASN1_OCTET_STRING
                0x000c1530                ASN1_UTF8STRING_new
                0x000c12b0                ASN1_ENUMERATED_new
                0x000c1bc0                d2i_ASN1_UTCTIME
                0x000c1a30                ASN1_IA5STRING_new
                0x000c1508                i2d_ASN1_UNIVERSALSTRING
                0x000c1468                i2d_ASN1_VISIBLESTRING
                0x000c1af8                ASN1_GENERALSTRING_free
                0x000c13a0                d2i_ASN1_OCTET_STRING
                0x000c1a08                i2d_ASN1_T61STRING
                0x000c1738                ASN1_PRINTABLE_free
                0x000c10d0                ASN1_TYPE_new
                0x000c1418                ASN1_VISIBLESTRING_free
                0x000c15d0                ASN1_NULL_new
                0x000c1828                i2d_DIRECTORYSTRING
                0x000c1788                i2d_ASN1_PRINTABLE
 .text          0x000c1cb0      0x11c /usr/local/lib/libcrypto.a(x_exten.o)
                0x000c1d7c                d2i_X509_EXTENSIONS
                0x000c1d04                X509_EXTENSION_free
                0x000c1cdc                X509_EXTENSION_new
                0x000c1d54                i2d_X509_EXTENSION
                0x000c1da4                i2d_X509_EXTENSIONS
                0x000c1d2c                d2i_X509_EXTENSION
                0x000c1cb0                X509_EXTENSION_dup
 .text          0x000c1dcc      0xadc /usr/local/lib/libcrypto.a(asn1_par.o)
                0x000c284c                ASN1_tag2str
                0x000c27dc                ASN1_parse
                0x000c2814                ASN1_parse_dump
 .text          0x000c28a8      0xae0 /usr/local/lib/libcrypto.a(asn1_lib.o)
                0x000c2cf0                ASN1_STRING_set0
                0x000c2e00                asn1_const_Finish
                0x000c31c0                asn1_add_error
                0x000c2b10                ASN1_STRING_type_new
                0x000c3098                ASN1_object_size
                0x000c28a8                ASN1_get_object
                0x000c2a9c                ASN1_STRING_dup
                0x000c2ea8                ASN1_check_infinite_end
                0x000c2a34                ASN1_STRING_new
                0x000c2be8                ASN1_STRING_set
                0x000c2a58                ASN1_STRING_free
                0x000c2b8c                ASN1_STRING_cmp
                0x000c2d48                ASN1_STRING_type
                0x000c2d58                asn1_Finish
                0x000c2d50                ASN1_STRING_data
                0x000c2d40                ASN1_STRING_length_set
                0x000c2d38                ASN1_STRING_length
                0x000c3074                ASN1_put_eoc
                0x000c2ef8                ASN1_const_check_infinite_end
                0x000c2f48                ASN1_put_object
                0x000c30f0                asn1_GetSequence
 .text          0x000c3388       0x58 /usr/local/lib/libcrypto.a(asn1_err.o)
                0x000c3388                ERR_load_ASN1_strings
 .text          0x000c33e0      0x408 /usr/local/lib/libcrypto.a(evp_asn1.o)
                0x000c3624                ASN1_TYPE_get_octetstring
                0x000c33e0                ASN1_TYPE_get_int_octetstring
                0x000c35b0                ASN1_TYPE_set_octetstring
                0x000c36c0                ASN1_TYPE_set_int_octetstring
 .text          0x000c37e8      0x2fc /usr/local/lib/libcrypto.a(p5_pbe.o)
                0x000c37e8                PKCS5_pbe_set
                0x000c3a44                PBEPARAM_new
                0x000c3abc                i2d_PBEPARAM
                0x000c3a6c                PBEPARAM_free
                0x000c3a94                d2i_PBEPARAM
 .text          0x000c3ae4      0x4c4 /usr/local/lib/libcrypto.a(p5_pbev2.o)
                0x000c3e68                PBE2PARAM_new
                0x000c3ee0                i2d_PBE2PARAM
                0x000c3f58                d2i_PBKDF2PARAM
                0x000c3ae4                PKCS5_pbe2_set
                0x000c3eb8                d2i_PBE2PARAM
                0x000c3f30                PBKDF2PARAM_free
                0x000c3e90                PBE2PARAM_free
                0x000c3f08                PBKDF2PARAM_new
                0x000c3f80                i2d_PBKDF2PARAM
 .text          0x000c3fa8     0x1550 /usr/local/lib/libcrypto.a(pem_all.o)
                0x000c51f8                PEM_write_bio_DHparams
                0x000c4bc8                PEM_write_DSA_PUBKEY
                0x000c4888                PEM_write_bio_RSA_PUBKEY
                0x000c4840                PEM_read_RSA_PUBKEY
                0x000c4420                PEM_read_NETSCAPE_CERT_SEQUENCE
                0x000c5410                PEM_read_PUBKEY
                0x000c4a18                PEM_write_bio_DSAPrivateKey
                0x000c4038                PEM_write_bio_X509_REQ
                0x000c4e28                PEM_write_ECPKParameters
                0x000c4ef0                PEM_read_ECPrivateKey
                0x000c5168                PEM_read_bio_DHparams
                0x000c4e78                PEM_read_bio_ECPrivateKey
                0x000c4508                PEM_read_bio_RSAPrivateKey
                0x000c4758                PEM_write_bio_RSAPublicKey
                0x000c4b78                PEM_write_bio_DSA_PUBKEY
                0x000c4fd0                PEM_write_ECPrivateKey
                0x000c4088                PEM_write_X509_REQ
                0x000c4a80                PEM_write_DSAPrivateKey
                0x000c4b30                PEM_read_DSA_PUBKEY
                0x000c4cf8                PEM_write_DSAparams
                0x000c44b8                PEM_write_NETSCAPE_CERT_SEQUENCE
                0x000c46c8                PEM_read_bio_RSAPublicKey
                0x000c4710                PEM_read_RSAPublicKey
                0x000c4338                PEM_write_bio_PKCS7
                0x000c4d90                PEM_read_ECPKParameters
                0x000c4258                PEM_write_X509_CRL
                0x000c42a8                PEM_read_bio_PKCS7
                0x000c48d8                PEM_write_RSA_PUBKEY
                0x000c4c18                PEM_read_bio_DSAparams
                0x000c5298                PEM_write_bio_PrivateKey
                0x000c54a8                PEM_write_PUBKEY
                0x000c4388                PEM_write_PKCS7
                0x000c5330                PEM_write_PrivateKey
                0x000c3fa8                PEM_read_bio_X509_REQ
                0x000c51b0                PEM_read_DHparams
                0x000c4660                PEM_write_RSAPrivateKey
                0x000c5458                PEM_write_bio_PUBKEY
                0x000c4928                PEM_read_bio_DSAPrivateKey
                0x000c4ca8                PEM_write_bio_DSAparams
                0x000c47a8                PEM_write_RSAPublicKey
                0x000c49a0                PEM_read_DSAPrivateKey
                0x000c3ff0                PEM_read_X509_REQ
                0x000c50c8                PEM_write_bio_EC_PUBKEY
                0x000c4178                PEM_read_bio_X509_CRL
                0x000c5080                PEM_read_EC_PUBKEY
                0x000c40d8                PEM_write_bio_X509_REQ_NEW
                0x000c4c60                PEM_read_DSAparams
                0x000c53c8                PEM_read_bio_PUBKEY
                0x000c45f8                PEM_write_bio_RSAPrivateKey
                0x000c43d8                PEM_read_bio_NETSCAPE_CERT_SEQUENCE
                0x000c5248                PEM_write_DHparams
                0x000c5118                PEM_write_EC_PUBKEY
                0x000c4580                PEM_read_RSAPrivateKey
                0x000c4208                PEM_write_bio_X509_CRL
                0x000c4dd8                PEM_write_bio_ECPKParameters
                0x000c4ae8                PEM_read_bio_DSA_PUBKEY
                0x000c4f68                PEM_write_bio_ECPrivateKey
                0x000c42f0                PEM_read_PKCS7
                0x000c4468                PEM_write_bio_NETSCAPE_CERT_SEQUENCE
                0x000c47f8                PEM_read_bio_RSA_PUBKEY
                0x000c4d48                PEM_read_bio_ECPKParameters
                0x000c5038                PEM_read_bio_EC_PUBKEY
                0x000c4128                PEM_write_X509_REQ_NEW
                0x000c41c0                PEM_read_X509_CRL
 .text          0x000c54f8       0x58 /usr/local/lib/libcrypto.a(pem_err.o)
                0x000c54f8                ERR_load_PEM_strings
 .text          0x000c5550      0x130 /usr/local/lib/libcrypto.a(pem_x509.o)
                0x000c5630                PEM_write_X509
                0x000c5550                PEM_read_bio_X509
                0x000c5598                PEM_read_X509
                0x000c55e0                PEM_write_bio_X509
 .text          0x000c5680       0xb4 /usr/local/lib/libcrypto.a(pem_oth.o)
                0x000c5680                PEM_ASN1_read_bio
 .text          0x000c5734      0x340 /usr/local/lib/libcrypto.a(pem_pkey.o)
                0x000c59d4                PEM_read_PrivateKey
                0x000c5734                PEM_read_bio_PrivateKey
 .text          0x000c5a74      0x180 /usr/local/lib/libcrypto.a(x509_d2.o)
                0x000c5b5c                X509_STORE_set_default_paths
                0x000c5a74                X509_STORE_load_locations
 .text          0x000c5bf4      0xbbc /usr/local/lib/libcrypto.a(x509_cmp.o)
                0x000c64d4                X509_issuer_name_hash
                0x000c652c                X509_subject_name_hash
                0x000c668c                X509_find_by_issuer_and_serial
                0x000c6554                X509_cmp
                0x000c631c                X509_get_pubkey
                0x000c6734                X509_find_by_subject
                0x000c6198                X509_check_private_key
                0x000c665c                X509_CRL_cmp
                0x000c6310                X509_get_subject_name
                0x000c635c                X509_get0_pubkey_bitstr
                0x000c637c                X509_issuer_and_serial_cmp
                0x000c64fc                X509_subject_name_cmp
                0x000c63c8                X509_issuer_and_serial_hash
                0x000c62f8                X509_get_serialNumber
                0x000c64a4                X509_issuer_name_cmp
                0x000c5f38                X509_NAME_cmp
                0x000c6304                X509_get_issuer_name
                0x000c65ac                X509_NAME_hash
 .text          0x000c67b0      0x380 /usr/local/lib/libcrypto.a(x509_obj.o)
                0x000c67b0                X509_NAME_oneline
 .text          0x000c6b30     0x22c4 /usr/local/lib/libcrypto.a(x509_vfy.o)
                0x000c8464                X509_STORE_CTX_free
                0x000c85a4                X509_STORE_CTX_set_ex_data
                0x000c85fc                X509_STORE_CTX_get_error_depth
                0x000c86a8                X509_STORE_CTX_set_chain
                0x000c86b0                X509_STORE_CTX_set0_crls
                0x000c88b4                X509_STORE_CTX_get0_policy_tree
                0x000c86a0                X509_STORE_CTX_set_cert
                0x000c86e4                X509_STORE_CTX_set_trust
                0x000c8860                X509_STORE_CTX_set_flags
                0x000c8614                X509_STORE_CTX_get1_chain
                0x000c8710                X509_STORE_CTX_purpose_inherit
                0x000c8124                X509_STORE_CTX_init
                0x000c8954                X509_cmp_current_time
                0x000c860c                X509_STORE_CTX_get_chain
                0x000c6b30                X509_verify_cert
                0x000c7d70                X509_cmp_time
                0x000c8a0c                X509_gmtime_adj
                0x000c85f4                X509_STORE_CTX_set_error
                0x000c88c4                X509_STORE_CTX_get0_param
                0x000c8604                X509_STORE_CTX_get_current_cert
                0x000c8978                X509_time_adj
                0x000c8884                X509_STORE_CTX_set_time
                0x000c890c                X509_STORE_CTX_set_default
                0x000c84ac                X509_STORE_CTX_cleanup
                0x000c88cc                X509_STORE_CTX_set0_param
                0x000c85c8                X509_STORE_CTX_get_ex_data
                0x000c86b8                X509_STORE_CTX_set_purpose
                0x000c8560                X509_STORE_CTX_get_ex_new_index
                0x000c7fe4                X509_get_pubkey_parameters
                0x000c85ec                X509_STORE_CTX_get_error
                0x000c8498                X509_STORE_CTX_trusted_stack
                0x000c83ec                X509_STORE_CTX_new
                0x000c88bc                X509_STORE_CTX_get_explicit_policy
                0x000c83c8                X509_STORE_CTX_set_depth
                0x000c88ac                X509_STORE_CTX_set_verify_cb
 .text          0x000c8df4       0x58 /usr/local/lib/libcrypto.a(x509_err.o)
                0x000c8df4                ERR_load_X509_strings
 .text          0x000c8e4c      0xa04 /usr/local/lib/libcrypto.a(x509name.o)
                0x000c8e4c                X509_NAME_add_entry
                0x000c9820                X509_NAME_ENTRY_get_object
                0x000c901c                X509_NAME_get_text_by_NID
                0x000c9358                X509_NAME_add_entry_by_OBJ
                0x000c925c                X509_NAME_delete_entry
                0x000c9568                X509_NAME_add_entry_by_txt
                0x000c9164                X509_NAME_get_index_by_OBJ
                0x000c9118                X509_NAME_get_index_by_NID
                0x000c94d8                X509_NAME_ENTRY_create_by_NID
                0x000c9838                X509_NAME_ENTRY_get_data
                0x000c95d0                X509_NAME_ENTRY_create_by_OBJ
                0x000c93c0                X509_NAME_add_entry_by_NID
                0x000c8fe8                X509_NAME_entry_count
                0x000c9200                X509_NAME_get_entry
                0x000c969c                X509_NAME_ENTRY_set_object
                0x000c9428                X509_NAME_ENTRY_create_by_txt
                0x000c9070                X509_NAME_get_text_by_OBJ
                0x000c9724                X509_NAME_ENTRY_set_data
 .text          0x000c9850      0x654 /usr/local/lib/libcrypto.a(x509_v3.o)
                0x000c9c88                X509_EXTENSION_create_by_OBJ
                0x000c9d78                X509_EXTENSION_set_object
                0x000c9960                X509v3_get_ext_by_critical
                0x000c98cc                X509v3_get_ext_by_OBJ
                0x000c9ad4                X509v3_add_ext
                0x000c9ddc                X509_EXTENSION_set_critical
                0x000c9a1c                X509v3_get_ext
                0x000c9e08                X509_EXTENSION_set_data
                0x000c9e80                X509_EXTENSION_get_critical
                0x000c9e50                X509_EXTENSION_get_object
                0x000c9e68                X509_EXTENSION_get_data
                0x000c9a78                X509v3_delete_ext
                0x000c9850                X509v3_get_ext_count
                0x000c9880                X509v3_get_ext_by_NID
                0x000c9bfc                X509_EXTENSION_create_by_NID
 .text          0x000c9ea4      0x438 /usr/local/lib/libcrypto.a(x509_ext.o)
                0x000c9ef4                X509_get_ext_by_OBJ
                0x000c9f44                X509_get_ext
                0x000ca264                X509_REVOKED_add_ext
                0x000c9f1c                X509_get_ext_by_critical
                0x000ca018                X509_CRL_get_ext_count
                0x000ca1f8                X509_REVOKED_get_ext_by_critical
                0x000ca294                X509_REVOKED_get_ext_d2i
                0x000c9f94                X509_add_ext
                0x000ca18c                X509_REVOKED_get_ext_count
                0x000ca2b8                X509_REVOKED_add1_ext_i2d
                0x000ca240                X509_REVOKED_delete_ext
                0x000ca21c                X509_REVOKED_get_ext
                0x000ca068                X509_CRL_get_ext_by_OBJ
                0x000ca164                X509_CRL_add1_ext_i2d
                0x000c9ff0                X509_add1_ext_i2d
                0x000ca13c                X509_CRL_get_ext_d2i
                0x000c9fc8                X509_get_ext_d2i
                0x000ca108                X509_CRL_add_ext
                0x000ca1d4                X509_REVOKED_get_ext_by_OBJ
                0x000ca0b8                X509_CRL_get_ext
                0x000c9f6c                X509_delete_ext
                0x000c9ecc                X509_get_ext_by_NID
                0x000ca0e0                X509_CRL_delete_ext
                0x000ca040                X509_CRL_get_ext_by_NID
                0x000c9ea4                X509_get_ext_count
                0x000ca1b0                X509_REVOKED_get_ext_by_NID
                0x000ca090                X509_CRL_get_ext_by_critical
 .text          0x000ca2dc      0x134 /usr/local/lib/libcrypto.a(x509type.o)
                0x000ca2dc                X509_certificate_type
 .text          0x000ca410     0x1080 /usr/local/lib/libcrypto.a(x509_lu.o)
                0x000cafcc                X509_STORE_get_by_subject
                0x000cb120                X509_LOOKUP_new
                0x000cab78                X509_STORE_new
                0x000cb338                X509_LOOKUP_by_alias
                0x000ca634                X509_STORE_CTX_get1_issuer
                0x000cb0d0                X509_LOOKUP_ctrl
                0x000ca538                X509_OBJECT_retrieve_match
                0x000cb1b8                X509_LOOKUP_free
                0x000cb2f4                X509_LOOKUP_by_fingerprint
                0x000cb260                X509_LOOKUP_by_subject
                0x000caab8                X509_OBJECT_up_ref_count
                0x000ca964                X509_STORE_set_depth
                0x000caec0                X509_STORE_add_crl
                0x000caa0c                X509_OBJECT_retrieve_by_subject
                0x000cad94                X509_STORE_set1_param
                0x000ca98c                X509_OBJECT_idx_by_subject
                0x000cb37c                X509_LOOKUP_shutdown
                0x000ca410                X509_STORE_add_lookup
                0x000cb210                X509_LOOKUP_init
                0x000cad70                X509_STORE_set_trust
                0x000cab30                X509_OBJECT_free_contents
                0x000cadb8                X509_STORE_add_cert
                0x000cad28                X509_STORE_set_flags
                0x000cac34                X509_STORE_free
                0x000cad4c                X509_STORE_set_purpose
                0x000cb2b0                X509_LOOKUP_by_issuer_serial
 .text          0x000cb490     0x1028 /usr/local/lib/libcrypto.a(x_all.o)
                0x000cc480                d2i_PUBKEY_bio
                0x000cbac0                d2i_RSA_PUBKEY_fp
                0x000cb4cc                d2i_PKCS7_fp
                0x000cc2ec                i2d_PKCS8_bio
                0x000cbf5c                i2d_X509_CRL_bio
                0x000cb790                X509_pubkey_digest
                0x000cb6c0                X509_REQ_sign
                0x000cc07c                i2d_RSAPublicKey_bio
                0x000cc14c                i2d_DSA_PUBKEY_bio
                0x000cbf8c                d2i_X509_REQ_bio
                0x000cc1b4                i2d_DSAPrivateKey_bio
                0x000cb8e0                d2i_X509_fp
                0x000cb640                NETSCAPE_SPKI_verify
                0x000cba60                d2i_RSAPublicKey_fp
                0x000cbf2c                d2i_X509_CRL_bio
                0x000cc1e4                d2i_EC_PUBKEY_bio
                0x000cc3e8                i2d_PrivateKey_bio
                0x000cbfec                d2i_RSAPrivateKey_bio
                0x000cbe2c                d2i_PrivateKey_fp
                0x000cbe94                d2i_PUBKEY_fp
                0x000cc31c                d2i_PKCS8_PRIV_KEY_INFO_bio
                0x000cb868                X509_REQ_digest
                0x000cbb60                i2d_DSA_PUBKEY_fp
                0x000cbbf8                d2i_EC_PUBKEY_fp
                0x000cbc98                i2d_ECPrivateKey_fp
                0x000cb4fc                i2d_PKCS7_fp
                0x000cb58c                X509_verify
                0x000cb750                NETSCAPE_SPKI_sign
                0x000cb9a0                d2i_X509_REQ_fp
                0x000cbb90                d2i_DSAPrivateKey_fp
                0x000cbdfc                i2d_PrivateKey_fp
                0x000cc0ac                d2i_RSA_PUBKEY_bio
                0x000cbecc                d2i_X509_bio
                0x000cc01c                i2d_RSAPrivateKey_bio
                0x000cb5c8                X509_REQ_verify
                0x000cc384                i2d_PKCS8PrivateKeyInfo_bio
                0x000cbd30                d2i_PKCS8_PRIV_KEY_INFO_fp
                0x000cb700                X509_CRL_sign
                0x000cbc30                i2d_EC_PUBKEY_fp
                0x000cb940                d2i_X509_CRL_fp
                0x000cc21c                i2d_EC_PUBKEY_bio
                0x000cba30                i2d_RSAPrivateKey_fp
                0x000cb52c                d2i_PKCS7_bio
                0x000cc2b4                d2i_PKCS8_bio
                0x000cbe64                i2d_PUBKEY_fp
                0x000cb7f0                X509_digest
                0x000cb970                i2d_X509_CRL_fp
                0x000cbbc8                i2d_DSAPrivateKey_fp
                0x000cc418                d2i_PrivateKey_bio
                0x000cb55c                i2d_PKCS7_bio
                0x000cbcc8                d2i_PKCS8_fp
                0x000cb9d0                i2d_X509_REQ_fp
                0x000cc114                d2i_DSA_PUBKEY_bio
                0x000cbfbc                i2d_X509_REQ_bio
                0x000cb82c                X509_CRL_digest
                0x000cc284                i2d_ECPrivateKey_bio
                0x000cc0e4                i2d_RSA_PUBKEY_bio
                0x000cc450                i2d_PUBKEY_bio
                0x000cbd98                i2d_PKCS8PrivateKeyInfo_fp
                0x000cb8a4                X509_NAME_digest
                0x000cb910                i2d_X509_fp
                0x000cc354                i2d_PKCS8_PRIV_KEY_INFO_bio
                0x000cc17c                d2i_DSAPrivateKey_bio
                0x000cba90                i2d_RSAPublicKey_fp
                0x000cbefc                i2d_X509_bio
                0x000cb604                X509_CRL_verify
                0x000cc24c                d2i_ECPrivateKey_bio
                0x000cbd00                i2d_PKCS8_fp
                0x000cbc60                d2i_ECPrivateKey_fp
                0x000cba00                d2i_RSAPrivateKey_fp
                0x000cc04c                d2i_RSAPublicKey_bio
                0x000cbd68                i2d_PKCS8_PRIV_KEY_INFO_fp
                0x000cbaf8                i2d_RSA_PUBKEY_fp
                0x000cb490                PKCS7_ISSUER_AND_SERIAL_digest
                0x000cb67c                X509_sign
                0x000cbb28                d2i_DSA_PUBKEY_fp
 .text          0x000cc4b8      0x35c /usr/local/lib/libcrypto.a(x509_txt.o)
                0x000cc4b8                X509_verify_cert_error_string
 .text          0x000cc814      0x6f4 /usr/local/lib/libcrypto.a(x509_trs.o)
                0x000ccce8                X509_TRUST_get_trust
                0x000ccbf8                X509_TRUST_get_by_id
                0x000ccc50                X509_TRUST_cleanup
                0x000cccd8                X509_TRUST_get_flags
                0x000ccae8                X509_check_trust
                0x000ccba0                X509_TRUST_get0
                0x000ccce0                X509_TRUST_get0_name
                0x000cc814                X509_TRUST_add
                0x000cca2c                X509_TRUST_set_default
                0x000ccb64                X509_TRUST_get_count
                0x000cca40                X509_TRUST_set
 .text          0x000ccf08      0x58c /usr/local/lib/libcrypto.a(by_file.o)
                0x000cd0c8                X509_load_crl_file
                0x000cd294                X509_load_cert_crl_file
                0x000ccf08                X509_load_cert_file
                0x000cd288                X509_LOOKUP_file
 .text          0x000cd494      0x704 /usr/local/lib/libcrypto.a(by_dir.o)
                0x000cd9c0                X509_LOOKUP_hash_dir
 .text          0x000cdb98      0x6e4 /usr/local/lib/libcrypto.a(x509_vpm.o)
                0x000cdf94                X509_VERIFY_PARAM_clear_flags
                0x000cdfb4                X509_VERIFY_PARAM_set_purpose
                0x000ce1dc                X509_VERIFY_PARAM_table_cleanup
                0x000cdde0                X509_VERIFY_PARAM_new
                0x000cdfac                X509_VERIFY_PARAM_get_flags
                0x000cdf1c                X509_VERIFY_PARAM_set1_name
                0x000ce158                X509_VERIFY_PARAM_get_depth
                0x000cdffc                X509_VERIFY_PARAM_set_depth
                0x000ce018                X509_VERIFY_PARAM_add0_policy
                0x000ce004                X509_VERIFY_PARAM_set_time
                0x000cdfd8                X509_VERIFY_PARAM_set_trust
                0x000cdce8                X509_VERIFY_PARAM_add0_table
                0x000ce160                X509_VERIFY_PARAM_lookup
                0x000ce07c                X509_VERIFY_PARAM_set1_policies
                0x000cdb98                X509_VERIFY_PARAM_inherit
                0x000cdeec                X509_VERIFY_PARAM_set1
                0x000cde78                X509_VERIFY_PARAM_free
                0x000cdf70                X509_VERIFY_PARAM_set_flags
 .text          0x000ce27c      0x8b8 /usr/local/lib/libcrypto.a(v3_lib.o)
                0x000ce870                X509V3_EXT_get
                0x000ce524                X509V3_add1_i2d
                0x000ce760                X509V3_EXT_add_list
                0x000ce9bc                X509V3_add_standard_extensions
                0x000ce6b4                X509V3_EXT_add
                0x000ce424                X509V3_EXT_d2i
                0x000ce27c                X509V3_EXT_add_alias
                0x000ce918                X509V3_EXT_get_nid
                0x000ce9c4                X509V3_get_d2i
                0x000ce830                X509V3_EXT_cleanup
 .text          0x000ceb34      0x77c /usr/local/lib/libcrypto.a(v3_prn.o)
                0x000cee5c                X509V3_extensions_print
                0x000cf160                X509V3_EXT_print_fp
                0x000cf000                X509V3_EXT_val_prn
                0x000ceb34                X509V3_EXT_print
 .text          0x000cf2b0     0x2048 /usr/local/lib/libcrypto.a(v3_utl.o)
                0x000cf470                s2i_ASN1_INTEGER
                0x000cf784                X509V3_get_value_bool
                0x000d0c74                X509_REQ_get1_email
                0x000cf5fc                X509V3_add_value_int
                0x000d0a34                i2s_ASN1_ENUMERATED
                0x000cf2b0                X509V3_add_value_bool
                0x000d0e40                a2i_ipadd
                0x000d0cf0                X509_email_free
                0x000cf944                X509V3_parse_list
                0x000d089c                X509V3_add_value_uchar
                0x000d0dd0                a2i_IPADDRESS
                0x000d0708                X509V3_get_value_int
                0x000d0580                X509V3_conf_free
                0x000d0ebc                X509V3_NAME_from_section
                0x000d05e4                X509V3_add_value_bool_nf
                0x000cff48                string_to_hex
                0x000d09b4                i2s_ASN1_INTEGER
                0x000d0788                X509V3_add_value
                0x000d0b9c                name_cmp
                0x000d0c10                X509_get1_email
                0x000d0d18                X509_get1_ocsp
                0x000d0ab4                hex_to_string
                0x000d01a0                a2i_IPADDRESS_NC
 .text          0x000d12f8       0x58 /usr/local/lib/libcrypto.a(v3err.o)
                0x000d12f8                ERR_load_X509V3_strings
 .text          0x000d1350      0x280 /usr/local/lib/libcrypto.a(v3_genn.o)
                0x000d1530                EDIPARTYNAME_new
                0x000d1440                d2i_GENERAL_NAMES
                0x000d13a0                d2i_GENERAL_NAME
                0x000d15a8                i2d_EDIPARTYNAME
                0x000d1508                i2d_OTHERNAME
                0x000d1490                OTHERNAME_new
                0x000d1558                EDIPARTYNAME_free
                0x000d1468                i2d_GENERAL_NAMES
                0x000d1580                d2i_EDIPARTYNAME
                0x000d14e0                d2i_OTHERNAME
                0x000d1350                GENERAL_NAME_new
                0x000d14b8                OTHERNAME_free
                0x000d1378                GENERAL_NAME_free
                0x000d1418                GENERAL_NAMES_free
                0x000d13c8                i2d_GENERAL_NAME
                0x000d13f0                GENERAL_NAMES_new
 .text          0x000d15d0     0x1000 /usr/local/lib/libcrypto.a(v3_alt.o)
                0x000d2220                v2i_GENERAL_NAMES
                0x000d21a0                i2v_GENERAL_NAMES
                0x000d1814                GENERAL_NAME_print
                0x000d1e50                v2i_GENERAL_NAME_ex
                0x000d15d0                i2v_GENERAL_NAME
                0x000d22e4                v2i_GENERAL_NAME
 .text          0x000d25d0      0x294 /usr/local/lib/libcrypto.a(v3_skey.o)
                0x000d27d8                s2i_ASN1_OCTET_STRING
                0x000d27ac                i2s_ASN1_OCTET_STRING
 .text          0x000d2864      0x3e0 /usr/local/lib/libcrypto.a(v3_akey.o)
 .text          0x000d2c44      0x168 /usr/local/lib/libcrypto.a(v3_pku.o)
                0x000d2c94                d2i_PKEY_USAGE_PERIOD
                0x000d2cbc                i2d_PKEY_USAGE_PERIOD
                0x000d2c44                PKEY_USAGE_PERIOD_new
                0x000d2c6c                PKEY_USAGE_PERIOD_free
 .text          0x000d2dac       0x24 /usr/local/lib/libcrypto.a(v3_int.o)
 .text          0x000d2dd0       0x70 /usr/local/lib/libcrypto.a(v3_enum.o)
                0x000d2dd0                i2s_ASN1_ENUMERATED_TABLE
 .text          0x000d2e40      0x700 /usr/local/lib/libcrypto.a(v3_sxnet.o)
                0x000d32d0                SXNET_get_id_ulong
                0x000d31c0                SXNET_add_id_ulong
                0x000d30fc                d2i_SXNETID
                0x000d2e40                SXNET_add_id_INTEGER
                0x000d3368                SXNET_get_id_INTEGER
                0x000d30ac                SXNETID_new
                0x000d3034                SXNET_free
                0x000d3124                i2d_SXNETID
                0x000d305c                d2i_SXNET
                0x000d3258                SXNET_get_id_asc
                0x000d314c                SXNET_add_id_asc
                0x000d3084                i2d_SXNET
                0x000d30d4                SXNETID_free
                0x000d300c                SXNET_new
 .text          0x000d3540     0x10a4 /usr/local/lib/libcrypto.a(v3_cpols.o)
                0x000d41bc                d2i_NOTICEREF
                0x000d3fb4                POLICYINFO_free
                0x000d3fdc                d2i_POLICYINFO
                0x000d3f14                CERTIFICATEPOLICIES_free
                0x000d411c                d2i_USERNOTICE
                0x000d40a4                i2d_POLICYQUALINFO
                0x000d4144                i2d_USERNOTICE
                0x000d416c                NOTICEREF_new
                0x000d4054                POLICYQUALINFO_free
                0x000d3eec                CERTIFICATEPOLICIES_new
                0x000d4004                i2d_POLICYINFO
                0x000d40cc                USERNOTICE_new
                0x000d3f3c                d2i_CERTIFICATEPOLICIES
                0x000d3f8c                POLICYINFO_new
                0x000d402c                POLICYQUALINFO_new
                0x000d41e4                i2d_NOTICEREF
                0x000d407c                d2i_POLICYQUALINFO
                0x000d3d3c                X509_POLICY_NODE_print
                0x000d40f4                USERNOTICE_free
                0x000d4194                NOTICEREF_free
                0x000d3f64                i2d_CERTIFICATEPOLICIES
 .text          0x000d45e4      0x3fc /usr/local/lib/libcrypto.a(v3_crld.o)
                0x000d4834                i2d_DIST_POINT
                0x000d471c                CRL_DIST_POINTS_new
                0x000d48ac                d2i_DIST_POINT_NAME
                0x000d485c                DIST_POINT_NAME_new
                0x000d476c                d2i_CRL_DIST_POINTS
                0x000d4744                CRL_DIST_POINTS_free
                0x000d4884                DIST_POINT_NAME_free
                0x000d4794                i2d_CRL_DIST_POINTS
                0x000d480c                d2i_DIST_POINT
                0x000d47bc                DIST_POINT_new
                0x000d47e4                DIST_POINT_free
                0x000d48d4                i2d_DIST_POINT_NAME
 .text          0x000d49e0     0x131c /usr/local/lib/libcrypto.a(v3_purp.o)
                0x000d5934                X509_PURPOSE_get_trust
                0x000d59d0                X509_PURPOSE_get_id
                0x000d57bc                X509_PURPOSE_get0
                0x000d58cc                X509_PURPOSE_get_by_id
                0x000d5520                X509_check_ca
                0x000d5814                X509_PURPOSE_get_by_sname
                0x000d592c                X509_PURPOSE_get0_sname
                0x000d49e0                X509_PURPOSE_add
                0x000d5780                X509_PURPOSE_get_count
                0x000d5924                X509_PURPOSE_get0_name
                0x000d5600                X509_check_purpose
                0x000d593c                X509_PURPOSE_cleanup
                0x000d5718                X509_PURPOSE_set
                0x000d56b4                X509_supported_extension
                0x000d5394                X509_check_issued
 .text          0x000d5cfc      0x4ac /usr/local/lib/libcrypto.a(v3_info.o)
                0x000d6180                i2d_AUTHORITY_INFO_ACCESS
                0x000d6040                i2a_ACCESS_DESCRIPTION
                0x000d6158                d2i_AUTHORITY_INFO_ACCESS
                0x000d60b8                d2i_ACCESS_DESCRIPTION
                0x000d6068                ACCESS_DESCRIPTION_new
                0x000d6108                AUTHORITY_INFO_ACCESS_new
                0x000d6130                AUTHORITY_INFO_ACCESS_free
                0x000d6090                ACCESS_DESCRIPTION_free
                0x000d60e0                i2d_ACCESS_DESCRIPTION
 .text          0x000d61a8      0x558 /usr/local/lib/libcrypto.a(v3_ocsp.o)
 .text          0x000d6700       0xa0 /usr/local/lib/libcrypto.a(v3_akeya.o)
                0x000d6750                d2i_AUTHORITY_KEYID
                0x000d6700                AUTHORITY_KEYID_new
                0x000d6778                i2d_AUTHORITY_KEYID
                0x000d6728                AUTHORITY_KEYID_free
 .text          0x000d67a0      0x2c8 /usr/local/lib/libcrypto.a(v3_pmaps.o)
                0x000d69ac                POLICY_MAPPING_free
                0x000d6984                POLICY_MAPPING_new
 .text          0x000d6a68      0x224 /usr/local/lib/libcrypto.a(v3_pcons.o)
                0x000d6be0                POLICY_CONSTRAINTS_new
                0x000d6c08                POLICY_CONSTRAINTS_free
 .text          0x000d6c8c      0x4e8 /usr/local/lib/libcrypto.a(v3_ncons.o)
                0x000d6eac                NAME_CONSTRAINTS_new
                0x000d6ed4                NAME_CONSTRAINTS_free
                0x000d6e5c                GENERAL_SUBTREE_new
                0x000d6e84                GENERAL_SUBTREE_free
 .text          0x000d7174      0x140 /usr/local/lib/libcrypto.a(v3_pcia.o)
                0x000d723c                PROXY_CERT_INFO_EXTENSION_free
                0x000d7214                PROXY_CERT_INFO_EXTENSION_new
                0x000d719c                PROXY_POLICY_free
                0x000d7264                d2i_PROXY_CERT_INFO_EXTENSION
                0x000d71c4                d2i_PROXY_POLICY
                0x000d728c                i2d_PROXY_CERT_INFO_EXTENSION
                0x000d71ec                i2d_PROXY_POLICY
                0x000d7174                PROXY_POLICY_new
 .text          0x000d72b4      0x8d0 /usr/local/lib/libcrypto.a(v3_pci.o)
 .text          0x000d7b84      0x4cc /usr/local/lib/libcrypto.a(pcy_cache.o)
                0x000d7eb4                policy_cache_find_data
                0x000d7f64                policy_cache_set
                0x000d7f08                policy_cache_free
 .text          0x000d8050      0x16c /usr/local/lib/libcrypto.a(pcy_data.o)
                0x000d8050                policy_data_new
                0x000d8158                policy_data_free
 .text          0x000d81bc      0x2a4 /usr/local/lib/libcrypto.a(pcy_map.o)
                0x000d81bc                policy_cache_set_mapping
 .text          0x000d8460      0xdf4 /usr/local/lib/libcrypto.a(pcy_tree.o)
                0x000d8e68                X509_policy_check
                0x000d9150                X509_policy_tree_free
 .text          0x000d9254      0x188 /usr/local/lib/libcrypto.a(pcy_lib.o)
                0x000d9344                X509_policy_level_get0_node
                0x000d92e8                X509_policy_level_node_count
                0x000d93c4                X509_policy_node_get0_parent
                0x000d93a8                X509_policy_node_get0_qualifiers
                0x000d938c                X509_policy_node_get0_policy
                0x000d92bc                X509_policy_tree_get0_user_policies
                0x000d9254                X509_policy_tree_level_count
                0x000d926c                X509_policy_tree_get0_level
                0x000d92a4                X509_policy_tree_get0_policies
 .text          0x000d93dc       0x58 /usr/local/lib/libcrypto.a(conf_err.o)
                0x000d93dc                ERR_load_CONF_strings
 .text          0x000d9434      0xd84 /usr/local/lib/libcrypto.a(conf_mod.o)
                0x000d9b54                CONF_get1_default_config_file
                0x000d9a40                CONF_module_add
                0x000d9b24                CONF_imodule_set_usr_data
                0x000d9b14                CONF_imodule_get_value
                0x000d9b3c                CONF_imodule_set_flags
                0x000d9824                CONF_modules_load
                0x000d9b4c                CONF_module_set_usr_data
                0x000d99e4                CONF_modules_finish
                0x000d9b1c                CONF_imodule_get_usr_data
                0x000d9b2c                CONF_imodule_get_module
                0x000d9c08                CONF_parse_list
                0x000d9924                CONF_modules_unload
                0x000d9b34                CONF_imodule_get_flags
                0x000d9b44                CONF_module_get_usr_data
                0x000d9434                CONF_modules_load_file
                0x000d9760                CONF_modules_free
                0x000d9b0c                CONF_imodule_get_name
 .text          0x000da1b8       0x28 /usr/local/lib/libcrypto.a(conf_mall.o)
                0x000da1b8                OPENSSL_load_builtin_modules
 .text          0x000da1e0      0x6fc /usr/local/lib/libcrypto.a(pk7_asn1.o)
                0x000da2fc                d2i_PKCS7_SIGNER_INFO
                0x000da280                PKCS7_dup
                0x000da34c                PKCS7_RECIP_INFO_new
                0x000da75c                d2i_PKCS7_ENCRYPT
                0x000da324                i2d_PKCS7_SIGNER_INFO
                0x000da39c                d2i_PKCS7_RECIP_INFO
                0x000da5cc                PKCS7_SIGN_ENVELOPE_new
                0x000da554                PKCS7_ENVELOPE_free
                0x000da374                PKCS7_RECIP_INFO_free
                0x000da258                i2d_PKCS7_ISSUER_AND_SERIAL
                0x000da6e4                i2d_PKCS7_DIGEST
                0x000da1e0                PKCS7_ISSUER_AND_SERIAL_new
                0x000da2ac                PKCS7_SIGNER_INFO_new
                0x000da3ec                PKCS7_SIGNED_new
                0x000da5a4                i2d_PKCS7_ENVELOPE
                0x000da61c                d2i_PKCS7_SIGN_ENVELOPE
                0x000da48c                PKCS7_ENC_CONTENT_new
                0x000da414                PKCS7_SIGNED_free
                0x000da7ac                PKCS7_new
                0x000da4dc                d2i_PKCS7_ENC_CONTENT
                0x000da5f4                PKCS7_SIGN_ENVELOPE_free
                0x000da52c                PKCS7_ENVELOPE_new
                0x000da57c                d2i_PKCS7_ENVELOPE
                0x000da694                PKCS7_DIGEST_free
                0x000da644                i2d_PKCS7_SIGN_ENVELOPE
                0x000da7fc                d2i_PKCS7
                0x000da7d4                PKCS7_free
                0x000da208                PKCS7_ISSUER_AND_SERIAL_free
                0x000da43c                d2i_PKCS7_SIGNED
                0x000da230                d2i_PKCS7_ISSUER_AND_SERIAL
                0x000da4b4                PKCS7_ENC_CONTENT_free
                0x000da504                i2d_PKCS7_ENC_CONTENT
                0x000da3c4                i2d_PKCS7_RECIP_INFO
                0x000da84c                i2d_PKCS7_NDEF
                0x000da824                i2d_PKCS7
                0x000da66c                PKCS7_DIGEST_new
                0x000da2d4                PKCS7_SIGNER_INFO_free
                0x000da6bc                d2i_PKCS7_DIGEST
                0x000da464                i2d_PKCS7_SIGNED
                0x000da784                i2d_PKCS7_ENCRYPT
                0x000da734                PKCS7_ENCRYPT_free
                0x000da70c                PKCS7_ENCRYPT_new
 .text          0x000da8dc       0x58 /usr/local/lib/libcrypto.a(pkcs7err.o)
                0x000da8dc                ERR_load_PKCS7_strings
 .text          0x000da934      0x280 /usr/local/lib/libcrypto.a(p12_asn.o)
                0x000da984                d2i_PKCS12
                0x000daaec                i2d_PKCS12_SAFEBAG
                0x000daac4                d2i_PKCS12_SAFEBAG
                0x000da9ac                i2d_PKCS12
                0x000daa9c                PKCS12_SAFEBAG_free
                0x000daa74                PKCS12_SAFEBAG_new
                0x000da95c                PKCS12_free
                0x000dab3c                PKCS12_BAGS_free
                0x000daa24                d2i_PKCS12_MAC_DATA
                0x000da9d4                PKCS12_MAC_DATA_new
                0x000da9fc                PKCS12_MAC_DATA_free
                0x000da934                PKCS12_new
                0x000dab8c                i2d_PKCS12_BAGS
                0x000dab14                PKCS12_BAGS_new
                0x000dab64                d2i_PKCS12_BAGS
                0x000daa4c                i2d_PKCS12_MAC_DATA
 .text          0x000dabb4      0x2d0 /usr/local/lib/libcrypto.a(p12_crpt.o)
                0x000dad9c                PKCS12_PBE_add
                0x000dabb4                PKCS12_PBE_keyivgen
 .text          0x000dae84      0x504 /usr/local/lib/libcrypto.a(p12_key.o)
                0x000dae84                PKCS12_key_gen_uni
                0x000db2b4                PKCS12_key_gen_asc
 .text          0x000db388      0x6ec /usr/local/lib/libcrypto.a(p12_kiss.o)
                0x000db388                PKCS12_parse
 .text          0x000dba74      0x548 /usr/local/lib/libcrypto.a(p12_mutl.o)
                0x000dbdec                PKCS12_verify_mac
                0x000dba74                PKCS12_gen_mac
                0x000dbeb0                PKCS12_set_mac
                0x000dbc08                PKCS12_setup_mac
 .text          0x000dbfbc      0x368 /usr/local/lib/libcrypto.a(p12_utl.o)
                0x000dc01c                PKCS12_certbag2x509
                0x000dc1b8                uni2asc
                0x000dc294                i2d_PKCS12_fp
                0x000dc0ec                asc2uni
                0x000dc084                PKCS12_certbag2x509crl
                0x000dbfec                PKCS12_x509crl2certbag
                0x000dc264                i2d_PKCS12_bio
                0x000dc2f4                d2i_PKCS12_fp
                0x000dc2c4                d2i_PKCS12_bio
                0x000dbfbc                PKCS12_x5092certbag
 .text          0x000dc324       0x58 /usr/local/lib/libcrypto.a(pk12err.o)
                0x000dc324                ERR_load_PKCS12_strings
 .text          0x000dc37c       0x40 /usr/local/lib/libcrypto.a(p12_p8d.o)
                0x000dc37c                PKCS8_decrypt
 .text          0x000dc3bc      0x1b8 /usr/local/lib/libcrypto.a(comp_lib.o)
                0x000dc49c                COMP_compress_block
                0x000dc3bc                COMP_CTX_new
                0x000dc508                COMP_expand_block
                0x000dc44c                COMP_CTX_free
 .text          0x000dc574      0xc10 /usr/local/lib/libcrypto.a(c_zlib.o)
                0x000dcdd8                COMP_zlib_cleanup
                0x000dcd28                COMP_zlib
                0x000dcddc                BIO_f_zlib
 .text          0x000dd184      0x960 /usr/local/lib/libcrypto.a(ocsp_asn.o)
                0x000dd2ec                OCSP_CERTSTATUS_free
                0x000dd954                d2i_OCSP_REQINFO
                0x000dd184                OCSP_RESPID_new
                0x000dd42c                OCSP_BASICRESP_free
                0x000dd4f4                d2i_OCSP_RESPDATA
                0x000dd83c                i2d_OCSP_REQUEST
                0x000dd6ac                OCSP_ONEREQ_free
                0x000dd79c                i2d_OCSP_CERTID
                0x000dd92c                OCSP_REQINFO_free
                0x000dd9a4                OCSP_CRLID_new
                0x000dd7ec                OCSP_REQUEST_free
                0x000dd864                OCSP_SIGNATURE_new
                0x000dda94                d2i_OCSP_SERVICELOC
                0x000dd1ac                OCSP_RESPID_free
                0x000dd88c                OCSP_SIGNATURE_free
                0x000dd544                OCSP_RESPONSE_new
                0x000dd5e4                OCSP_RESPBYTES_new
                0x000dd6fc                i2d_OCSP_ONEREQ
                0x000dd904                OCSP_REQINFO_new
                0x000dd274                d2i_OCSP_SINGLERESP
                0x000dd56c                OCSP_RESPONSE_free
                0x000dd774                d2i_OCSP_CERTID
                0x000dd364                OCSP_REVOKEDINFO_new
                0x000dd3dc                i2d_OCSP_REVOKEDINFO
                0x000dd65c                i2d_OCSP_RESPBYTES
                0x000dd684                OCSP_ONEREQ_new
                0x000dd2c4                OCSP_CERTSTATUS_new
                0x000dda44                OCSP_SERVICELOC_new
                0x000dd8b4                d2i_OCSP_SIGNATURE
                0x000dd454                d2i_OCSP_BASICRESP
                0x000dd97c                i2d_OCSP_REQINFO
                0x000dd814                d2i_OCSP_REQUEST
                0x000dd1d4                d2i_OCSP_RESPID
                0x000dda6c                OCSP_SERVICELOC_free
                0x000dd38c                OCSP_REVOKEDINFO_free
                0x000dd404                OCSP_BASICRESP_new
                0x000dd724                OCSP_CERTID_new
                0x000dd224                OCSP_SINGLERESP_new
                0x000dd314                d2i_OCSP_CERTSTATUS
                0x000dd4cc                OCSP_RESPDATA_free
                0x000ddabc                i2d_OCSP_SERVICELOC
                0x000dd29c                i2d_OCSP_SINGLERESP
                0x000dd24c                OCSP_SINGLERESP_free
                0x000dd5bc                i2d_OCSP_RESPONSE
                0x000dd9cc                OCSP_CRLID_free
                0x000dd7c4                OCSP_REQUEST_new
                0x000dd33c                i2d_OCSP_CERTSTATUS
                0x000dd74c                OCSP_CERTID_free
                0x000dd6d4                d2i_OCSP_ONEREQ
                0x000dd9f4                d2i_OCSP_CRLID
                0x000dd634                d2i_OCSP_RESPBYTES
                0x000dd4a4                OCSP_RESPDATA_new
                0x000dd1fc                i2d_OCSP_RESPID
                0x000dd8dc                i2d_OCSP_SIGNATURE
                0x000dd47c                i2d_OCSP_BASICRESP
                0x000dd60c                OCSP_RESPBYTES_free
                0x000dda1c                i2d_OCSP_CRLID
                0x000dd594                d2i_OCSP_RESPONSE
                0x000dd3b4                d2i_OCSP_REVOKEDINFO
                0x000dd51c                i2d_OCSP_RESPDATA
 .text          0x000ddae4      0x9d4 /usr/local/lib/libcrypto.a(ocsp_cl.o)
                0x000de03c                OCSP_request_add1_cert
                0x000ddf30                OCSP_request_add0_id
                0x000de0f4                OCSP_response_status
                0x000de360                OCSP_resp_find_status
                0x000ddae4                OCSP_request_sign
                0x000de1e0                OCSP_resp_get0
                0x000de118                OCSP_response_get1_basic
                0x000de218                OCSP_resp_find
                0x000ddd88                OCSP_check_validity
                0x000ddfb0                OCSP_request_set1_name
                0x000de1a8                OCSP_resp_count
                0x000de2b0                OCSP_single_get0_status
 .text          0x000de4b8      0x5dc /usr/local/lib/libcrypto.a(ocsp_srv.o)
                0x000dea0c                OCSP_basic_add1_cert
                0x000de8e8                OCSP_onereq_get0_id
                0x000de660                OCSP_basic_sign
                0x000de95c                OCSP_response_create
                0x000de94c                OCSP_request_is_signed
                0x000de4b8                OCSP_basic_add1_status
                0x000de8f0                OCSP_id_get0_info
                0x000de898                OCSP_request_onereq_count
                0x000de8c0                OCSP_request_onereq_get0
 .text          0x000dea94      0x964 /usr/local/lib/libcrypto.a(ocsp_prn.o)
                0x000ded28                OCSP_RESPONSE_print
                0x000df334                OCSP_cert_status_str
                0x000dea94                OCSP_REQUEST_print
                0x000df2ec                OCSP_response_status_str
                0x000df37c                OCSP_crl_reason_str
 .text          0x000df3f8      0xa50 /usr/local/lib/libcrypto.a(ocsp_vfy.o)
                0x000df3f8                OCSP_basic_verify
                0x000df7e4                OCSP_request_verify
 .text          0x000dfe48       0x58 /usr/local/lib/libcrypto.a(ocsp_err.o)
                0x000dfe48                ERR_load_OCSP_strings
 .text          0x000dfea0       0x58 /usr/local/lib/libcrypto.a(ui_err.o)
                0x000dfea0                ERR_load_UI_strings
 .text          0x000dfef8     0x1c54 /usr/local/lib/libcrypto.a(ui_lib.o)
                0x000e1894                UI_method_set_closer
                0x000e1768                UI_get_method
                0x000e18f8                UI_method_get_reader
                0x000e1728                UI_get_default_method
                0x000e11f4                UI_add_verify_string
                0x000e1824                UI_method_set_opener
                0x000e1074                UI_add_input_string
                0x000e18b0                UI_method_get_opener
                0x000e1558                UI_get0_result
                0x000e13a4                UI_dup_input_boolean
                0x000e1374                UI_add_input_boolean
                0x000e0d48                UI_set_result
                0x000e185c                UI_method_set_flusher
                0x000e1940                UI_get_input_flags
                0x000e18e0                UI_method_get_flusher
                0x000e1970                UI_get0_action_string
                0x000e0794                UI_add_error_string
                0x000e15e8                UI_ctrl
                0x000e04c0                UI_add_info_string
                0x000e1958                UI_get0_output_string
                0x000e0a68                UI_construct_prompt
                0x000e1020                UI_free
                0x000e171c                UI_set_default_method
                0x000e1550                UI_get0_user_data
                0x000e16f8                UI_get_ex_data
                0x000e0144                UI_dup_input_string
                0x000e1910                UI_method_get_closer
                0x000e0f60                UI_new
                0x000e1540                UI_add_user_data
                0x000e17e4                UI_destroy_method
                0x000e1770                UI_set_method
                0x000e18c8                UI_method_get_writer
                0x000e19d8                UI_get0_test_string
                0x000e1928                UI_get_string_type
                0x000e0bb4                UI_process
                0x000e177c                UI_create_method
                0x000e16d4                UI_set_ex_data
                0x000e0f84                UI_new_method
                0x000e19a4                UI_get0_result_string
                0x000e19fc                UI_get_result_minsize
                0x000e0608                UI_dup_info_string
                0x000e1840                UI_method_set_writer
                0x000e1a30                UI_get_result_maxsize
                0x000e08dc                UI_dup_error_string
                0x000e1878                UI_method_set_reader
                0x000e1690                UI_get_ex_new_index
                0x000e0300                UI_dup_verify_string
 .text          0x000e1b4c      0x5f0 /usr/local/lib/libcrypto.a(ui_openssl.o)
                0x000e1eac                UI_OpenSSL
 .text          0x000e213c       0x58 /usr/local/lib/libcrypto.a(cpt_err.o)
                0x000e213c                ERR_load_CRYPTO_strings
 .text          0x000e2194       0xac /usr/local/lib/libcrypto.a(uid.o)
                0x000e2194                OPENSSL_issetugid
 .text          0x000e2240       0x58 /usr/local/lib/libcrypto.a(obj_err.o)
                0x000e2240                ERR_load_OBJ_strings
 .text          0x000e2298      0x3c8 /usr/local/lib/libcrypto.a(md2_dgst.o)
                0x000e243c                MD2_Init
                0x000e2430                MD2_options
                0x000e25a0                MD2_Final
                0x000e24ac                MD2_Update
 .text          0x000e2660     0x1b58 /usr/local/lib/libcrypto.a(sha1dgst.o)
                0x000e4194                SHA1_Transform
                0x000e413c                SHA1_Init
                0x000e2660                SHA1_Update
                0x000e27b0                SHA1_Final
 .text          0x000e41b8     0x489c /usr/local/lib/libcrypto.a(sha512.o)
                0x000e8a30                SHA512_Transform
                0x000e41b8                SHA512_Final
                0x000e8674                SHA384_Final
                0x000e8550                SHA384_Init
                0x000e88e4                SHA512
                0x000e8654                SHA384_Update
                0x000e87e0                SHA512_Init
                0x000e4364                SHA512_Update
                0x000e8694                SHA384
 .text          0x000e8a54       0xf8 /usr/local/lib/libcrypto.a(ecb3_enc.o)
                0x000e8a54                DES_ecb3_encrypt
 .text          0x000e8b4c      0x254 /usr/local/lib/libcrypto.a(cfb64enc.o)
                0x000e8b4c                DES_cfb64_encrypt
 .text          0x000e8da0      0x93c /usr/local/lib/libcrypto.a(cfb64ede.o)
                0x000e9008                DES_ede3_cfb_encrypt
                0x000e8da0                DES_ede3_cfb64_encrypt
 .text          0x000e96dc      0x69c /usr/local/lib/libcrypto.a(cfb_enc.o)
                0x000e96dc                DES_cfb_encrypt
 .text          0x000e9d78      0x1dc /usr/local/lib/libcrypto.a(ofb64ede.o)
                0x000e9d78                DES_ede3_ofb64_encrypt
 .text          0x000e9f54      0x1d4 /usr/local/lib/libcrypto.a(ofb64enc.o)
                0x000e9f54                DES_ofb64_encrypt
 .text          0x000ea128       0x30 /usr/local/lib/libcrypto.a(aes_ecb.o)
                0x000ea128                AES_ecb_encrypt
 .text          0x000ea158      0x540 /usr/local/lib/libcrypto.a(aes_cfb.o)
                0x000ea3f4                AES_cfb8_encrypt
                0x000ea510                AES_cfbr_encrypt_block
                0x000ea158                AES_cfb1_encrypt
                0x000ea2fc                AES_cfb128_encrypt
 .text          0x000ea698       0x90 /usr/local/lib/libcrypto.a(aes_ofb.o)
                0x000ea698                AES_ofb128_encrypt
 .text          0x000ea728      0xf80 /usr/local/lib/libcrypto.a(aes_core.o)
                0x000eabf0                AES_set_decrypt_key
                0x000ea728                AES_set_encrypt_key
                0x000eae48                AES_encrypt
                0x000eb27c                AES_decrypt
 .text          0x000eb6a8      0x338 /usr/local/lib/libcrypto.a(aes_cbc.o)
                0x000eb6a8                AES_cbc_encrypt
 .text          0x000eb9e0       0xf4 /usr/local/lib/libcrypto.a(rc2_ecb.o)
                0x000eb9e0                RC2_ecb_encrypt
 .text          0x000ebad4      0x164 /usr/local/lib/libcrypto.a(rc2_skey.o)
                0x000ebad4                RC2_set_key
 .text          0x000ebc38      0x820 /usr/local/lib/libcrypto.a(rc2_cbc.o)
                0x000ec160                RC2_encrypt
                0x000ec2d0                RC2_decrypt
                0x000ebc38                RC2_cbc_encrypt
 .text          0x000ec458      0x24c /usr/local/lib/libcrypto.a(rc2cfb64.o)
                0x000ec458                RC2_cfb64_encrypt
 .text          0x000ec6a4      0x1d0 /usr/local/lib/libcrypto.a(rc2ofb64.o)
                0x000ec6a4                RC2_ofb64_encrypt
 .text          0x000ec874      0x758 /usr/local/lib/libcrypto.a(rc4_enc.o)
                0x000ec874                RC4
 .text          0x000ecfcc      0x144 /usr/local/lib/libcrypto.a(rc4_skey.o)
                0x000ed104                RC4_options
                0x000ecfcc                RC4_set_key
 .text          0x000ed110      0xe00 /usr/local/lib/libcrypto.a(i_cbc.o)
                0x000ed110                idea_cbc_encrypt
                0x000ed640                idea_encrypt
 .text          0x000edf10      0x24c /usr/local/lib/libcrypto.a(i_cfb64.o)
                0x000edf10                idea_cfb64_encrypt
 .text          0x000ee15c      0x1d4 /usr/local/lib/libcrypto.a(i_ofb64.o)
                0x000ee15c                idea_ofb64_encrypt
 .text          0x000ee330       0xec /usr/local/lib/libcrypto.a(i_ecb.o)
                0x000ee330                idea_ecb_encrypt
                0x000ee410                idea_options
 .text          0x000ee41c      0x2e8 /usr/local/lib/libcrypto.a(i_skey.o)
                0x000ee41c                idea_set_encrypt_key
                0x000ee5d0                idea_set_decrypt_key
 .text          0x000ee704      0x558 /usr/local/lib/libcrypto.a(bn_add.o)
                0x000eea3c                BN_sub
                0x000eeb90                BN_add
                0x000ee704                BN_uadd
                0x000ee858                BN_usub
 .text          0x000eec5c     0x18b8 /usr/local/lib/libcrypto.a(bn_exp.o)
                0x000ef19c                BN_mod_exp_mont
                0x000ef5ec                BN_mod_exp_mont_consttime
                0x000f0494                BN_mod_exp
                0x000f0164                BN_mod_exp_simple
                0x000eee0c                BN_mod_exp_recp
                0x000efd60                BN_mod_exp_mont_word
                0x000eec5c                BN_exp
 .text          0x000f0514     0x1a90 /usr/local/lib/libcrypto.a(bn_mul.o)
                0x000f07bc                bn_add_part_words
                0x000f1aac                BN_mul
                0x000f1030                bn_mul_part_recursive
                0x000f160c                bn_mul_high
                0x000f1db8                bn_mul_normal
                0x000f0514                bn_sub_part_words
                0x000f0bc0                bn_mul_recursive
                0x000f1ee4                bn_mul_low_normal
                0x000f14e4                bn_mul_low_recursive
 .text          0x000f1fa4      0x77c /usr/local/lib/libcrypto.a(bn_mod.o)
                0x000f247c                BN_mod_lshift1_quick
                0x000f24e0                BN_mod_lshift
                0x000f1fa4                BN_nnmod
                0x000f21fc                BN_mod_sub_quick
                0x000f2040                BN_mod_add
                0x000f2604                BN_mod_lshift_quick
                0x000f2150                BN_mod_sub
                0x000f225c                BN_mod_mul
                0x000f2378                BN_mod_sqr
                0x000f23d0                BN_mod_lshift1
                0x000f20ec                BN_mod_add_quick
 .text          0x000f2720      0x5a8 /usr/local/lib/libcrypto.a(bn_rand.o)
                0x000f2bbc                BN_rand
                0x000f2c34                BN_rand_range
                0x000f2bf8                BN_pseudo_rand
                0x000f2c60                BN_pseudo_rand_range
                0x000f2c8c                BN_bntest_rand
 .text          0x000f2cc8      0x710 /usr/local/lib/libcrypto.a(bn_blind.o)
                0x000f318c                BN_BLINDING_free
                0x000f330c                BN_BLINDING_invert_ex
                0x000f2de4                BN_BLINDING_create_param
                0x000f33d0                BN_BLINDING_set_flags
                0x000f322c                BN_BLINDING_invert
                0x000f33c0                BN_BLINDING_set_thread_id
                0x000f3200                BN_BLINDING_convert
                0x000f33b8                BN_BLINDING_get_thread_id
                0x000f33c8                BN_BLINDING_get_flags
                0x000f3258                BN_BLINDING_convert_ex
                0x000f3088                BN_BLINDING_new
                0x000f2cc8                BN_BLINDING_update
 .text          0x000f33d8      0xc34 /usr/local/lib/libcrypto.a(bn_gcd.o)
                0x000f3f18                BN_gcd
                0x000f352c                BN_mod_inverse
 .text          0x000f400c      0xd84 /usr/local/lib/libcrypto.a(bn_prime.o)
                0x000f4b40                BN_is_prime_ex
                0x000f4348                BN_is_prime_fasttest_ex
                0x000f4ac4                BN_GENCB_call
                0x000f400c                BN_generate_prime_ex
 .text          0x000f4d90       0x58 /usr/local/lib/libcrypto.a(bn_err.o)
                0x000f4d90                ERR_load_BN_strings
 .text          0x000f4de8      0x584 /usr/local/lib/libcrypto.a(bn_sqr.o)
                0x000f4de8                BN_sqr
                0x000f4ff8                bn_sqr_recursive
                0x000f5278                bn_sqr_normal
 .text          0x000f536c      0x560 /usr/local/lib/libcrypto.a(bn_recp.o)
                0x000f536c                BN_div_recp
                0x000f5750                BN_RECP_CTX_free
                0x000f56a8                BN_RECP_CTX_init
                0x000f56e8                BN_RECP_CTX_new
                0x000f57a0                BN_RECP_CTX_set
                0x000f5610                BN_reciprocal
                0x000f5804                BN_mod_mul_reciprocal
 .text          0x000f58cc      0x9c4 /usr/local/lib/libcrypto.a(bn_mont.o)
                0x000f5cec                BN_MONT_CTX_set
                0x000f6134                BN_MONT_CTX_set_locked
                0x000f5f38                BN_MONT_CTX_init
                0x000f58cc                BN_from_montgomery
                0x000f60a0                BN_MONT_CTX_copy
                0x000f6048                BN_MONT_CTX_free
                0x000f5ee0                BN_MONT_CTX_new
                0x000f5f88                BN_mod_mul_montgomery
 .text          0x000f6290      0x150 /usr/local/lib/libcrypto.a(ec_cvt.o)
                0x000f636c                EC_GROUP_new_curve_GF2m
                0x000f6290                EC_GROUP_new_curve_GFp
 .text          0x000f63e0       0x58 /usr/local/lib/libcrypto.a(ec_err.o)
                0x000f63e0                ERR_load_EC_strings
 .text          0x000f6438      0x410 /usr/local/lib/libcrypto.a(ec_print.o)
                0x000f6438                EC_POINT_point2bn
                0x000f6500                EC_POINT_bn2point
                0x000f6604                EC_POINT_point2hex
                0x000f6718                EC_POINT_hex2point
 .text          0x000f6848     0x26f4 /usr/local/lib/libcrypto.a(ec_asn1.o)
                0x000f8dd4                ECPARAMETERS_free
                0x000f8788                EC_GROUP_get_basis_type
                0x000f8d0c                X9_62_PENTANOMIAL_new
                0x000f8a74                i2d_ECPKParameters
                0x000f8640                i2o_ECPublicKey
                0x000f8e9c                EC_PRIVATEKEY_new
                0x000f8e74                i2d_ECPKPARAMETERS
                0x000f8b28                i2d_ECParameters
                0x000f8d5c                X9_62_CHARACTERISTIC_TWO_new
                0x000f8e4c                d2i_ECPKPARAMETERS
                0x000f8ec4                EC_PRIVATEKEY_free
                0x000f8f14                i2d_EC_PRIVATEKEY
                0x000f8eec                d2i_EC_PRIVATEKEY
                0x000f8dac                ECPARAMETERS_new
                0x000f88b4                EC_GROUP_get_pentanomial_basis
                0x000f8e24                ECPKPARAMETERS_free
                0x000f8138                i2d_ECPrivateKey
                0x000f7e54                d2i_ECPrivateKey
                0x000f8c08                o2i_ECPublicKey
                0x000f899c                d2i_ECPKParameters
                0x000f84a0                d2i_ECParameters
                0x000f880c                EC_GROUP_get_trinomial_basis
                0x000f8d34                X9_62_PENTANOMIAL_free
                0x000f8d84                X9_62_CHARACTERISTIC_TWO_free
                0x000f8dfc                ECPKPARAMETERS_new
 .text          0x000f8f3c     0x1aec /usr/local/lib/libcrypto.a(ec2_smpl.o)
                0x000fa7f0                ec_GF2m_simple_make_affine
                0x000fa118                EC_GF2m_simple_method
                0x000fa760                ec_GF2m_simple_invert
                0x000fa168                ec_GF2m_simple_group_finish
                0x000f9604                ec_GF2m_simple_oct2point
                0x000fa9f4                ec_GF2m_simple_field_div
                0x000fa4e8                ec_GF2m_simple_point_set_to_infinity
                0x000f99b8                ec_GF2m_simple_add
                0x000f9f78                ec_GF2m_simple_cmp
                0x000f9dd0                ec_GF2m_simple_is_on_curve
                0x000fa298                ec_GF2m_simple_group_get_degree
                0x000fa398                ec_GF2m_simple_point_init
                0x000f909c                ec_GF2m_simple_group_set_curve
                0x000fa124                ec_GF2m_simple_group_init
                0x000fa738                ec_GF2m_simple_dbl
                0x000fa51c                ec_GF2m_simple_point_set_affine_coordinates
                0x000fa910                ec_GF2m_simple_points_make_affine
                0x000fa1a8                ec_GF2m_simple_group_clear_finish
                0x000fa608                ec_GF2m_simple_point_get_affine_coordinates
                0x000fa2c0                ec_GF2m_simple_group_check_discriminant
                0x000fa3dc                ec_GF2m_simple_point_finish
                0x000fa6fc                ec_GF2m_simple_set_compressed_coordinates
                0x000fa200                ec_GF2m_simple_group_get_curve
                0x000fa464                ec_GF2m_simple_point_copy
                0x000fa41c                ec_GF2m_simple_point_clear_finish
                0x000fa9c4                ec_GF2m_simple_field_sqr
                0x000fa7e0                ec_GF2m_simple_is_at_infinity
                0x000f8f3c                ec_GF2m_simple_group_copy
                0x000fa990                ec_GF2m_simple_field_mul
                0x000f9238                ec_GF2m_simple_point2oct
 .text          0x000faa28      0xe08 /usr/local/lib/libcrypto.a(ec2_mult.o)
                0x000fb594                ec_GF2m_simple_mul
                0x000fb810                ec_GF2m_have_precompute_mult
                0x000fb7f0                ec_GF2m_precompute_mult
 .text          0x000fb830     0x1920 /usr/local/lib/libcrypto.a(rsa_eay.o)
                0x000fd0d0                RSA_PKCS1_SSLeay
 .text          0x000fd150       0x58 /usr/local/lib/libcrypto.a(rsa_err.o)
                0x000fd150                ERR_load_RSA_strings
 .text          0x000fd1a8      0x3f4 /usr/local/lib/libcrypto.a(rsa_pk1.o)
                0x000fd394                RSA_padding_add_PKCS1_type_2
                0x000fd254                RSA_padding_check_PKCS1_type_1
                0x000fd484                RSA_padding_check_PKCS1_type_2
                0x000fd1a8                RSA_padding_add_PKCS1_type_1
 .text          0x000fd59c      0x278 /usr/local/lib/libcrypto.a(rsa_ssl.o)
                0x000fd714                RSA_padding_add_SSLv23
                0x000fd59c                RSA_padding_check_SSLv23
 .text          0x000fd814      0x104 /usr/local/lib/libcrypto.a(rsa_none.o)
                0x000fd890                RSA_padding_check_none
                0x000fd814                RSA_padding_add_none
 .text          0x000fd918      0x650 /usr/local/lib/libcrypto.a(rsa_oaep.o)
                0x000fde5c                MGF1
                0x000fd918                RSA_padding_add_PKCS1_OAEP
                0x000fdaf0                RSA_padding_check_PKCS1_OAEP
                0x000fdd48                PKCS1_MGF1
 .text          0x000fdf68      0x23c /usr/local/lib/libcrypto.a(rsa_x931.o)
                0x000fe150                RSA_X931_hash_id
                0x000fe02c                RSA_padding_check_X931
                0x000fdf68                RSA_padding_add_X931
 .text          0x000fe1a4      0x564 /usr/local/lib/libcrypto.a(dsa_lib.o)
                0x000fe558                DSA_get_default_method
                0x000fe6e4                DSA_get_ex_data
                0x000fe598                DSA_set_method
                0x000fe638                DSA_up_ref
                0x000fe470                DSA_dup_DH
                0x000fe1a4                DSA_new_method
                0x000fe614                DSA_new
                0x000fe36c                DSA_free
                0x000fe6c0                DSA_set_ex_data
                0x000fe54c                DSA_set_default_method
                0x000fe67c                DSA_get_ex_new_index
 .text          0x000fe708       0x58 /usr/local/lib/libcrypto.a(dsa_err.o)
                0x000fe708                ERR_load_DSA_strings
 .text          0x000fe760      0x890 /usr/local/lib/libcrypto.a(dsa_ossl.o)
                0x000fef9c                DSA_OpenSSL
 .text          0x000feff0      0x528 /usr/local/lib/libcrypto.a(ecs_lib.o)
                0x000ff27c                ECDSA_get_ex_new_index
                0x000ff1a0                ECDSA_size
                0x000ff36c                ECDSA_get_ex_data
                0x000ff148                ECDSA_set_method
                0x000ff2c0                ECDSA_set_ex_data
                0x000ff410                ecdsa_check
                0x000ff0fc                ECDSA_set_default_method
                0x000ff108                ECDSA_get_default_method
 .text          0x000ff518       0xa0 /usr/local/lib/libcrypto.a(ecs_asn1.o)
                0x000ff540                ECDSA_SIG_free
                0x000ff568                i2d_ECDSA_SIG
                0x000ff518                ECDSA_SIG_new
                0x000ff590                d2i_ECDSA_SIG
 .text          0x000ff5b8      0xcb8 /usr/local/lib/libcrypto.a(ecs_ossl.o)
                0x00100264                ECDSA_OpenSSL
 .text          0x00100270      0x124 /usr/local/lib/libcrypto.a(ecs_vrf.o)
                0x001002dc                ECDSA_verify
                0x00100270                ECDSA_do_verify
 .text          0x00100394       0x58 /usr/local/lib/libcrypto.a(ecs_err.o)
                0x00100394                ERR_load_ECDSA_strings
 .text          0x001003ec       0x58 /usr/local/lib/libcrypto.a(dh_err.o)
                0x001003ec                ERR_load_DH_strings
 .text          0x00100444      0x44c /usr/local/lib/libcrypto.a(ech_lib.o)
                0x001006e4                ECDH_get_ex_data
                0x00100788                ecdh_check
                0x0010055c                ECDH_get_default_method
                0x001005f4                ECDH_get_ex_new_index
                0x00100550                ECDH_set_default_method
                0x00100638                ECDH_set_ex_data
                0x0010059c                ECDH_set_method
 .text          0x00100890      0x36c /usr/local/lib/libcrypto.a(ech_ossl.o)
                0x00100bf0                ECDH_OpenSSL
 .text          0x00100bfc       0x58 /usr/local/lib/libcrypto.a(ech_err.o)
                0x00100bfc                ERR_load_ECDH_strings
 .text          0x00100c54       0x58 /usr/local/lib/libcrypto.a(dso_err.o)
                0x00100c54                ERR_load_DSO_strings
 .text          0x00100cac      0xad8 /usr/local/lib/libcrypto.a(dso_lib.o)
                0x0010162c                DSO_bind_var
                0x00101608                DSO_get_default_method
                0x001011ec                DSO_flags
                0x001015b0                DSO_get_loaded_filename
                0x001013ec                DSO_set_filename
                0x0010126c                DSO_ctrl
                0x00100ef0                DSO_load
                0x001014e8                DSO_merge
                0x001016d8                DSO_bind_func
                0x00100cac                DSO_new_method
                0x0010161c                DSO_set_method
                0x001011c8                DSO_new
                0x00100dc8                DSO_free
                0x001010a8                DSO_convert_filename
                0x00101204                DSO_up_ref
                0x00101340                DSO_set_name_converter
                0x001015fc                DSO_set_default_method
                0x00101614                DSO_get_method
                0x001013a0                DSO_get_filename
 .text          0x00101784       0x20 /usr/local/lib/libcrypto.a(dso_openssl.o)
                0x00101784                DSO_METHOD_openssl
 .text          0x001017a4       0x58 /usr/local/lib/libcrypto.a(eng_err.o)
                0x001017a4                ERR_load_ENGINE_strings
 .text          0x001017fc      0x528 /usr/local/lib/libcrypto.a(eng_table.o)
                0x00101b50                ENGINE_set_table_flags
                0x00101b44                ENGINE_get_table_flags
                0x00101bd0                engine_table_cleanup
                0x001019e8                engine_table_select
                0x001017fc                engine_table_register
                0x00101b5c                engine_table_unregister
 .text          0x00101d24      0x504 /usr/local/lib/libcrypto.a(eng_cnf.o)
                0x001020f8                ENGINE_add_conf_module
 .text          0x00102228       0x58 /usr/local/lib/libcrypto.a(buf_err.o)
                0x00102228                ERR_load_BUF_strings
 .text          0x00102280       0x58 /usr/local/lib/libcrypto.a(bio_err.o)
                0x00102280                ERR_load_BIO_strings
 .text          0x001022d8      0x4e8 /usr/local/lib/libcrypto.a(b_dump.o)
                0x001022d8                BIO_dump_indent_cb
                0x001026a4                BIO_dump_indent
                0x00102640                BIO_dump_cb
                0x00102724                BIO_dump_indent_fp
                0x001026e4                BIO_dump_fp
                0x00102664                BIO_dump
 .text          0x001027c0      0xb3c /usr/local/lib/libcrypto.a(md_rand.o)
                0x001031d4                RAND_SSLeay
 .text          0x001032fc       0x58 /usr/local/lib/libcrypto.a(rand_err.o)
                0x001032fc                ERR_load_RAND_strings
 .text          0x00103354      0x1d0 /usr/local/lib/libcrypto.a(rand_unix.o)
                0x00103354                RAND_poll
 .text          0x00103524       0x60 /usr/local/lib/libcrypto.a(err_bio.o)
                0x00103524                ERR_print_errors
 .text          0x00103584      0x174 /usr/local/lib/libcrypto.a(evp_cnf.o)
                0x001036c4                EVP_add_alg_module
 .text          0x001036f8      0x1a8 /usr/local/lib/libcrypto.a(e_bf.o)
                0x0010371c                EVP_bf_ofb
                0x001036f8                EVP_bf_ecb
                0x00103710                EVP_bf_cfb64
                0x00103704                EVP_bf_cbc
 .text          0x001038a0       0xb8 /usr/local/lib/libcrypto.a(e_xcbc_d.o)
                0x001038a0                EVP_desx_cbc
 .text          0x00103958      0x1a8 /usr/local/lib/libcrypto.a(e_cast.o)
                0x00103958                EVP_cast5_ecb
                0x0010397c                EVP_cast5_ofb
                0x00103964                EVP_cast5_cbc
                0x00103970                EVP_cast5_cfb64
 .text          0x00103b00       0x80 /usr/local/lib/libcrypto.a(m_md4.o)
                0x00103b00                EVP_md4
 .text          0x00103b80       0x80 /usr/local/lib/libcrypto.a(m_sha.o)
                0x00103b80                EVP_sha
 .text          0x00103c00       0x80 /usr/local/lib/libcrypto.a(m_dss.o)
                0x00103c00                EVP_dss
 .text          0x00103c80       0x80 /usr/local/lib/libcrypto.a(m_ripemd.o)
                0x00103c80                EVP_ripemd160
 .text          0x00103d00     0x14e0 /usr/local/lib/libcrypto.a(evp_pkey.o)
                0x00105090                EVP_PKEY_add1_attr
                0x00104fdc                EVP_PKEY_get_attr_count
                0x00105150                EVP_PKEY2PKCS8
                0x00105120                EVP_PKEY_add1_attr_by_txt
                0x001044b0                EVP_PKEY2PKCS8_broken
                0x00105174                PKCS8_set_broken
                0x001050f0                EVP_PKEY_add1_attr_by_NID
                0x00105000                EVP_PKEY_get_attr_by_NID
                0x00105048                EVP_PKEY_get_attr
                0x00105024                EVP_PKEY_get_attr_by_OBJ
                0x00103d00                EVP_PKCS82PKEY
                0x001050c0                EVP_PKEY_add1_attr_by_OBJ
                0x0010506c                EVP_PKEY_delete_attr
 .text          0x001051e0      0x4f4 /usr/local/lib/libcrypto.a(a_bitstr.o)
                0x001051e0                i2c_ASN1_BIT_STRING
                0x00105350                c2i_ASN1_BIT_STRING
                0x00105674                ASN1_BIT_STRING_get_bit
                0x00105654                ASN1_BIT_STRING_set
                0x001054d4                ASN1_BIT_STRING_set_bit
 .text          0x001056d4      0x554 /usr/local/lib/libcrypto.a(a_utctm.o)
                0x001059cc                ASN1_UTCTIME_cmp_time_t
                0x001056d4                ASN1_UTCTIME_check
                0x00105ba4                ASN1_UTCTIME_set_string
                0x00105894                ASN1_UTCTIME_set
 .text          0x00105c28      0x3c0 /usr/local/lib/libcrypto.a(a_gentm.o)
                0x00105e48                ASN1_GENERALIZEDTIME_set
                0x00105c28                ASN1_GENERALIZEDTIME_check
                0x00105f64                ASN1_GENERALIZEDTIME_set_string
 .text          0x00105fe8      0x2c4 /usr/local/lib/libcrypto.a(a_time.o)
                0x001061d4                ASN1_TIME_set
                0x00106264                ASN1_TIME_check
                0x00106134                ASN1_TIME_new
                0x00105fe8                ASN1_TIME_to_generalizedtime
                0x00106184                d2i_ASN1_TIME
                0x001061ac                i2d_ASN1_TIME
                0x0010615c                ASN1_TIME_free
 .text          0x001062ac       0x60 /usr/local/lib/libcrypto.a(a_octet.o)
                0x001062cc                ASN1_OCTET_STRING_cmp
                0x001062ec                ASN1_OCTET_STRING_set
                0x001062ac                ASN1_OCTET_STRING_dup
 .text          0x0010630c      0x2d8 /usr/local/lib/libcrypto.a(a_print.o)
                0x0010630c                ASN1_PRINTABLE_type
                0x001064bc                ASN1_UNIVERSALSTRING_to_string
 .text          0x001065e4      0x594 /usr/local/lib/libcrypto.a(a_set.o)
                0x001065e4                i2d_ASN1_SET
                0x00106878                d2i_ASN1_SET
 .text          0x00106b78      0x4ec /usr/local/lib/libcrypto.a(a_d2i_fp.o)
                0x00106f64                ASN1_d2i_bio
                0x00106df0                ASN1_d2i_fp
                0x00106e90                ASN1_item_d2i_fp
                0x00106fe4                ASN1_item_d2i_bio
 .text          0x00107064      0x2c0 /usr/local/lib/libcrypto.a(a_i2d_fp.o)
                0x001070fc                ASN1_item_i2d_fp
                0x00107194                ASN1_i2d_bio
                0x00107268                ASN1_item_i2d_bio
                0x00107064                ASN1_i2d_fp
 .text          0x00107324      0x360 /usr/local/lib/libcrypto.a(a_enum.o)
                0x00107324                ASN1_ENUMERATED_set
                0x001074e0                BN_to_ASN1_ENUMERATED
                0x00107608                ASN1_ENUMERATED_to_BN
                0x00107444                ASN1_ENUMERATED_get
 .text          0x00107684      0x4a8 /usr/local/lib/libcrypto.a(a_utf8.o)
                0x00107684                UTF8_getc
                0x0010795c                UTF8_putc
 .text          0x00107b2c      0x58c /usr/local/lib/libcrypto.a(a_sign.o)
                0x00107de0                ASN1_item_sign
                0x00107b2c                ASN1_sign
 .text          0x001080b8      0x148 /usr/local/lib/libcrypto.a(a_digest.o)
                0x001080b8                ASN1_digest
                0x00108178                ASN1_item_digest
 .text          0x00108200      0x2e8 /usr/local/lib/libcrypto.a(a_verify.o)
                0x00108200                ASN1_verify
                0x0010837c                ASN1_item_verify
 .text          0x001084e8      0x878 /usr/local/lib/libcrypto.a(a_mbstr.o)
                0x00108994                ASN1_mbstring_copy
                0x001084e8                ASN1_mbstring_ncopy
 .text          0x00108d60      0x238 /usr/local/lib/libcrypto.a(x_algor.o)
                0x00108d60                X509_ALGOR_dup
                0x00108f48                d2i_X509_ALGORS
                0x00108f70                i2d_X509_ALGORS
                0x00108e58                X509_ALGOR_get0
                0x00108ea8                X509_ALGOR_new
                0x00108f20                i2d_X509_ALGOR
                0x00108ef8                d2i_X509_ALGOR
                0x00108d8c                X509_ALGOR_set0
                0x00108ed0                X509_ALGOR_free
 .text          0x00108f98       0xa0 /usr/local/lib/libcrypto.a(x_val.o)
                0x00109010                i2d_X509_VAL
                0x00108fc0                X509_VAL_free
                0x00108fe8                d2i_X509_VAL
                0x00108f98                X509_VAL_new
 .text          0x00109038      0x1b4 /usr/local/lib/libcrypto.a(x_req.o)
                0x001090b4                d2i_X509_REQ_INFO
                0x0010908c                X509_REQ_INFO_free
                0x00109154                d2i_X509_REQ
                0x00109104                X509_REQ_new
                0x001090dc                i2d_X509_REQ_INFO
                0x00109064                X509_REQ_INFO_new
                0x00109038                X509_REQ_dup
                0x0010912c                X509_REQ_free
                0x0010917c                i2d_X509_REQ
 .text          0x001091ec      0x320 /usr/local/lib/libcrypto.a(x_crl.o)
                0x00109218                X509_REVOKED_new
                0x00109330                i2d_X509_CRL_INFO
                0x00109358                X509_CRL_new
                0x00109268                d2i_X509_REVOKED
                0x001093a8                d2i_X509_CRL
                0x001092b8                X509_CRL_INFO_new
                0x001093f8                X509_CRL_add0_revoked
                0x00109380                X509_CRL_free
                0x001091ec                X509_CRL_dup
                0x001092e0                X509_CRL_INFO_free
                0x001093d0                i2d_X509_CRL
                0x00109308                d2i_X509_CRL_INFO
                0x00109290                i2d_X509_REVOKED
                0x00109240                X509_REVOKED_free
 .text          0x0010950c      0x120 /usr/local/lib/libcrypto.a(x_info.o)
                0x00109594                X509_INFO_free
                0x0010950c                X509_INFO_new
 .text          0x0010962c      0x140 /usr/local/lib/libcrypto.a(x_spki.o)
                0x0010962c                NETSCAPE_SPKI_new
                0x001096a4                i2d_NETSCAPE_SPKI
                0x001096cc                NETSCAPE_SPKAC_new
                0x00109744                i2d_NETSCAPE_SPKAC
                0x0010967c                d2i_NETSCAPE_SPKI
                0x00109654                NETSCAPE_SPKI_free
                0x0010971c                d2i_NETSCAPE_SPKAC
                0x001096f4                NETSCAPE_SPKAC_free
 .text          0x0010976c       0xe0 /usr/local/lib/libcrypto.a(nsseq.o)
                0x001097bc                d2i_NETSCAPE_CERT_SEQUENCE
                0x001097e4                i2d_NETSCAPE_CERT_SEQUENCE
                0x00109794                NETSCAPE_CERT_SEQUENCE_free
                0x0010976c                NETSCAPE_CERT_SEQUENCE_new
 .text          0x0010984c       0x7c /usr/local/lib/libcrypto.a(i2d_pr.o)
                0x0010984c                i2d_PrivateKey
 .text          0x001098c8      0x4d8 /usr/local/lib/libcrypto.a(f_int.o)
                0x001098c8                i2a_ASN1_INTEGER
                0x00109a38                a2i_ASN1_INTEGER
 .text          0x00109da0      0x434 /usr/local/lib/libcrypto.a(f_string.o)
                0x00109da0                i2a_ASN1_STRING
                0x00109ee4                a2i_ASN1_STRING
 .text          0x0010a1d4      0x3c8 /usr/local/lib/libcrypto.a(x_pkey.o)
                0x0010a4f0                X509_PKEY_free
                0x0010a1d4                d2i_X509_PKEY
                0x0010a594                i2d_X509_PKEY
                0x0010a420                X509_PKEY_new
 .text          0x0010a59c      0x150 /usr/local/lib/libcrypto.a(a_bool.o)
                0x0010a59c                i2d_ASN1_BOOLEAN
                0x0010a624                d2i_ASN1_BOOLEAN
 .text          0x0010a6ec     0x1124 /usr/local/lib/libcrypto.a(asn1_gen.o)
                0x0010a6ec                ASN1_generate_v3
                0x0010b578                ASN1_generate_nconf
 .text          0x0010b810      0x664 /usr/local/lib/libcrypto.a(a_bytes.o)
                0x0010bda4                i2d_ASN1_bytes
                0x0010b810                d2i_ASN1_type_bytes
                0x0010b9d4                d2i_ASN1_bytes
 .text          0x0010be74      0x494 /usr/local/lib/libcrypto.a(a_strnid.o)
                0x0010c0f8                ASN1_STRING_set_default_mask
                0x0010c274                ASN1_STRING_TABLE_cleanup
                0x0010bf78                ASN1_STRING_TABLE_add
                0x0010be74                ASN1_STRING_set_default_mask_asc
                0x0010c104                ASN1_STRING_get_default_mask
                0x0010c1e8                ASN1_STRING_TABLE_get
                0x0010c110                ASN1_STRING_set_by_NID
 .text          0x0010c308      0x458 /usr/local/lib/libcrypto.a(asn_pack.o)
                0x0010c37c                ASN1_seq_pack
                0x0010c464                ASN1_unpack_string
                0x0010c4d4                ASN1_item_unpack
                0x0010c654                ASN1_item_pack
                0x0010c53c                ASN1_pack_string
                0x0010c308                ASN1_seq_unpack
 .text          0x0010c760       0xe8 /usr/local/lib/libcrypto.a(p8_pkey.o)
                0x0010c760                PKCS8_PRIV_KEY_INFO_new
                0x0010c7d8                i2d_PKCS8_PRIV_KEY_INFO
                0x0010c7b0                d2i_PKCS8_PRIV_KEY_INFO
                0x0010c788                PKCS8_PRIV_KEY_INFO_free
 .text          0x0010c848      0x2ac /usr/local/lib/libcrypto.a(asn_moid.o)
                0x0010c9dc                ASN1_add_oid_module
 .text          0x0010caf4      0x744 /usr/local/lib/libcrypto.a(pem_info.o)
                0x0010caf4                PEM_X509_INFO_read_bio
                0x0010d198                PEM_X509_INFO_read
                0x0010cfc4                PEM_X509_INFO_write_bio
 .text          0x0010d238     0x1db8 /usr/local/lib/libcrypto.a(pem_lib.o)
                0x0010eadc                PEM_ASN1_read
                0x0010ea34                PEM_write
                0x0010e1d0                PEM_read_bio
                0x0010df58                PEM_write_bio
                0x0010da4c                PEM_do_header
                0x0010d4ac                PEM_ASN1_write_bio
                0x0010eb8c                PEM_ASN1_write
                0x0010e98c                PEM_read
                0x0010ec54                PEM_def_callback
                0x0010ed6c                PEM_proc_type
                0x0010ee10                PEM_dek_info
                0x0010dcc0                PEM_get_EVP_CIPHER_INFO
                0x0010e7fc                PEM_bytes_read_bio
 .text          0x0010eff0      0x260 /usr/local/lib/libcrypto.a(pem_xaux.o)
                0x0010f200                PEM_write_X509_CERT_PAIR
                0x0010f168                PEM_read_X509_CERT_PAIR
                0x0010f0d0                PEM_write_X509_AUX
                0x0010f080                PEM_write_bio_X509_AUX
                0x0010eff0                PEM_read_bio_X509_AUX
                0x0010f1b0                PEM_write_bio_X509_CERT_PAIR
                0x0010f120                PEM_read_bio_X509_CERT_PAIR
                0x0010f038                PEM_read_X509_AUX
 .text          0x0010f250       0x48 /usr/local/lib/libcrypto.a(x509_def.o)
                0x0010f280                X509_get_default_cert_file_env
                0x0010f274                X509_get_default_cert_dir_env
                0x0010f28c                X509_get_default_private_dir
                0x0010f250                X509_get_default_cert_area
                0x0010f25c                X509_get_default_cert_dir
                0x0010f268                X509_get_default_cert_file
 .text          0x0010f298      0x754 /usr/local/lib/libcrypto.a(x509_req.o)
                0x0010f3f8                X509_REQ_get_extensions
                0x0010f8f4                X509_REQ_delete_attr
                0x0010f91c                X509_REQ_add1_attr
                0x0010f7e4                X509_REQ_extension_nid
                0x0010f87c                X509_REQ_get_attr_by_NID
                0x0010f298                X509_REQ_check_private_key
                0x0010f984                X509_REQ_add1_attr_by_NID
                0x0010f818                X509_REQ_get_extension_nids
                0x0010f7a4                X509_REQ_get_pubkey
                0x0010f950                X509_REQ_add1_attr_by_OBJ
                0x0010f9b8                X509_REQ_add1_attr_by_txt
                0x0010f688                X509_to_X509_REQ
                0x0010f8a4                X509_REQ_get_attr_by_OBJ
                0x0010f854                X509_REQ_get_attr_count
                0x0010f8cc                X509_REQ_get_attr
                0x0010f514                X509_REQ_add_extensions_nid
                0x0010f824                X509_REQ_set_extension_nids
                0x0010f830                X509_REQ_add_extensions
 .text          0x0010f9ec       0xb8 /usr/local/lib/libcrypto.a(x509rset.o)
                0x0010fa64                X509_REQ_set_pubkey
                0x0010f9ec                X509_REQ_set_version
                0x0010fa24                X509_REQ_set_subject_name
 .text          0x0010faa4      0xd70 /usr/local/lib/libcrypto.a(x509_att.o)
                0x0010fe14                X509at_get_attr_by_OBJ
                0x00110430                X509_ATTRIBUTE_create_by_OBJ
                0x00110778                X509_ATTRIBUTE_get0_object
                0x00110284                X509at_add1_attr_by_txt
                0x0011016c                X509at_add1_attr_by_NID
                0x0011039c                X509_ATTRIBUTE_create_by_NID
                0x00110790                X509_ATTRIBUTE_get0_type
                0x00110738                X509_ATTRIBUTE_count
                0x0010fea8                X509at_get_attr
                0x0010fda8                X509at_get_attr_count
                0x0010faa4                X509at_get0_data_by_OBJ
                0x0010ff04                X509at_delete_attr
                0x0010fc38                X509_ATTRIBUTE_set1_data
                0x00110664                X509_ATTRIBUTE_set1_object
                0x0010ff60                X509at_add1_attr
                0x001106c8                X509_ATTRIBUTE_get0_data
                0x0010fdc8                X509at_get_attr_by_NID
                0x00110054                X509at_add1_attr_by_OBJ
                0x00110518                X509_ATTRIBUTE_create_by_txt
 .text          0x00110814      0x240 /usr/local/lib/libcrypto.a(v3_bcons.o)
                0x00110980                BASIC_CONSTRAINTS_free
                0x001109a8                d2i_BASIC_CONSTRAINTS
                0x00110958                BASIC_CONSTRAINTS_new
                0x001109d0                i2d_BASIC_CONSTRAINTS
 .text          0x00110a54      0x1e4 /usr/local/lib/libcrypto.a(v3_bitst.o)
                0x00110a54                v2i_ASN1_BIT_STRING
                0x00110bcc                i2v_ASN1_BIT_STRING
 .text          0x00110c38     0x1110 /usr/local/lib/libcrypto.a(v3_conf.o)
                0x001113b0                X509V3_EXT_conf_nid
                0x0011164c                X509V3_EXT_CRL_add_conf
                0x00111748                X509V3_get_section
                0x00111148                X509V3_EXT_nconf_nid
                0x00110fe8                X509V3_EXT_add_nconf_sk
                0x001116d8                X509V3_get_string
                0x001112ac                X509V3_EXT_add_nconf
                0x00111838                X509V3_set_ctx
                0x001116b0                X509V3_set_nconf
                0x001116c4                X509V3_set_conf_lhash
                0x00111598                X509V3_EXT_REQ_add_conf
                0x001117f8                X509V3_section_free
                0x001117b8                X509V3_string_free
                0x001111d4                X509V3_EXT_nconf
                0x0011144c                X509V3_EXT_conf
                0x00111534                X509V3_EXT_add_conf
                0x001112e4                X509V3_EXT_REQ_add_nconf
                0x00111378                X509V3_EXT_CRL_add_nconf
                0x00110ea4                X509V3_EXT_i2d
 .text          0x00111d48      0x238 /usr/local/lib/libcrypto.a(v3_extku.o)
                0x00111dc0                i2d_EXTENDED_KEY_USAGE
                0x00111d48                EXTENDED_KEY_USAGE_new
                0x00111d98                d2i_EXTENDED_KEY_USAGE
                0x00111d70                EXTENDED_KEY_USAGE_free
 .text          0x00111f80      0x138 /usr/local/lib/libcrypto.a(v3_ia5.o)
 .text          0x001120b8      0x250 /usr/local/lib/libcrypto.a(pcy_node.o)
                0x001122b0                policy_node_free
                0x0011218c                level_add_node
                0x001120b8                policy_node_cmp_new
                0x001120e0                level_find_node
                0x00112138                tree_find_sk
 .text          0x00112308      0xa0c /usr/local/lib/libcrypto.a(conf_lib.o)
                0x001126f0                CONF_dump_fp
                0x00112a44                NCONF_get_string
                0x001128f8                NCONF_load_fp
                0x001128a0                NCONF_load
                0x0011286c                NCONF_free_data
                0x00112500                CONF_get_section
                0x001129d4                NCONF_get_section
                0x001127d4                NCONF_new
                0x00112aec                NCONF_get_number_e
                0x001125f0                CONF_get_number
                0x0011276c                CONF_dump_bio
                0x00112690                CONF_free
                0x00112cbc                NCONF_dump_bio
                0x00112374                CONF_load
                0x00112838                NCONF_free
                0x00112318                CONF_set_nconf
                0x0011297c                NCONF_load_bio
                0x00112480                CONF_load_bio
                0x001123fc                CONF_load_fp
                0x00112308                CONF_set_default_method
                0x00112c40                NCONF_dump_fp
                0x00112574                CONF_get_string
 .text          0x00112d14      0x5a4 /usr/local/lib/libcrypto.a(conf_api.o)
                0x00112d14                _CONF_new_section
                0x0011306c                _CONF_free_data
                0x00112e44                _CONF_get_section_values
                0x00113004                _CONF_new_data
                0x00112f3c                _CONF_get_string
                0x00112df0                _CONF_get_section
                0x00112eb0                _CONF_add_string
 .text          0x001132b8     0x10a4 /usr/local/lib/libcrypto.a(conf_def.o)
                0x00113f24                NCONF_WIN32
                0x00113f18                NCONF_default
 .text          0x0011435c      0x5f0 /usr/local/lib/libcrypto.a(p12_add.o)
                0x001148d8                PKCS12_unpack_authsafes
                0x001144a8                PKCS12_decrypt_skey
                0x00114898                PKCS12_pack_authsafes
                0x001144cc                PKCS12_MAKE_SHKEYBAG
                0x0011443c                PKCS12_MAKE_KEYBAG
                0x00114828                PKCS12_unpack_p7encdata
                0x00114598                PKCS12_pack_p7data
                0x00114664                PKCS12_unpack_p7data
                0x0011435c                PKCS12_item_pack_safebag
                0x001146d0                PKCS12_pack_p7encdata
 .text          0x0011494c      0x2a4 /usr/local/lib/libcrypto.a(p12_attr.o)
                0x00114b2c                PKCS12_get_friendlyname
                0x00114a94                PKCS12_get_attr_gen
                0x0011498c                PKCS12_add_friendlyname_asc
                0x00114a0c                PKCS12_add_friendlyname_uni
                0x0011494c                PKCS12_add_localkeyid
                0x001149cc                PKCS12_add_CSPName_asc
                0x00114a4c                PKCS8_add_keyusage
 .text          0x00114bf0      0x564 /usr/local/lib/libcrypto.a(p12_decr.o)
                0x00114dc8                PKCS12_item_i2d_encrypt
                0x00114fec                PKCS12_pbe_crypt
                0x00114bf0                PKCS12_item_decrypt_d2i
 .text          0x00115154      0x13c /usr/local/lib/libcrypto.a(p12_p8e.o)
                0x00115154                PKCS8_encrypt
 .text          0x00115290      0x4f0 /usr/local/lib/libcrypto.a(ocsp_lib.o)
                0x0011569c                OCSP_id_issuer_cmp
                0x00115408                OCSP_parse_url
                0x00115704                OCSP_id_cmp
                0x00115290                OCSP_cert_id_new
                0x00115610                OCSP_cert_to_id
 .text          0x00115780       0x54 /usr/local/lib/libcrypto.a(o_time.o)
                0x00115780                OPENSSL_gmtime
 .text          0x001157d4     0x1a4c /usr/local/lib/libcrypto.a(sha_dgst.o)
                0x00115924                SHA_Final
                0x001171fc                SHA_Transform
                0x001171a4                SHA_Init
                0x001157d4                SHA_Update
 .text          0x00117220     0x1e34 /usr/local/lib/libcrypto.a(rmd_dgst.o)
                0x00117370                RIPEMD160_Final
                0x00117220                RIPEMD160_Update
                0x00118fd8                RIPEMD160_Init
                0x00117508                ripemd160_block_data_order
                0x00119030                RIPEMD160_Transform
 .text          0x00119054      0x61c /usr/local/lib/libcrypto.a(xcbc_enc.o)
                0x00119054                DES_xcbc_encrypt
 .text          0x00119670      0x190 /usr/local/lib/libcrypto.a(bf_skey.o)
                0x00119670                BF_set_key
 .text          0x00119800      0x100 /usr/local/lib/libcrypto.a(bf_ecb.o)
                0x00119800                BF_ecb_encrypt
                0x001198f4                BF_options
 .text          0x00119900      0xe20 /usr/local/lib/libcrypto.a(bf_enc.o)
                0x00119900                BF_encrypt
                0x0011a1f0                BF_cbc_encrypt
                0x00119d78                BF_decrypt
 .text          0x0011a720      0x24c /usr/local/lib/libcrypto.a(bf_cfb64.o)
                0x0011a720                BF_cfb64_encrypt
 .text          0x0011a96c      0x1d4 /usr/local/lib/libcrypto.a(bf_ofb64.o)
                0x0011a96c                BF_ofb64_encrypt
 .text          0x0011ab40      0xcf0 /usr/local/lib/libcrypto.a(c_skey.o)
                0x0011ab40                CAST_set_key
 .text          0x0011b830       0xf4 /usr/local/lib/libcrypto.a(c_ecb.o)
                0x0011b830                CAST_ecb_encrypt
 .text          0x0011b924      0xe00 /usr/local/lib/libcrypto.a(c_enc.o)
                0x0011bd7c                CAST_decrypt
                0x0011b924                CAST_encrypt
                0x0011c1f4                CAST_cbc_encrypt
 .text          0x0011c724      0x24c /usr/local/lib/libcrypto.a(c_cfb64.o)
                0x0011c724                CAST_cfb64_encrypt
 .text          0x0011c970      0x1d4 /usr/local/lib/libcrypto.a(c_ofb64.o)
                0x0011c970                CAST_ofb64_encrypt
 .text          0x0011cb44      0xa5c /usr/local/lib/libcrypto.a(bn_div.o)
                0x0011cb44                BN_div
 .text          0x0011d5a0      0x6a4 /usr/local/lib/libcrypto.a(bn_exp2.o)
                0x0011d5a0                BN_mod_exp2_mont
 .text          0x0011dc44     0x1d78 /usr/local/lib/libcrypto.a(bn_gf2m.o)
                0x0011ddd0                BN_GF2m_add
                0x0011f860                BN_GF2m_poly2arr
                0x0011e644                BN_GF2m_mod_inv
                0x0011f51c                BN_GF2m_mod_inv_arr
                0x0011f5a4                BN_GF2m_mod_div_arr
                0x0011e8c4                BN_GF2m_mod_exp
                0x0011ec48                BN_GF2m_mod_solve_quad_arr
                0x0011e204                BN_GF2m_mod_mul_arr
                0x0011f940                BN_GF2m_arr2poly
                0x0011f238                BN_GF2m_mod_div
                0x0011f080                BN_GF2m_mod_mul
                0x0011f36c                BN_GF2m_mod_sqrt
                0x0011f444                BN_GF2m_mod_solve_quad
                0x0011eaa0                BN_GF2m_mod_sqrt_arr
                0x0011e488                BN_GF2m_mod_sqr_arr
                0x0011f160                BN_GF2m_mod_sqr
                0x0011f714                BN_GF2m_mod_exp_arr
                0x0011efb0                BN_GF2m_mod
                0x0011df04                BN_GF2m_mod_arr
 .text          0x0011f9bc      0x52c /usr/local/lib/libcrypto.a(ecp_mont.o)
                0x0011f9c8                ec_GFp_mont_group_init
                0x0011fd04                ec_GFp_mont_field_mul
                0x0011fc28                ec_GFp_mont_group_copy
                0x0011fb68                ec_GFp_mont_group_finish
                0x0011fa00                ec_GFp_mont_group_set_curve
                0x0011fdc4                ec_GFp_mont_field_encode
                0x0011f9bc                EC_GFp_mont_method
                0x0011fe28                ec_GFp_mont_field_decode
                0x0011fd64                ec_GFp_mont_field_sqr
                0x0011fe84                ec_GFp_mont_field_set_to_one
                0x0011fbc8                ec_GFp_mont_group_clear_finish
 .text          0x0011fee8      0x394 /usr/local/lib/libcrypto.a(ecp_nist.o)
                0x00120060                ec_GFp_nist_group_copy
                0x00120054                EC_GFp_nist_method
                0x0011fee8                ec_GFp_nist_group_set_curve
                0x0012008c                ec_GFp_nist_field_mul
                0x00120190                ec_GFp_nist_field_sqr
 .text          0x0012027c        0xc /usr/local/lib/libcrypto.a(dso_null.o)
                0x0012027c                DSO_METHOD_null
 .text          0x00120288      0x7ac /usr/local/lib/libcrypto.a(encode.o)
                0x00120288                EVP_EncodeUpdate
                0x001203e8                EVP_EncodeBlock
                0x001209c4                EVP_DecodeFinal
                0x001209a8                EVP_DecodeInit
                0x001204ec                EVP_DecodeUpdate
                0x00120938                EVP_EncodeFinal
                0x00120920                EVP_EncodeInit
                0x00120790                EVP_DecodeBlock
 .text          0x00120a34      0x3a4 /usr/local/lib/libcrypto.a(evp_key.o)
                0x00120c80                EVP_read_pw_string
                0x00120dbc                EVP_get_pw_prompt
                0x00120d64                EVP_set_pw_prompt
                0x00120a34                EVP_BytesToKey
 .text          0x00120dd8      0xe64 /usr/local/lib/libcrypto.a(pk7_lib.o)
                0x0012194c                PKCS7_get_signer_info
                0x00121a14                PKCS7_add_recipient_info
                0x00121884                PKCS7_set_digest
                0x001217a8                PKCS7_add_signature
                0x001212fc                PKCS7_ctrl
                0x0012172c                PKCS7_content_new
                0x00121828                PKCS7_cert_from_signer_info
                0x00121138                PKCS7_SIGNER_INFO_set
                0x0012142c                PKCS7_set0_type_other
                0x00120dd8                PKCS7_set_type
                0x001219a4                PKCS7_add_recipient
                0x00121640                PKCS7_add_crl
                0x00120fd0                PKCS7_add_signer
                0x00121b84                PKCS7_set_cipher
                0x00121aa8                PKCS7_RECIP_INFO_set
                0x0012146c                PKCS7_set_content
                0x00121554                PKCS7_add_certificate
 .text          0x00121c3c     0x1518 /usr/local/lib/libcrypto.a(bn_nist.o)
                0x00122888                BN_nist_mod_384
                0x00121f54                BN_nist_mod_224
                0x00122e90                BN_nist_mod_521
                0x00123118                BN_get0_nist_prime_192
                0x00123148                BN_get0_nist_prime_521
                0x00123130                BN_get0_nist_prime_256
                0x0012313c                BN_get0_nist_prime_384
                0x00121c3c                BN_nist_mod_192
                0x00123124                BN_get0_nist_prime_224
                0x0012232c                BN_nist_mod_256
 .text          0x00123154     0x3284 /usr/local/lib/libcrypto.a(ecp_smpl.o)
                0x00125e9c                ec_GFp_simple_point_finish
                0x00125c18                ec_GFp_simple_group_clear_finish
                0x00125b8c                ec_GFp_simple_group_init
                0x00125edc                ec_GFp_simple_point_clear_finish
                0x00125654                ec_GFp_simple_points_make_affine
                0x00124bd0                ec_GFp_simple_dbl
                0x00125fdc                ec_GFp_simple_get_Jprojective_coordinates_GFp
                0x00125b80                EC_GFp_simple_method
                0x00123748                ec_GFp_simple_point_get_affine_coordinates
                0x00123564                ec_GFp_simple_set_Jprojective_coordinates_GFp
                0x00125094                ec_GFp_simple_is_on_curve
                0x00125c58                ec_GFp_simple_group_copy
                0x00126374                ec_GFp_simple_field_mul
                0x00123a78                ec_GFp_simple_set_compressed_coordinates
                0x0012624c                ec_GFp_simple_make_affine
                0x00125fa8                ec_GFp_simple_point_set_to_infinity
                0x0012614c                ec_GFp_simple_point_set_affine_coordinates
                0x00123ecc                ec_GFp_simple_point2oct
                0x00124280                ec_GFp_simple_oct2point
                0x00125bd8                ec_GFp_simple_group_finish
                0x00125e50                ec_GFp_simple_point_init
                0x001245fc                ec_GFp_simple_add
                0x00123154                ec_GFp_simple_group_set_curve
                0x001263a8                ec_GFp_simple_field_sqr
                0x0012623c                ec_GFp_simple_is_at_infinity
                0x00125e2c                ec_GFp_simple_group_get_degree
                0x00125f24                ec_GFp_simple_point_copy
                0x00123338                ec_GFp_simple_group_check_discriminant
                0x00125380                ec_GFp_simple_cmp
                0x001261e0                ec_GFp_simple_invert
                0x00125cdc                ec_GFp_simple_group_get_curve
 .text          0x001263d8      0x30c /usr/local/lib/libcrypto.a(bn_kron.o)
                0x001263d8                BN_kronecker
 .text          0x001266e4      0x840 /usr/local/lib/libcrypto.a(bn_sqrt.o)
                0x001266e4                BN_mod_sqrt
 .text          0x00126f24     0x339c /usr/local/lib/libz.a(deflate.o)
                0x00127430                deflate
                0x0012a098                deflateTune
                0x0012a180                deflateSetHeader
                0x00127290                deflateSetDictionary
                0x0012a0cc                deflateBound
                0x0012a1bc                deflateInit_
                0x00126f24                deflateInit2_
                0x00129e64                deflateReset
                0x0012a140                deflatePrime
                0x00128558                deflateCopy
                0x00129f68                deflateParams
                0x001283f8                deflateEnd
 .text          0x0012a2c0     0x2188 /usr/local/lib/libz.a(trees.o)
                0x0012b638                _tr_flush_block
                0x0012c188                _tr_stored_block
                0x0012c110                _tr_init
                0x0012ba98                _tr_tally
                0x0012b39c                _tr_align
 .text          0x0012c448       0x74 /usr/local/lib/libz.a(zutil.o)
                0x0012c448                zlibVersion
                0x0012c454                zlibCompileFlags
                0x0012c498                zcfree
                0x0012c45c                zError
                0x0012c474                zcalloc
 .text          0x0012c4bc     0x22fc /usr/local/lib/libz.a(inflate.o)
                0x0012e2a8                inflateCopy
                0x0012c824                inflate
                0x0012e778                inflateSyncPoint
                0x0012e708                inflateGetHeader
                0x0012e74c                inflateInit_
                0x0012e6a8                inflatePrime
                0x0012e628                inflateReset
                0x0012e008                inflateSync
                0x0012e4f8                inflateSetDictionary
                0x0012e474                inflateEnd
                0x0012c4bc                inflateInit2_
 .text          0x0012e7b8      0x60c /usr/local/lib/libz.a(inftrees.o)
                0x0012e7b8                inflate_table
 .text          0x0012edc4      0x4c0 /usr/local/lib/libz.a(inffast.o)
                0x0012edc4                inflate_fast
 .text          0x0012f284      0x3f8 /usr/local/lib/libz.a(adler32.o)
                0x0012f284                adler32
                0x0012f5c4                adler32_combine
 .text          0x0012f67c      0x1b4 /usr/local/lib/libz.a(compress.o)
                0x0012f74c                compress2
                0x0012f818                compressBound
                0x0012f67c                compress
 .text          0x0012f830      0x88c /usr/local/lib/libz.a(crc32.o)
                0x0012f830                crc32
                0x0012fe78                crc32_combine
                0x001300b0                get_crc_table
 .text          0x001300bc       0x3c /usr/local/lib/libgen.a(basename.o)
                0x001300bc                basename
 .text          0x001300f8      0x5b4 /gg/lib/gcc-lib/ppc-morphos/2.95.3/libnix/libgcc.a(_divdi3.o)
                0x001300f8                __divdi3
 .text          0x001306ac       0x54 /gg/lib/gcc-lib/ppc-morphos/2.95.3/libnix/libgcc.a(_eprintf.o)
                0x001306ac                __eprintf
 .text          0x00130700       0x48 /gg/lib/gcc-lib/ppc-morphos/2.95.3/libnix/libgcc.a(_fixdfdi.o)
                0x00130700                __fixdfdi
 .text          0x00130748      0x1d8 /gg/lib/gcc-lib/ppc-morphos/2.95.3/libnix/libgcc.a(_fixunsdfdi.o)
                0x00130748                __fixunsdfdi
 .text          0x00130920       0x68 /gg/lib/gcc-lib/ppc-morphos/2.95.3/libnix/libgcc.a(_floatdidf.o)
                0x00130920                __floatdidf
 .text          0x00130988      0x524 /gg/lib/gcc-lib/ppc-morphos/2.95.3/libnix/libgcc.a(_udivdi3.o)
                0x00130988                __udivdi3
 .text          0x00130eac      0x4e4 /gg/lib/gcc-lib/ppc-morphos/2.95.3/libnix/libgcc.a(_umoddi3.o)
                0x00130eac                __umoddi3
 .text          0x00131390       0x48 /gg/lib/gcc-lib/ppc-morphos/2.95.3/libnix/libgcc.a(_cmpdi2.o)
                0x00131390                __cmpdi2
 .text          0x001313d8      0x4d8 /gg/ppc-morphos/lib/libnix/libc.a(__nocommandline.o)
                0x001313d8                __nocommandline
                0x0013185c                __DSTP___exitcommandline
 .text          0x001318b0       0x98 /gg/ppc-morphos/lib/libnix/libc.a(printf.o)
                0x001318b0                printf
 .text          0x00131948       0x6c /gg/ppc-morphos/lib/libnix/libc.a(vfprintf.o)
                0x00131978                vfprintf
 .text          0x001319b4       0x34 /gg/ppc-morphos/lib/libnix/libc.a(vprintf.o)
                0x001319b4                vprintf
 .text          0x001319e8       0x90 /gg/ppc-morphos/lib/libnix/libc.a(__stdio.o)
                0x001319e8                __CSTP___initstdfio
 .text          0x00131a78      0x244 /gg/ppc-morphos/lib/libnix/libc.a(fopen.o)
                0x00131c60                __DSTP___exitstdfio
                0x00131a78                fopen
                0x00131b98                fclose
 .text          0x00131cbc       0x48 /gg/ppc-morphos/lib/libnix/libc.a(calloc.o)
                0x00131cbc                calloc
 .text          0x00131d04      0x134 /gg/ppc-morphos/lib/libnix/libc.a(malloc.o)
                0x00131d04                malloc
                0x00131de0                __DSTP___exitmalloc
 .text          0x00131e38      0x240 /gg/ppc-morphos/lib/libnix/libc.a(freopen.o)
                0x00131e38                freopen
 .text          0x00132078       0x70 /gg/ppc-morphos/lib/libnix/libc.a(free.o)
                0x00132078                free
 .text          0x001320e8       0xb8 /gg/ppc-morphos/lib/libnix/libc.a(__fflush.o)
                0x001320e8                __fflush
 .text          0x001321a0     0x13e8 /gg/ppc-morphos/lib/libnix/libc.a(open.o)
                0x00132d80                __dup
                0x00132f08                __dup2
                0x001324f8                __CSTP___initstdio
                0x00132f08                dup2
                0x00132aac                __open
                0x00132804                __DSTP___exitstdio
                0x00132254                __set_handle
                0x001321a0                __get_handle
                0x00132d80                dup
                0x00133484                __close
                0x00132aac                open
                0x001330ac                fcntl
                0x00133484                close
 .text          0x00133588       0x50 /gg/ppc-morphos/lib/libnix/libc.a(__isatty.o)
                0x00133588                isatty
 .text          0x001335d8       0x90 /gg/ppc-morphos/lib/libnix/libc.a(__seterrno.o)
                0x001335d8                __seterrno
 .text          0x00133668       0x6c /gg/ppc-morphos/lib/libnix/libc.a(fputc.o)
                0x00133668                putc
                0x00133668                fputc
 .text          0x001336d4      0x1b0 /gg/ppc-morphos/lib/libnix/libc.a(__swbuf.o)
                0x001336d4                __swbuf
 .text          0x00133884       0xd4 /gg/ppc-morphos/lib/libnix/libc.a(realloc.o)
                0x00133884                realloc
 .text          0x00133958       0x80 /gg/ppc-morphos/lib/libnix/libc.a(signal.o)
                0x00133958                signal
 .text          0x001339d8       0xd0 /gg/ppc-morphos/lib/libnix/libc.a(memset.o)
                0x001339d8                memset
 .text          0x00133aa8       0x9c /gg/ppc-morphos/lib/libnix/libc.a(time.o)
                0x00133aa8                time
 .text          0x00133b44      0x170 /gg/ppc-morphos/lib/libnix/libc.a(fread.o)
                0x00133b44                fread
 .text          0x00133cb4       0x30 /gg/ppc-morphos/lib/libnix/libc.a(strerror.o)
                0x00133cb4                strerror
 .text          0x00133ce4       0xc0 /gg/ppc-morphos/lib/libnix/libc.a(ftell.o)
                0x00133ce4                ftell
 .text          0x00133da4      0x1c0 /gg/ppc-morphos/lib/libnix/libc.a(fseek.o)
                0x00133da4                fseek
 .text          0x00133f64      0x120 /gg/ppc-morphos/lib/libnix/libc.a(fwrite.o)
                0x00133f64                fwrite
 .text          0x00134084       0x74 /gg/ppc-morphos/lib/libnix/libc.a(strtod.o)
                0x00134084                strtod
 .text          0x001340f8       0x34 /gg/ppc-morphos/lib/libnix/libc.a(abort.o)
                0x001340f8                abort
 .text          0x0013412c       0x28 /gg/ppc-morphos/lib/libnix/libc.a(atoi.o)
                0x0013412c                atoi
 .text          0x00134154      0x1c4 /gg/ppc-morphos/lib/libnix/libc.a(qsort.o)
                0x00134154                qsort
 .text          0x00134318       0xdc /gg/ppc-morphos/lib/libnix/libc.a(strtol.o)
                0x00134318                strtol
 .text          0x001343f4      0x2dc /gg/ppc-morphos/lib/libnix/libc.a(strtoul.o)
                0x001343f4                strtoul
 .text          0x001346d0       0xd0 /gg/ppc-morphos/lib/libnix/libc.a(getenv.o)
                0x001346d0                getenv
                0x001346d0                __getenv
 .text          0x001347a0       0x78 /gg/ppc-morphos/lib/libnix/libc.a(localtime.o)
                0x001347a0                localtime
                0x001347dc                localtime_r
 .text          0x00134818      0x2c4 /gg/ppc-morphos/lib/libnix/libc.a(gmtime.o)
                0x00134818                gmtime_r
                0x00134ab4                gmtime
 .text          0x00134adc       0xc8 /gg/ppc-morphos/lib/libnix/libc.a(fflush.o)
                0x00134adc                fflush
 .text          0x00134ba4       0x78 /gg/ppc-morphos/lib/libnix/libc.a(fgets.o)
                0x00134ba4                fgets
 .text          0x00134c1c       0x94 /gg/ppc-morphos/lib/libnix/libc.a(fprintf.o)
                0x00134c1c                fprintf
 .text          0x00134cb0       0x74 /gg/ppc-morphos/lib/libnix/libc.a(fputs.o)
                0x00134cb0                fputs
 .text          0x00134d24       0x34 /gg/ppc-morphos/lib/libnix/libc.a(memchr.o)
                0x00134d24                memchr
 .text          0x00134d58       0x30 /gg/ppc-morphos/lib/libnix/libc.a(memcmp.o)
                0x00134d58                bcmp
                0x00134d58                memcmp
 .text          0x00134d88       0x38 /gg/ppc-morphos/lib/libnix/libc.a(memmove.o)
                0x00134d88                memmove
 .text          0x00134dc0      0x1f0 /gg/ppc-morphos/lib/libnix/libc.a(bcopy.o)
                0x00134dc0                bcopy
 .text          0x00134fb0       0x80 /gg/ppc-morphos/lib/libnix/libc.a(puts.o)
                0x00134fb0                puts
 .text          0x00135030      0x190 /gg/ppc-morphos/lib/libnix/libc.a(setvbuf.o)
                0x00135030                setvbuf
 .text          0x001351c0       0x94 /gg/ppc-morphos/lib/libnix/libc.a(sprintf.o)
                0x001351c0                sprintf
 .text          0x00135254       0x94 /gg/ppc-morphos/lib/libnix/libc.a(sscanf.o)
                0x00135254                sscanf
 .text          0x001352e8       0x38 /gg/ppc-morphos/lib/libnix/libc.a(strcat.o)
                0x001352e8                strcat
 .text          0x00135320       0x24 /gg/ppc-morphos/lib/libnix/libc.a(strchr.o)
                0x00135320                index
                0x00135320                stpchr
                0x00135320                strchr
 .text          0x00135344       0x28 /gg/ppc-morphos/lib/libnix/libc.a(strcmp.o)
                0x00135344                strcmp
 .text          0x0013536c       0x24 /gg/ppc-morphos/lib/libnix/libc.a(strcpy.o)
                0x0013536c                strcpy
 .text          0x00135390       0x30 /gg/ppc-morphos/lib/libnix/libc.a(strcspn.o)
                0x00135390                strcspn
 .text          0x001353c0       0x20 /gg/ppc-morphos/lib/libnix/libc.a(strlen.o)
                0x001353c0                strlen
 .text          0x001353e0       0x38 /gg/ppc-morphos/lib/libnix/libc.a(strncmp.o)
                0x001353e0                strncmp
 .text          0x00135418       0x4c /gg/ppc-morphos/lib/libnix/libc.a(strncpy.o)
                0x00135418                strncpy
 .text          0x00135464       0x4c /gg/ppc-morphos/lib/libnix/libc.a(strpbrk.o)
                0x00135464                strpbrk
 .text          0x001354b0       0x38 /gg/ppc-morphos/lib/libnix/libc.a(strrchr.o)
                0x001354b0                stpchrn
                0x001354b0                strrchr
                0x001354b0                rindex
 .text          0x001354e8       0x54 /gg/ppc-morphos/lib/libnix/libc.a(strstr.o)
                0x001354e8                strstr
 .text          0x0013553c       0xc8 /gg/ppc-morphos/lib/libnix/libc.a(strtok.o)
                0x0013553c                strtok_r
                0x001355dc                strtok
 .text          0x00135604       0x6c /gg/ppc-morphos/lib/libnix/libc.a(memcpy.o)
                0x00135604                memcpy
 .text          0x00135670       0x60 /gg/ppc-morphos/lib/libnix/libc.a(vsprintf.o)
                0x0013568c                vsprintf
 .text          0x001356d0       0x78 /gg/ppc-morphos/lib/libnix/libc.a(vsscanf.o)
                0x00135708                vsscanf
 .text          0x00135748      0x534 /gg/ppc-morphos/lib/libnix/libc.a(dirent.o)
                0x00135970                rewinddir
                0x00135850                readdir
                0x00135aac                scandir
                0x00135bfc                alphasort
                0x00135748                opendir
                0x00135a0c                closedir
 .text          0x00135c7c      0x168 /gg/ppc-morphos/lib/libnix/libc.a(stat.o)
                0x00135c7c                lstat
                0x00135c7c                stat
 .text          0x00135de4      0x134 /gg/ppc-morphos/lib/libnix/libc.a(__stat.o)
                0x00135de4                __stat
 .text          0x00135f18      0x148 /gg/ppc-morphos/lib/libnix/libc.a(access.o)
                0x00135f18                access
 .text          0x00136060      0x218 /gg/ppc-morphos/lib/libnix/libc.a(fstat.o)
                0x00136060                fstat
 .text          0x00136278       0xbc /gg/ppc-morphos/lib/libnix/libc.a(bzero.o)
                0x00136278                bzero
 .text          0x00136334       0x70 /gg/ppc-morphos/lib/libnix/libc.a(strdup.o)
                0x00136334                strdup
 .text          0x001363a4      0x15c /gg/ppc-morphos/lib/libnix/libc.a(gettimeofday.o)
                0x00136454                gettimeofday
 .text          0x00136500       0x84 /gg/ppc-morphos/lib/libnix/libc.a(mkdir.o)
                0x00136500                mkdir
 .text          0x00136584       0xf0 /gg/ppc-morphos/lib/libnix/libc.a(strtoll.o)
                0x00136584                strtoimax
                0x00136584                strtoll
                0x00136584                strtoq
 .text          0x00136674      0x3d0 /gg/ppc-morphos/lib/libnix/libc.a(strtoull.o)
                0x00136674                strtoumax
                0x00136674                strtoull
                0x00136674                strtouq
 .text          0x00136a44       0x54 /gg/ppc-morphos/lib/libnix/libc.a(semaphore.o)
                0x00136a44                __CSTP___init_semaphore
 .text          0x00136a98      0x14c /gg/ppc-morphos/lib/libnix/libc.a(write.o)
                0x00136a98                __write
                0x00136a98                write
 .text          0x00136be4       0xc0 /gg/ppc-morphos/lib/libnix/libc.a(read.o)
                0x00136be4                __read
                0x00136be4                read
 .text          0x00136ca4      0x13c /gg/ppc-morphos/lib/libnix/libc.a(lseek.o)
                0x00136ca4                lseek
                0x00136ca4                __lseek
 .text          0x00136de0      0x288 /gg/ppc-morphos/lib/libnix/libc.a(lseek64.o)
                0x00136de0                lseek64
 .text          0x00137068      0x120 /gg/ppc-morphos/lib/libnix/libc.a(chmod.o)
                0x00137068                chmod
 .text          0x00137188      0x1d0 /gg/ppc-morphos/lib/libnix/libc.a(destructors.o)
                0x0013724c                __free_destructor
                0x00137188                __alloc_destructor
                0x001372f4                __DSTP___exitdestr
 .text          0x00137358     0x17b0 /gg/ppc-morphos/lib/libnix/libc.a(printfshared.o)
                0x00137498                _printfshared
 .text          0x00138b08       0x58 /gg/ppc-morphos/lib/libnix/libc.a(__chkabort.o)
                0x00138b08                chkabort
                0x00138b08                Chk_Abort
                0x00138b08                __chkabort
 .text          0x00138b60      0x128 /gg/ppc-morphos/lib/libnix/libc.a(raise.o)
                0x00138b60                raise
 .text          0x00138c88       0x58 /gg/ppc-morphos/lib/libnix/libc.a(isinf.o)
                0x00138c88                isinf
 .text          0x00138ce0       0x44 /gg/ppc-morphos/lib/libnix/libc.a(isnan.o)
                0x00138ce0                isnan
 .text          0x00138d24     0x1d1c /gg/ppc-morphos/lib/libnix/libc.a(scanfshared.o)
                0x00138da0                _scanfshared
 .text          0x0013aa40       0x50 /gg/ppc-morphos/lib/libnix/libc.a(fgetc.o)
                0x0013aa40                getc
                0x0013aa40                fgetc
 .text          0x0013aa90      0x1d4 /gg/ppc-morphos/lib/libnix/libc.a(__srget.o)
                0x0013aa90                __srget
 .text          0x0013ac64       0x50 /gg/ppc-morphos/lib/libnix/libc.a(strspn.o)
                0x0013ac64                strspn
 .text          0x0013acb4       0x28 /gg/ppc-morphos/lib/libaboxstubs.a(accept.o)
                0x0013acb4                accept
 .text          0x0013acdc       0x28 /gg/ppc-morphos/lib/libaboxstubs.a(bind.o)
                0x0013acdc                bind
 .text          0x0013ad04       0x28 /gg/ppc-morphos/lib/libaboxstubs.a(connect.o)
                0x0013ad04                connect
 .text          0x0013ad2c       0x20 /gg/ppc-morphos/lib/libaboxstubs.a(FindTask.o)
                0x0013ad2c                FindTask
 .text          0x0013ad4c       0x1c /gg/ppc-morphos/lib/libaboxstubs.a(geteuid.o)
                0x0013ad4c                geteuid
 .text          0x0013ad68       0x20 /gg/ppc-morphos/lib/libaboxstubs.a(gethostbyname.o)
                0x0013ad68                gethostbyname
 .text          0x0013ad88       0x24 /gg/ppc-morphos/lib/libaboxstubs.a(gethostname.o)
                0x0013ad88                gethostname
 .text          0x0013adac       0x28 /gg/ppc-morphos/lib/libaboxstubs.a(getpeername.o)
                0x0013adac                getpeername
 .text          0x0013add4       0x20 /gg/ppc-morphos/lib/libaboxstubs.a(getpwuid.o)
                0x0013add4                getpwuid
 .text          0x0013adf4       0x28 /gg/ppc-morphos/lib/libaboxstubs.a(getsockname.o)
                0x0013adf4                getsockname
 .text          0x0013ae1c       0x30 /gg/ppc-morphos/lib/libaboxstubs.a(getsockopt.o)
                0x0013ae1c                getsockopt
 .text          0x0013ae4c       0x24 /gg/ppc-morphos/lib/libaboxstubs.a(listen.o)
                0x0013ae4c                listen
 .text          0x0013ae70       0x2c /gg/ppc-morphos/lib/libaboxstubs.a(recv.o)
                0x0013ae70                recv
 .text          0x0013ae9c       0x34 /gg/ppc-morphos/lib/libaboxstubs.a(recvfrom.o)
                0x0013ae9c                recvfrom
 .text          0x0013aed0       0x2c /gg/ppc-morphos/lib/libaboxstubs.a(send.o)
                0x0013aed0                send
 .text          0x0013aefc       0x34 /gg/ppc-morphos/lib/libaboxstubs.a(sendto.o)
                0x0013aefc                sendto
 .text          0x0013af30       0x30 /gg/ppc-morphos/lib/libaboxstubs.a(setsockopt.o)
                0x0013af30                setsockopt
 .text          0x0013af60       0x28 /gg/ppc-morphos/lib/libaboxstubs.a(socket.o)
                0x0013af60                socket
 .text          0x0013af88       0x34 /gg/ppc-morphos/lib/libaboxstubs.a(WaitSelect.o)
                0x0013af88                WaitSelect
 .text          0x0013afbc      0x154 /gg/ppc-morphos/lib/libnix/libauto.a(SocketBase.o)
 .text          0x0013b110       0x84 /gg/ppc-morphos/lib/libnix/libauto.a(UserGroupBase.o)
 .text          0x0013b194       0xc8 /gg/ppc-morphos/lib/libnix/libauto.a(__initlibraries.o)
                0x0013b200                __closelib
                0x0013b194                __openlib
 .text          0x0013b25c       0xb0 /gg/ppc-morphos/lib/libnix/libauto.a(__openliberror.o)
                0x0013b25c                __openliberror
 *(.text.*)
 *(.gnu.warning)
 *(.gnu.linkonce.t*)
                0x0013b30c                PROVIDE (__text_end, .)
                0x0013b30c                PROVIDE (__text_size, SIZEOF(.text))

.init
 *(.init)

.fini
 *(.fini)

.rodata         0x00000000    0x4b678
 *(.rodata)
 .rodata        0x00000000       0x10 /gg/ppc-morphos/lib/libnix/crt0.o
 .rodata        0x00000010      0x13c tool_cb_dbg.o
 .rodata        0x0000014c       0x38 tool_cb_hdr.o
 *fill*         0x00000184        0x4
 .rodata        0x00000188       0x30 tool_cb_prg.o
 .rodata        0x000001b8       0x6c tool_cb_wrt.o
 .rodata        0x00000224      0x12c tool_dirhie.o
 .rodata        0x00000350      0x344 tool_easysrc.o
 .rodata        0x00000694      0x138 tool_formparse.o
 .rodata        0x000007cc     0x1b28 tool_getparam.o
 .rodata        0x000022f4       0x10 tool_getpass.o
 .rodata        0x00002304     0x3748 tool_help.o
 .rodata        0x00005a4c      0x2e0 tool_helpers.o
 .rodata        0x00005d2c       0x14 tool_homedir.o
 .rodata        0x00005d40     0xd5cc tool_hugehelp.o
 .rodata        0x0001330c      0x16c tool_libinfo.o
 .rodata        0x00013478       0x94 tool_main.o
 .rodata        0x0001350c       0x64 tool_msgs.o
 .rodata        0x00013570     0x1660 tool_operate.o
 .rodata        0x00014bd0       0x34 tool_operhlp.o
 *fill*         0x00014c04        0x4
 .rodata        0x00014c08      0x2f8 tool_paramhlp.o
 .rodata        0x00014f00       0x94 tool_parsecfg.o
 .rodata        0x00014f94      0xc94 tool_setopt.o
                0x000154e8                setopt_nv_CURL_NETRC
                0x000154a0                setopt_nv_CURLSSLOPT
                0x00015088                setopt_nv_CURLAUTH
                0x00015194                setopt_nv_CURL_HTTP_VERSION
                0x00015344                setopt_nv_CURL_TIMECOND
                0x000153d0                setopt_nv_CURLFTPSSL_CCC
                0x00014f94                setopt_nv_CURLPROXY
                0x0001523c                setopt_nv_CURL_SSLVERSION
                0x00015060                setopt_nv_CURL_SOCKS_PROXY
                0x00015434                setopt_nv_CURLUSESSL
                0x00015544                setopt_nv_CURLPROTO
 .rodata        0x00015c28      0x144 tool_urlglob.o
 *fill*         0x00015d6c        0x4
 .rodata        0x00015d70       0x10 tool_util.o
 .rodata        0x00015d80      0x348 tool_writeout.o
 .rodata        0x000160c8      0x214 ../lib/.libs/libcurl.a(libcurl_la-formdata.o)
 .rodata        0x000162dc       0xdc ../lib/.libs/libcurl.a(libcurl_la-sendf.o)
 .rodata        0x000163b8      0x110 ../lib/.libs/libcurl.a(libcurl_la-version.o)
 .rodata        0x000164c8        0x8 ../lib/.libs/libcurl.a(libcurl_la-escape.o)
 .rodata        0x000164d0       0x70 ../lib/.libs/libcurl.a(libcurl_la-mprintf.o)
 .rodata        0x00016540       0x64 ../lib/.libs/libcurl.a(libcurl_la-easy.o)
 .rodata        0x000165a4      0x314 ../lib/.libs/libcurl.a(libcurl_la-connect.o)
 .rodata        0x000168b8      0x29c ../lib/.libs/libcurl.a(libcurl_la-multi.o)
 .rodata        0x00016b54        0xc ../lib/.libs/libcurl.a(libcurl_la-inet_pton.o)
 .rodata        0x00016b60      0xd50 ../lib/.libs/libcurl.a(libcurl_la-strerror.o)
 .rodata        0x000178b0        0xc ../lib/.libs/libcurl.a(libcurl_la-inet_ntop.o)
 .rodata        0x000178bc      0x4b8 ../lib/.libs/libcurl.a(libcurl_la-parsedate.o)
                0x000178bc                Curl_wkday
                0x00017954                Curl_month
 .rodata        0x00017d74       0x48 ../lib/.libs/libcurl.a(libcurl_la-rand.o)
 .rodata        0x00017dbc        0x8 ../lib/.libs/libcurl.a(libcurl_la-conncache.o)
 .rodata        0x00017dc4       0x90 ../lib/.libs/libcurl.a(libcurl_la-pipeline.o)
 .rodata        0x00017e54       0xb4 ../lib/.libs/libcurl.a(libcurl_la-vtls.o)
 .rodata        0x00017f08       0x10 ../lib/.libs/libcurl.a(libcurl_la-timeval.o)
 .rodata        0x00017f18       0xa4 ../lib/.libs/libcurl.a(libcurl_la-base64.o)
 .rodata        0x00017fbc      0x144 ../lib/.libs/libcurl.a(libcurl_la-hostip.o)
 .rodata        0x00018100      0x1d0 ../lib/.libs/libcurl.a(libcurl_la-progress.o)
 .rodata        0x000182d0      0x24c ../lib/.libs/libcurl.a(libcurl_la-cookie.o)
 .rodata        0x0001851c      0xb30 ../lib/.libs/libcurl.a(libcurl_la-http.o)
                0x00018568                Curl_handler_https
                0x0001851c                Curl_handler_http
 .rodata        0x0001904c      0xa60 ../lib/.libs/libcurl.a(libcurl_la-url.o)
 .rodata        0x00019aac      0x140 ../lib/.libs/libcurl.a(libcurl_la-dict.o)
                0x00019aac                Curl_handler_dict
 .rodata        0x00019bec       0x50 ../lib/.libs/libcurl.a(libcurl_la-speedcheck.o)
 .rodata        0x00019c3c      0x580 ../lib/.libs/libcurl.a(libcurl_la-telnet.o)
                0x00019f38                Curl_handler_telnet
 .rodata        0x0001a1bc       0x48 ../lib/.libs/libcurl.a(libcurl_la-netrc.o)
 *fill*         0x0001a204        0x4
 .rodata        0x0001a208       0x10 ../lib/.libs/libcurl.a(libcurl_la-getinfo.o)
 .rodata        0x0001a218      0x70c ../lib/.libs/libcurl.a(libcurl_la-transfer.o)
 .rodata        0x0001a924      0x108 ../lib/.libs/libcurl.a(libcurl_la-http_chunks.o)
 .rodata        0x0001aa2c       0x9c ../lib/.libs/libcurl.a(libcurl_la-content_encoding.o)
 .rodata        0x0001aac8       0x3c ../lib/.libs/libcurl.a(libcurl_la-http_digest.o)
 .rodata        0x0001ab04       0x24 ../lib/.libs/libcurl.a(libcurl_la-hostip4.o)
 .rodata        0x0001ab28      0x498 ../lib/.libs/libcurl.a(libcurl_la-tftp.o)
                0x0001ab28                Curl_handler_tftp
 .rodata        0x0001afc0      0x948 ../lib/.libs/libcurl.a(libcurl_la-socks.o)
 .rodata        0x0001b908      0x534 ../lib/.libs/libcurl.a(libcurl_la-imap.o)
                0x0001b954                Curl_handler_imaps
                0x0001b908                Curl_handler_imap
 .rodata        0x0001be3c      0x2b0 ../lib/.libs/libcurl.a(libcurl_la-pop3.o)
                0x0001be3c                Curl_handler_pop3
                0x0001be88                Curl_handler_pop3s
 .rodata        0x0001c0ec      0x38c ../lib/.libs/libcurl.a(libcurl_la-smtp.o)
                0x0001c138                Curl_handler_smtps
                0x0001c0ec                Curl_handler_smtp
 .rodata        0x0001c478       0x94 ../lib/.libs/libcurl.a(libcurl_la-pingpong.o)
 .rodata        0x0001c50c      0x4c4 ../lib/.libs/libcurl.a(libcurl_la-rtsp.o)
                0x0001c50c                Curl_handler_rtsp
 .rodata        0x0001c9d0       0x74 ../lib/.libs/libcurl.a(libcurl_la-gopher.o)
                0x0001c9d0                Curl_handler_gopher
 .rodata        0x0001ca44      0x36c ../lib/.libs/libcurl.a(libcurl_la-http_proxy.o)
 .rodata        0x0001cdb0       0x90 ../lib/.libs/libcurl.a(libcurl_la-http_ntlm.o)
 .rodata        0x0001ce40      0x10c ../lib/.libs/libcurl.a(libcurl_la-curl_sasl.o)
                0x0001ce40                mechtable
 .rodata        0x0001cf4c       0x24 ../lib/.libs/libcurl.a(libcurl_la-dotdot.o)
 .rodata        0x0001cf70       0xf4 ../lib/.libs/libcurl.a(libcurl_la-smb.o)
                0x0001cfb8                Curl_handler_smbs
                0x0001cf70                Curl_handler_smb
 .rodata        0x0001d064        0x4 ../lib/.libs/libcurl.a(libcurl_la-cleartext.o)
 .rodata        0x0001d068       0x44 ../lib/.libs/libcurl.a(libcurl_la-cram.o)
 .rodata        0x0001d0ac      0x248 ../lib/.libs/libcurl.a(libcurl_la-digest.o)
 .rodata        0x0001d2f4      0x1e4 ../lib/.libs/libcurl.a(libcurl_la-ntlm.o)
 .rodata        0x0001d4d8       0x6c ../lib/.libs/libcurl.a(libcurl_la-oauth2.o)
 *fill*         0x0001d544        0x4
 .rodata        0x0001d548     0x13c0 ../lib/.libs/libcurl.a(libcurl_la-openssl.o)
 .rodata        0x0001e908      0x140 ../lib/.libs/libcurl.a(libcurl_la-file.o)
                0x0001e908                Curl_handler_file
 .rodata        0x0001ea48      0xf28 ../lib/.libs/libcurl.a(libcurl_la-ftp.o)
                0x0001ea90                Curl_handler_ftps
                0x0001ea48                Curl_handler_ftp
 .rodata        0x0001f970       0x40 ../lib/.libs/libcurl.a(libcurl_la-ftplistparser.o)
 .rodata        0x0001f9b0       0x2c ../lib/.libs/libcurl.a(libcurl_la-md5.o)
                0x0001f9b0                Curl_HMAC_MD5
                0x0001f9c8                Curl_DIGEST_MD5
 .rodata        0x0001f9dc       0x1c ../lib/.libs/libcurl.a(libcurl_la-curl_ntlm_core.o)
 .rodata        0x0001f9f8        0x8 ../lib/.libs/libcurl.a(libcurl_la-hostcheck.o)
 .rodata        0x0001fa00       0x20 ../lib/.libs/libcurl.a(libcurl_la-vauth.o)
 .rodata        0x0001fa20       0x50 ../lib/.libs/libcurl.a(libcurl_la-curl_fnmatch.o)
 .rodata        0x0001fa70       0x18 /usr/local/lib/libssl.a(s3_clnt.o)
 .rodata        0x0001fa88      0x538 /usr/local/lib/libssl.a(s3_lib.o)
                0x0001fa88                ssl3_version_str
 .rodata        0x0001ffc0       0x18 /usr/local/lib/libssl.a(s3_enc.o)
 .rodata        0x0001ffd8       0x24 /usr/local/lib/libssl.a(s3_pkt.o)
 .rodata        0x0001fffc        0xc /usr/local/lib/libssl.a(s3_both.o)
 .rodata        0x00020008       0x18 /usr/local/lib/libssl.a(s23_clnt.o)
 .rodata        0x00020020        0xc /usr/local/lib/libssl.a(s23_lib.o)
 .rodata        0x0002002c       0x58 /usr/local/lib/libssl.a(t1_lib.o)
                0x0002002c                tls1_version_str
 .rodata        0x00020084       0x6c /usr/local/lib/libssl.a(t1_enc.o)
 .rodata        0x000200f0       0xbc /usr/local/lib/libssl.a(ssl_lib.o)
 .rodata        0x000201ac       0x64 /usr/local/lib/libssl.a(ssl_cert.o)
 .rodata        0x00020210        0xc /usr/local/lib/libssl.a(ssl_sess.o)
 .rodata        0x0002021c      0xb68 /usr/local/lib/libssl.a(ssl_ciph.o)
 .rodata        0x00020d84        0xc /usr/local/lib/libssl.a(ssl_rsa.o)
 .rodata        0x00020d90       0x38 /usr/local/lib/libssl.a(ssl_asn1.o)
 .rodata        0x00020dc8       0x74 /usr/local/lib/libssl.a(ssl_algs.o)
 .rodata        0x00020e3c       0x10 /usr/local/lib/libssl.a(bio_ssl.o)
 .rodata        0x00020e4c     0x2780 /usr/local/lib/libssl.a(ssl_err.o)
 *fill*         0x000235cc        0x4
 .rodata        0x000235d0       0x18 /usr/local/lib/libssl.a(s2_clnt.o)
 .rodata        0x000235e8      0x128 /usr/local/lib/libssl.a(s2_lib.o)
                0x000235e8                ssl2_version_str
 .rodata        0x00023710       0x78 /usr/local/lib/libssl.a(s2_enc.o)
 .rodata        0x00023788       0x28 /usr/local/lib/libssl.a(s2_pkt.o)
 .rodata        0x000237b0       0x38 /usr/local/lib/libcrypto.a(cryptlib.o)
 .rodata        0x000237e8        0x8 /usr/local/lib/libcrypto.a(mem.o)
 .rodata        0x000237f0       0xb0 /usr/local/lib/libcrypto.a(mem_dbg.o)
 .rodata        0x000238a0      0x11c /usr/local/lib/libcrypto.a(cversion.o)
 .rodata        0x000239bc        0xc /usr/local/lib/libcrypto.a(ex_data.o)
 .rodata        0x000239c8        0xc /usr/local/lib/libcrypto.a(o_names.o)
 .rodata        0x000239d4     0x4fac /usr/local/lib/libcrypto.a(obj_dat.o)
 .rodata        0x00028980        0xc /usr/local/lib/libcrypto.a(obj_lib.o)
 .rodata        0x0002898c       0x28 /usr/local/lib/libcrypto.a(md4_dgst.o)
                0x0002898c                MD4_version
 .rodata        0x000289b4       0x28 /usr/local/lib/libcrypto.a(md5_dgst.o)
                0x000289b4                MD5_version
 .rodata        0x000289dc      0x12c /usr/local/lib/libcrypto.a(sha256.o)
                0x000289dc                SHA256_version
 .rodata        0x00028b08       0x4c /usr/local/lib/libcrypto.a(hmac.o)
 .rodata        0x00028b54      0x980 /usr/local/lib/libcrypto.a(set_key.o)
 .rodata        0x000294d4      0x800 /usr/local/lib/libcrypto.a(ecb_enc.o)
                0x000294d4                DES_SPtrans
 .rodata        0x00029cd4      0x13c /usr/local/lib/libcrypto.a(bn_lib.o)
                0x00029cd4                BN_version
 .rodata        0x00029e10        0xc /usr/local/lib/libcrypto.a(bn_ctx.o)
 .rodata        0x00029e1c       0x34 /usr/local/lib/libcrypto.a(bn_print.o)
 .rodata        0x00029e50       0x34 /usr/local/lib/libcrypto.a(ec_lib.o)
 .rodata        0x00029e84        0xc /usr/local/lib/libcrypto.a(ec_mult.o)
 .rodata        0x00029e90     0x5d60 /usr/local/lib/libcrypto.a(ec_curve.o)
 .rodata        0x0002fbf0        0xc /usr/local/lib/libcrypto.a(ec_key.o)
 *fill*         0x0002fbfc        0x4
 .rodata        0x0002fc00       0x18 /usr/local/lib/libcrypto.a(rsa_lib.o)
 .rodata        0x0002fc18       0x44 /usr/local/lib/libcrypto.a(rsa_sign.o)
 .rodata        0x0002fc5c      0x17c /usr/local/lib/libcrypto.a(rsa_asn1.o)
                0x0002fdbc                RSAPublicKey_it
                0x0002fd5c                RSAPrivateKey_it
 .rodata        0x0002fdd8       0x34 /usr/local/lib/libcrypto.a(rsa_eng.o)
                0x0002fdd8                RSA_version
 .rodata        0x0002fe0c      0x288 /usr/local/lib/libcrypto.a(dsa_asn1.o)
                0x0002fe60                DSA_SIG_it
                0x0003001c                dsa_pub_internal_it
                0x0002ff3c                DSAPrivateKey_it
                0x0002ffb0                DSAparams_it
                0x00030078                DSAPublicKey_it
 .rodata        0x00030094        0xc /usr/local/lib/libcrypto.a(dsa_utl.o)
 .rodata        0x000300a0       0x84 /usr/local/lib/libcrypto.a(dh_asn1.o)
                0x00030104                DHparams_it
 .rodata        0x00030124       0x20 /usr/local/lib/libcrypto.a(dh_key.o)
 .rodata        0x00030144       0x40 /usr/local/lib/libcrypto.a(dh_lib.o)
                0x00030144                DH_version
 .rodata        0x00030184        0xc /usr/local/lib/libcrypto.a(eng_lib.o)
 .rodata        0x00030190       0x5c /usr/local/lib/libcrypto.a(eng_list.o)
 .rodata        0x000301ec        0xc /usr/local/lib/libcrypto.a(eng_init.o)
 .rodata        0x000301f8       0x14 /usr/local/lib/libcrypto.a(eng_ctrl.o)
 .rodata        0x0003020c        0xc /usr/local/lib/libcrypto.a(eng_pkey.o)
 .rodata        0x00030218       0x4c /usr/local/lib/libcrypto.a(eng_fat.o)
 .rodata        0x00030264        0xc /usr/local/lib/libcrypto.a(tb_cipher.o)
 .rodata        0x00030270        0xc /usr/local/lib/libcrypto.a(tb_digest.o)
 .rodata        0x0003027c        0xc /usr/local/lib/libcrypto.a(buffer.o)
 .rodata        0x00030288        0xc /usr/local/lib/libcrypto.a(buf_str.o)
 .rodata        0x00030294       0x10 /usr/local/lib/libcrypto.a(bio_lib.o)
 .rodata        0x000302a4       0x1c /usr/local/lib/libcrypto.a(bss_mem.o)
 .rodata        0x000302c0       0x40 /usr/local/lib/libcrypto.a(bss_file.o)
 .rodata        0x00030300        0x8 /usr/local/lib/libcrypto.a(bss_sock.o)
 .rodata        0x00030308       0x48 /usr/local/lib/libcrypto.a(bss_conn.o)
 .rodata        0x00030350       0x14 /usr/local/lib/libcrypto.a(bf_buff.o)
 *fill*         0x00030364        0x4
 .rodata        0x00030368       0x80 /usr/local/lib/libcrypto.a(b_print.o)
 .rodata        0x000303e8       0x74 /usr/local/lib/libcrypto.a(b_sock.o)
 .rodata        0x0003045c       0x34 /usr/local/lib/libcrypto.a(stack.o)
                0x0003045c                STACK_version
 .rodata        0x00030490       0x34 /usr/local/lib/libcrypto.a(lhash.o)
                0x00030490                lh_version
 *fill*         0x000304c4        0x4
 .rodata        0x000304c8       0x40 /usr/local/lib/libcrypto.a(randfile.o)
 .rodata        0x00030508       0x10 /usr/local/lib/libcrypto.a(err.o)
 .rodata        0x00030518       0x64 /usr/local/lib/libcrypto.a(err_def.o)
 .rodata        0x0003057c       0x54 /usr/local/lib/libcrypto.a(err_prn.o)
 .rodata        0x000305d0      0x4a0 /usr/local/lib/libcrypto.a(err_str.o)
 .rodata        0x00030a70       0x34 /usr/local/lib/libcrypto.a(digest.o)
 .rodata        0x00030aa4       0x80 /usr/local/lib/libcrypto.a(evp_enc.o)
                0x00030aa4                EVP_version
 .rodata        0x00030b24      0x138 /usr/local/lib/libcrypto.a(e_des.o)
 .rodata        0x00030c5c       0xd0 /usr/local/lib/libcrypto.a(e_idea.o)
 .rodata        0x00030d2c      0x208 /usr/local/lib/libcrypto.a(e_des3.o)
 .rodata        0x00030f34       0x68 /usr/local/lib/libcrypto.a(e_rc4.o)
 .rodata        0x00030f9c      0x3b0 /usr/local/lib/libcrypto.a(e_aes.o)
 .rodata        0x0003134c      0x150 /usr/local/lib/libcrypto.a(e_rc2.o)
 .rodata        0x0003149c       0xa4 /usr/local/lib/libcrypto.a(enc_min.o)
 .rodata        0x00031540       0x48 /usr/local/lib/libcrypto.a(m_md2.o)
 .rodata        0x00031588       0x48 /usr/local/lib/libcrypto.a(m_md5.o)
 .rodata        0x000315d0      0x168 /usr/local/lib/libcrypto.a(m_sha1.o)
 .rodata        0x00031738       0x48 /usr/local/lib/libcrypto.a(m_dss1.o)
 .rodata        0x00031780       0x48 /usr/local/lib/libcrypto.a(m_ecdsa.o)
 .rodata        0x000317c8        0xc /usr/local/lib/libcrypto.a(p_sign.o)
 .rodata        0x000317d4        0xc /usr/local/lib/libcrypto.a(p_verify.o)
 .rodata        0x000317e0        0x8 /usr/local/lib/libcrypto.a(p_lib.o)
 .rodata        0x000317e8      0x7cc /usr/local/lib/libcrypto.a(evp_err.o)
 .rodata        0x00031fb4       0x34 /usr/local/lib/libcrypto.a(e_null.o)
 .rodata        0x00031fe8      0x11c /usr/local/lib/libcrypto.a(c_allc.o)
 .rodata        0x00032104       0x90 /usr/local/lib/libcrypto.a(c_alld.o)
 .rodata        0x00032194       0x34 /usr/local/lib/libcrypto.a(evp_lib.o)
 .rodata        0x000321c8       0x1c /usr/local/lib/libcrypto.a(evp_pbe.o)
 .rodata        0x000321e4       0x68 /usr/local/lib/libcrypto.a(p5_crpt.o)
 .rodata        0x0003224c       0x24 /usr/local/lib/libcrypto.a(p5_crpt2.o)
 .rodata        0x00032270       0x20 /usr/local/lib/libcrypto.a(a_object.o)
 .rodata        0x00032290        0x8 /usr/local/lib/libcrypto.a(a_int.o)
 .rodata        0x00032298        0x8 /usr/local/lib/libcrypto.a(a_dup.o)
 .rodata        0x000322a0       0x90 /usr/local/lib/libcrypto.a(a_strex.o)
 .rodata        0x00032330       0x88 /usr/local/lib/libcrypto.a(x_pubkey.o)
                0x00032384                X509_PUBKEY_it
 .rodata        0x000323b8       0x60 /usr/local/lib/libcrypto.a(x_sig.o)
                0x000323f0                X509_SIG_it
 .rodata        0x00032418       0xbc /usr/local/lib/libcrypto.a(x_attrib.o)
                0x0003245c                X509_ATTRIBUTE_SET_it
                0x000324b8                X509_ATTRIBUTE_it
 .rodata        0x000324d4       0x40 /usr/local/lib/libcrypto.a(x_bignum.o)
                0x000324d4                BIGNUM_it
                0x000324f8                CBIGNUM_it
 .rodata        0x00032514       0x54 /usr/local/lib/libcrypto.a(x_long.o)
                0x00032514                LONG_it
                0x00032538                ZLONG_it
 .rodata        0x00032568      0x148 /usr/local/lib/libcrypto.a(x_name.o)
                0x000325e8                X509_NAME_ENTRIES_it
                0x00032664                x509_name_ff
                0x0003267c                X509_NAME_it
                0x00032634                X509_NAME_INTERNAL_it
                0x000325a0                X509_NAME_ENTRY_it
 .rodata        0x000326b0      0x1e4 /usr/local/lib/libcrypto.a(x_x509.o)
                0x000327e0                X509_CINF_it
                0x00032870                X509_it
 .rodata        0x00032894      0x11c /usr/local/lib/libcrypto.a(x_x509a.o)
                0x00032984                X509_CERT_PAIR_it
                0x00032920                X509_CERT_AUX_it
 .rodata        0x000329b0        0xc /usr/local/lib/libcrypto.a(d2i_pu.o)
 .rodata        0x000329bc        0xc /usr/local/lib/libcrypto.a(d2i_pr.o)
 .rodata        0x000329c8        0xc /usr/local/lib/libcrypto.a(i2d_pu.o)
 .rodata        0x000329d4      0x2e4 /usr/local/lib/libcrypto.a(t_x509.o)
 .rodata        0x00032cb8       0x94 /usr/local/lib/libcrypto.a(t_x509a.o)
 .rodata        0x00032d4c      0x284 /usr/local/lib/libcrypto.a(t_pkey.o)
 .rodata        0x00032fd0        0xc /usr/local/lib/libcrypto.a(tasn_new.o)
 .rodata        0x00032fdc        0xc /usr/local/lib/libcrypto.a(tasn_enc.o)
 .rodata        0x00032fe8       0xa4 /usr/local/lib/libcrypto.a(tasn_dec.o)
 .rodata        0x0003308c        0xc /usr/local/lib/libcrypto.a(tasn_utl.o)
 .rodata        0x00033098      0x468 /usr/local/lib/libcrypto.a(tasn_typ.o)
                0x00033314                ASN1_UNIVERSALSTRING_it
                0x000333c8                ASN1_PRINTABLE_it
                0x00033254                ASN1_GENERALSTRING_it
                0x000331c8                ASN1_PRINTABLESTRING_it
                0x00033448                ASN1_BOOLEAN_it
                0x000332e4                ASN1_VISIBLESTRING_it
                0x000331fc                ASN1_T61STRING_it
                0x00033474                ASN1_TBOOLEAN_it
                0x00033174                ASN1_OBJECT_it
                0x000330f0                ASN1_BIT_STRING_it
                0x00033284                ASN1_UTCTIME_it
                0x00033098                ASN1_INTEGER_it
                0x000332b0                ASN1_GENERALIZEDTIME_it
                0x000333f4                DISPLAYTEXT_it
                0x00033348                ASN1_BMPSTRING_it
                0x000330c4                ASN1_ENUMERATED_it
                0x0003339c                ASN1_SEQUENCE_it
                0x000334cc                ASN1_OCTET_STRING_NDEF_it
                0x000334a0                ASN1_FBOOLEAN_it
                0x0003314c                ASN1_NULL_it
                0x0003319c                ASN1_UTF8STRING_it
                0x00033374                ASN1_ANY_it
                0x0003341c                DIRECTORYSTRING_it
                0x00033228                ASN1_IA5STRING_it
                0x0003311c                ASN1_OCTET_STRING_it
 .rodata        0x00033500       0xd0 /usr/local/lib/libcrypto.a(x_exten.o)
                0x00033558                X509_EXTENSION_it
                0x000335a4                X509_EXTENSIONS_it
 .rodata        0x000335d0      0x29c /usr/local/lib/libcrypto.a(asn1_par.o)
 .rodata        0x0003386c       0x58 /usr/local/lib/libcrypto.a(asn1_lib.o)
                0x0003386c                ASN1_version
 .rodata        0x000338c4     0x10f8 /usr/local/lib/libcrypto.a(asn1_err.o)
 .rodata        0x000349bc        0xc /usr/local/lib/libcrypto.a(evp_asn1.o)
 .rodata        0x000349c8       0x6c /usr/local/lib/libcrypto.a(p5_pbe.o)
                0x00034a00                PBEPARAM_it
 .rodata        0x00034a34      0x108 /usr/local/lib/libcrypto.a(p5_pbev2.o)
                0x00034b08                PBKDF2PARAM_it
                0x00034a70                PBE2PARAM_it
 .rodata        0x00034b3c       0xc8 /usr/local/lib/libcrypto.a(pem_all.o)
 .rodata        0x00034c04      0x308 /usr/local/lib/libcrypto.a(pem_err.o)
 .rodata        0x00034f0c        0xc /usr/local/lib/libcrypto.a(pem_x509.o)
 .rodata        0x00034f18        0xc /usr/local/lib/libcrypto.a(pem_oth.o)
 .rodata        0x00034f24       0x70 /usr/local/lib/libcrypto.a(pem_pkey.o)
 .rodata        0x00034f94        0xc /usr/local/lib/libcrypto.a(x509_cmp.o)
 .rodata        0x00034fa0       0x1c /usr/local/lib/libcrypto.a(x509_obj.o)
 .rodata        0x00034fbc       0x5c /usr/local/lib/libcrypto.a(x509_vfy.o)
                0x00034fbc                X509_version
 .rodata        0x00035018      0x5e4 /usr/local/lib/libcrypto.a(x509_err.o)
 .rodata        0x000355fc       0x14 /usr/local/lib/libcrypto.a(x509name.o)
 .rodata        0x00035610        0xc /usr/local/lib/libcrypto.a(x509_v3.o)
 .rodata        0x0003561c        0xc /usr/local/lib/libcrypto.a(x509_lu.o)
 .rodata        0x00035628      0x64c /usr/local/lib/libcrypto.a(x509_txt.o)
 .rodata        0x00035c74       0x70 /usr/local/lib/libcrypto.a(x509_trs.o)
 .rodata        0x00035ce4       0x28 /usr/local/lib/libcrypto.a(by_file.o)
 .rodata        0x00035d0c       0x5c /usr/local/lib/libcrypto.a(by_dir.o)
 .rodata        0x00035d68       0xb4 /usr/local/lib/libcrypto.a(x509_vpm.o)
 .rodata        0x00035e1c        0xc /usr/local/lib/libcrypto.a(v3_lib.o)
 .rodata        0x00035e28       0x70 /usr/local/lib/libcrypto.a(v3_prn.o)
 .rodata        0x00035e98       0x88 /usr/local/lib/libcrypto.a(v3_utl.o)
 .rodata        0x00035f20      0xa68 /usr/local/lib/libcrypto.a(v3err.o)
 .rodata        0x00036988      0x290 /usr/local/lib/libcrypto.a(v3_genn.o)
                0x00036b9c                GENERAL_NAME_it
                0x000369c0                OTHERNAME_it
                0x00036a2c                EDIPARTYNAME_it
                0x00036bec                GENERAL_NAMES_it
 .rodata        0x00036c18      0x204 /usr/local/lib/libcrypto.a(v3_alt.o)
                0x00036c18                v3_alt
 .rodata        0x00036e1c       0x4c /usr/local/lib/libcrypto.a(v3_skey.o)
                0x00036e1c                v3_skey_id
 .rodata        0x00036e68       0x6c /usr/local/lib/libcrypto.a(v3_akey.o)
                0x00036e68                v3_akey_id
 .rodata        0x00036ed4       0xd0 /usr/local/lib/libcrypto.a(v3_pku.o)
                0x00036ed4                v3_pkey_usage_period
                0x00036f4c                PKEY_USAGE_PERIOD_it
 .rodata        0x00036fa4       0xa8 /usr/local/lib/libcrypto.a(v3_int.o)
                0x00036fdc                v3_delta_crl
                0x00036fa4                v3_crl_num
                0x00037014                v3_inhibit_anyp
 .rodata        0x0003704c      0x144 /usr/local/lib/libcrypto.a(v3_enum.o)
                0x00037158                v3_crl_reason
 .rodata        0x00037190      0x12c /usr/local/lib/libcrypto.a(v3_sxnet.o)
                0x00037200                SXNETID_it
                0x00037190                v3_sxnet
                0x00037258                SXNET_it
 .rodata        0x000372bc      0x3d4 /usr/local/lib/libcrypto.a(v3_cpols.o)
                0x000372bc                v3_cpols
                0x00037464                POLICYQUALINFO_it
                0x0003731c                CERTIFICATEPOLICIES_it
                0x00037378                POLICYINFO_it
                0x00037528                NOTICEREF_it
                0x000374bc                USERNOTICE_it
 .rodata        0x00037690      0x1b8 /usr/local/lib/libcrypto.a(v3_crld.o)
                0x00037690                v3_crld
                0x000377c8                DIST_POINT_it
                0x0003781c                CRL_DIST_POINTS_it
                0x00037754                DIST_POINT_NAME_it
 .rodata        0x00037848       0xd8 /usr/local/lib/libcrypto.a(v3_purp.o)
 .rodata        0x00037920      0x14c /usr/local/lib/libcrypto.a(v3_info.o)
                0x00037958                v3_sinfo
                0x00037920                v3_info
                0x00037a20                AUTHORITY_INFO_ACCESS_it
                0x000379cc                ACCESS_DESCRIPTION_it
 .rodata        0x00037a6c      0x1e0 /usr/local/lib/libcrypto.a(v3_ocsp.o)
                0x00037bbc                v3_ocsp_serviceloc
                0x00037b14                v3_crl_hold
                0x00037a6c                v3_ocsp_crlid
                0x00037b4c                v3_ocsp_nonce
                0x00037aa4                v3_ocsp_acutoff
                0x00037b84                v3_ocsp_nocheck
                0x00037adc                v3_crl_invdate
 .rodata        0x00037c4c       0x80 /usr/local/lib/libcrypto.a(v3_akeya.o)
                0x00037ca0                AUTHORITY_KEYID_it
 .rodata        0x00037ccc      0x11c /usr/local/lib/libcrypto.a(v3_pmaps.o)
                0x00037da4                POLICY_MAPPINGS_it
                0x00037d54                POLICY_MAPPING_it
                0x00037ccc                v3_policy_mappings
 .rodata        0x00037de8      0x118 /usr/local/lib/libcrypto.a(v3_pcons.o)
                0x00037de8                v3_policy_constraints
                0x00037e78                POLICY_CONSTRAINTS_it
 .rodata        0x00037f00      0x1c8 /usr/local/lib/libcrypto.a(v3_ncons.o)
                0x00037f00                v3_name_constraints
                0x00038008                NAME_CONSTRAINTS_it
                0x00037f8c                GENERAL_SUBTREE_it
 .rodata        0x000380c8       0xf0 /usr/local/lib/libcrypto.a(v3_pcia.o)
                0x00038180                PROXY_CERT_INFO_EXTENSION_it
                0x00038108                PROXY_POLICY_it
 .rodata        0x000381b8       0xf4 /usr/local/lib/libcrypto.a(v3_pci.o)
                0x000381b8                v3_pci
 .rodata        0x000382ac        0xc /usr/local/lib/libcrypto.a(pcy_cache.o)
 .rodata        0x000382b8        0xc /usr/local/lib/libcrypto.a(pcy_data.o)
 .rodata        0x000382c4        0xc /usr/local/lib/libcrypto.a(pcy_map.o)
 .rodata        0x000382d0        0xc /usr/local/lib/libcrypto.a(pcy_tree.o)
 .rodata        0x000382dc      0x288 /usr/local/lib/libcrypto.a(conf_err.o)
 .rodata        0x00038564       0x94 /usr/local/lib/libcrypto.a(conf_mod.o)
 .rodata        0x000385f8      0x7c0 /usr/local/lib/libcrypto.a(pk7_asn1.o)
                0x0003880c                PKCS7_SIGNED_it
                0x00038b58                PKCS7_ENC_CONTENT_it
                0x00038a24                PKCS7_ENVELOPE_it
                0x00038d88                PKCS7_ATTR_VERIFY_it
                0x00038744                PKCS7_it
                0x00038ad0                PKCS7_RECIP_INFO_it
                0x00038c6c                PKCS7_ENCRYPT_it
                0x00038cf4                PKCS7_DIGEST_it
                0x00038c14                PKCS7_SIGN_ENVELOPE_it
                0x00038d48                PKCS7_ATTR_SIGN_it
                0x00038998                PKCS7_ISSUER_AND_SERIAL_it
                0x00038930                PKCS7_SIGNER_INFO_it
 .rodata        0x00038db8      0x658 /usr/local/lib/libcrypto.a(pkcs7err.o)
 .rodata        0x00039410      0x3f0 /usr/local/lib/libcrypto.a(p12_asn.o)
                0x000397a0                PKCS12_SAFEBAGS_it
                0x000394dc                PKCS12_MAC_DATA_it
                0x000395f8                PKCS12_BAGS_it
                0x00039760                PKCS12_SAFEBAG_it
                0x00039464                PKCS12_it
                0x000397e4                PKCS12_AUTHSAFES_it
 .rodata        0x00039800        0xc /usr/local/lib/libcrypto.a(p12_crpt.o)
 .rodata        0x0003980c        0xc /usr/local/lib/libcrypto.a(p12_key.o)
 .rodata        0x00039818       0x10 /usr/local/lib/libcrypto.a(p12_kiss.o)
 .rodata        0x00039828        0xc /usr/local/lib/libcrypto.a(p12_mutl.o)
 .rodata        0x00039834        0xc /usr/local/lib/libcrypto.a(p12_utl.o)
 .rodata        0x00039840      0x428 /usr/local/lib/libcrypto.a(pk12err.o)
 .rodata        0x00039c68        0xc /usr/local/lib/libcrypto.a(comp_lib.o)
 .rodata        0x00039c74       0x44 /usr/local/lib/libcrypto.a(c_zlib.o)
 .rodata        0x00039cb8      0x844 /usr/local/lib/libcrypto.a(ocsp_asn.o)
                0x00039ef8                OCSP_REQINFO_it
                0x0003a4d0                OCSP_SERVICELOC_it
                0x0003a29c                OCSP_SINGLERESP_it
                0x00039fdc                OCSP_RESPBYTES_it
                0x00039d1c                OCSP_SIGNATURE_it
                0x0003a470                OCSP_CRLID_it
                0x0003a050                OCSP_RESPONSE_it
                0x0003a3f0                OCSP_BASICRESP_it
                0x00039e48                OCSP_ONEREQ_it
                0x0003a134                OCSP_REVOKEDINFO_it
                0x0003a0c0                OCSP_RESPID_it
                0x00039f6c                OCSP_REQUEST_it
                0x0003a1cc                OCSP_CERTSTATUS_it
                0x0003a364                OCSP_RESPDATA_it
                0x00039dd8                OCSP_CERTID_it
 .rodata        0x0003a4fc        0xc /usr/local/lib/libcrypto.a(ocsp_cl.o)
 .rodata        0x0003a508        0xc /usr/local/lib/libcrypto.a(ocsp_srv.o)
 .rodata        0x0003a514      0x374 /usr/local/lib/libcrypto.a(ocsp_prn.o)
 .rodata        0x0003a888       0x1c /usr/local/lib/libcrypto.a(ocsp_vfy.o)
 .rodata        0x0003a8a4      0x414 /usr/local/lib/libcrypto.a(ocsp_err.o)
 .rodata        0x0003acb8      0x184 /usr/local/lib/libcrypto.a(ui_err.o)
 .rodata        0x0003ae3c       0x4c /usr/local/lib/libcrypto.a(ui_lib.o)
 .rodata        0x0003ae88       0x68 /usr/local/lib/libcrypto.a(ui_openssl.o)
 .rodata        0x0003aef0       0xd0 /usr/local/lib/libcrypto.a(cpt_err.o)
 .rodata        0x0003afc0       0x78 /usr/local/lib/libcrypto.a(obj_err.o)
 .rodata        0x0003b038       0x40 /usr/local/lib/libcrypto.a(md2_dgst.o)
                0x0003b038                MD2_version
 .rodata        0x0003b078       0x28 /usr/local/lib/libcrypto.a(sha1dgst.o)
                0x0003b078                SHA1_version
 .rodata        0x0003b0a0      0x2b0 /usr/local/lib/libcrypto.a(sha512.o)
                0x0003b0a0                SHA512_version
 .rodata        0x0003b350     0x2128 /usr/local/lib/libcrypto.a(aes_core.o)
 .rodata        0x0003d478       0x28 /usr/local/lib/libcrypto.a(rc2_ecb.o)
                0x0003d478                RC2_version
 .rodata        0x0003d4a0       0x48 /usr/local/lib/libcrypto.a(rc4_skey.o)
                0x0003d4a0                RC4_version
 .rodata        0x0003d4e8       0x40 /usr/local/lib/libcrypto.a(i_ecb.o)
                0x0003d4e8                IDEA_version
 .rodata        0x0003d528        0xc /usr/local/lib/libcrypto.a(bn_add.o)
 .rodata        0x0003d534        0xc /usr/local/lib/libcrypto.a(bn_exp.o)
 .rodata        0x0003d540        0xc /usr/local/lib/libcrypto.a(bn_mod.o)
 *fill*         0x0003d54c        0x4
 .rodata        0x0003d550       0x18 /usr/local/lib/libcrypto.a(bn_rand.o)
 .rodata        0x0003d568        0xc /usr/local/lib/libcrypto.a(bn_blind.o)
 .rodata        0x0003d574        0xc /usr/local/lib/libcrypto.a(bn_gcd.o)
 .rodata        0x0003d580     0x1000 /usr/local/lib/libcrypto.a(bn_prime.o)
 .rodata        0x0003e580      0x3d8 /usr/local/lib/libcrypto.a(bn_err.o)
 .rodata        0x0003e958        0xc /usr/local/lib/libcrypto.a(bn_recp.o)
 .rodata        0x0003e964        0xc /usr/local/lib/libcrypto.a(bn_mont.o)
 .rodata        0x0003e970      0xe38 /usr/local/lib/libcrypto.a(ec_err.o)
 .rodata        0x0003f7a8       0x20 /usr/local/lib/libcrypto.a(ec_print.o)
 .rodata        0x0003f7c8      0x50c /usr/local/lib/libcrypto.a(ec_asn1.o)
                0x0003f954                X9_62_CHARACTERISTIC_TWO_it
                0x0003fa90                X9_62_CURVE_it
                0x0003fc08                ECPKPARAMETERS_it
                0x0003f81c                X9_62_PENTANOMIAL_it
                0x0003fa28                X9_62_FIELDID_it
                0x0003fb64                ECPARAMETERS_it
                0x0003fca8                EC_PRIVATEKEY_it
 .rodata        0x0003fcd4       0xb0 /usr/local/lib/libcrypto.a(ec2_smpl.o)
 .rodata        0x0003fd84        0xc /usr/local/lib/libcrypto.a(ec2_mult.o)
 .rodata        0x0003fd90       0x24 /usr/local/lib/libcrypto.a(rsa_eay.o)
 .rodata        0x0003fdb4      0x7a4 /usr/local/lib/libcrypto.a(rsa_err.o)
 .rodata        0x00040558        0xc /usr/local/lib/libcrypto.a(rsa_pk1.o)
 .rodata        0x00040564        0xc /usr/local/lib/libcrypto.a(rsa_ssl.o)
 .rodata        0x00040570        0xc /usr/local/lib/libcrypto.a(rsa_none.o)
 .rodata        0x0004057c        0xc /usr/local/lib/libcrypto.a(rsa_oaep.o)
 .rodata        0x00040588        0xc /usr/local/lib/libcrypto.a(rsa_x931.o)
 .rodata        0x00040594       0x34 /usr/local/lib/libcrypto.a(dsa_lib.o)
                0x00040594                DSA_version
 .rodata        0x000405c8      0x1c4 /usr/local/lib/libcrypto.a(dsa_err.o)
 .rodata        0x0004078c       0x20 /usr/local/lib/libcrypto.a(dsa_ossl.o)
 .rodata        0x000407ac       0x38 /usr/local/lib/libcrypto.a(ecs_lib.o)
                0x000407ac                ECDSA_version
 .rodata        0x000407e4       0x58 /usr/local/lib/libcrypto.a(ecs_asn1.o)
                0x00040814                ECDSA_SIG_it
 .rodata        0x0004083c       0x24 /usr/local/lib/libcrypto.a(ecs_ossl.o)
 .rodata        0x00040860       0xe8 /usr/local/lib/libcrypto.a(ecs_err.o)
 .rodata        0x00040948      0x114 /usr/local/lib/libcrypto.a(dh_err.o)
 .rodata        0x00040a5c       0x34 /usr/local/lib/libcrypto.a(ech_lib.o)
                0x00040a5c                ECDH_version
 .rodata        0x00040a90       0x20 /usr/local/lib/libcrypto.a(ech_ossl.o)
 .rodata        0x00040ab0       0x68 /usr/local/lib/libcrypto.a(ech_err.o)
 .rodata        0x00040b18      0x408 /usr/local/lib/libcrypto.a(dso_err.o)
 .rodata        0x00040f20        0xc /usr/local/lib/libcrypto.a(dso_lib.o)
 .rodata        0x00040f2c      0x5f8 /usr/local/lib/libcrypto.a(eng_err.o)
 .rodata        0x00041524        0xc /usr/local/lib/libcrypto.a(eng_table.o)
 .rodata        0x00041530       0x88 /usr/local/lib/libcrypto.a(eng_cnf.o)
 .rodata        0x000415b8       0x54 /usr/local/lib/libcrypto.a(buf_err.o)
 .rodata        0x0004160c      0x408 /usr/local/lib/libcrypto.a(bio_err.o)
 .rodata        0x00041a14       0x38 /usr/local/lib/libcrypto.a(b_dump.o)
 *fill*         0x00041a4c        0x4
 .rodata        0x00041a50      0x108 /usr/local/lib/libcrypto.a(md_rand.o)
                0x00041a50                RAND_version
 .rodata        0x00041b58      0x190 /usr/local/lib/libcrypto.a(rand_err.o)
 .rodata        0x00041ce8       0x20 /usr/local/lib/libcrypto.a(rand_unix.o)
 .rodata        0x00041d08       0x38 /usr/local/lib/libcrypto.a(evp_cnf.o)
 .rodata        0x00041d40       0xd0 /usr/local/lib/libcrypto.a(e_bf.o)
 .rodata        0x00041e10       0x34 /usr/local/lib/libcrypto.a(e_xcbc_d.o)
 .rodata        0x00041e44       0xd0 /usr/local/lib/libcrypto.a(e_cast.o)
 .rodata        0x00041f14       0x48 /usr/local/lib/libcrypto.a(m_md4.o)
 .rodata        0x00041f5c       0x48 /usr/local/lib/libcrypto.a(m_sha.o)
 .rodata        0x00041fa4       0x48 /usr/local/lib/libcrypto.a(m_dss.o)
 .rodata        0x00041fec       0x48 /usr/local/lib/libcrypto.a(m_ripemd.o)
 *fill*         0x00042034        0x4
 .rodata        0x00042038       0x28 /usr/local/lib/libcrypto.a(evp_pkey.o)
 .rodata        0x00042060        0xc /usr/local/lib/libcrypto.a(a_bitstr.o)
 .rodata        0x0004206c       0x28 /usr/local/lib/libcrypto.a(a_utctm.o)
 .rodata        0x00042094       0x28 /usr/local/lib/libcrypto.a(a_gentm.o)
 .rodata        0x000420bc       0x3c /usr/local/lib/libcrypto.a(a_time.o)
                0x000420bc                ASN1_TIME_it
 .rodata        0x000420f8        0x8 /usr/local/lib/libcrypto.a(a_set.o)
 .rodata        0x00042100        0xc /usr/local/lib/libcrypto.a(a_d2i_fp.o)
 .rodata        0x0004210c        0xc /usr/local/lib/libcrypto.a(a_i2d_fp.o)
 .rodata        0x00042118        0xc /usr/local/lib/libcrypto.a(a_enum.o)
 .rodata        0x00042124        0xc /usr/local/lib/libcrypto.a(a_sign.o)
 .rodata        0x00042130        0xc /usr/local/lib/libcrypto.a(a_digest.o)
 .rodata        0x0004213c        0xc /usr/local/lib/libcrypto.a(a_verify.o)
 .rodata        0x00042148       0x34 /usr/local/lib/libcrypto.a(a_mbstr.o)
 .rodata        0x0004217c       0xb0 /usr/local/lib/libcrypto.a(x_algor.o)
                0x00042204                X509_ALGORS_it
                0x000421bc                X509_ALGOR_it
 .rodata        0x0004222c       0x68 /usr/local/lib/libcrypto.a(x_val.o)
                0x0004226c                X509_VAL_it
 .rodata        0x00042294      0x154 /usr/local/lib/libcrypto.a(x_req.o)
                0x000423c0                X509_REQ_it
                0x00042320                X509_REQ_INFO_it
 .rodata        0x000423e8      0x230 /usr/local/lib/libcrypto.a(x_crl.o)
                0x00042450                X509_REVOKED_it
                0x00042558                X509_CRL_INFO_it
                0x000425e8                X509_CRL_it
 .rodata        0x00042618        0xc /usr/local/lib/libcrypto.a(x_info.o)
 .rodata        0x00042624       0xf0 /usr/local/lib/libcrypto.a(x_spki.o)
                0x000426e8                NETSCAPE_SPKI_it
                0x00042660                NETSCAPE_SPKAC_it
 .rodata        0x00042714       0x84 /usr/local/lib/libcrypto.a(nsseq.o)
                0x00042764                NETSCAPE_CERT_SEQUENCE_it
 .rodata        0x00042798        0xc /usr/local/lib/libcrypto.a(i2d_pr.o)
 .rodata        0x000427a4       0x28 /usr/local/lib/libcrypto.a(f_int.o)
 .rodata        0x000427cc       0x28 /usr/local/lib/libcrypto.a(f_string.o)
 .rodata        0x000427f4        0xc /usr/local/lib/libcrypto.a(x_pkey.o)
 .rodata        0x00042800        0xc /usr/local/lib/libcrypto.a(a_bool.o)
 .rodata        0x0004280c      0x1e4 /usr/local/lib/libcrypto.a(asn1_gen.o)
 .rodata        0x000429f0        0xc /usr/local/lib/libcrypto.a(a_bytes.o)
 .rodata        0x000429fc       0x38 /usr/local/lib/libcrypto.a(a_strnid.o)
 .rodata        0x00042a34        0xc /usr/local/lib/libcrypto.a(asn_pack.o)
 .rodata        0x00042a40       0xbc /usr/local/lib/libcrypto.a(p8_pkey.o)
                0x00042acc                PKCS8_PRIV_KEY_INFO_it
 .rodata        0x00042afc       0x18 /usr/local/lib/libcrypto.a(asn_moid.o)
 .rodata        0x00042b14       0xb0 /usr/local/lib/libcrypto.a(pem_info.o)
 *fill*         0x00042bc4        0x4
 .rodata        0x00042bc8      0x260 /usr/local/lib/libcrypto.a(pem_lib.o)
                0x00042bc8                PEM_version
 .rodata        0x00042e28       0x28 /usr/local/lib/libcrypto.a(pem_xaux.o)
 .rodata        0x00042e50       0x6c /usr/local/lib/libcrypto.a(x509_def.o)
 .rodata        0x00042ebc        0xc /usr/local/lib/libcrypto.a(x509_req.o)
 .rodata        0x00042ec8       0x14 /usr/local/lib/libcrypto.a(x509_att.o)
 .rodata        0x00042edc       0xc8 /usr/local/lib/libcrypto.a(v3_bcons.o)
                0x00042f48                BASIC_CONSTRAINTS_it
                0x00042edc                v3_bcons
 .rodata        0x00042fa4      0x264 /usr/local/lib/libcrypto.a(v3_bitst.o)
                0x000431a8                v3_key_usage
                0x00043170                v3_nscert
 .rodata        0x00043208       0x50 /usr/local/lib/libcrypto.a(v3_conf.o)
 .rodata        0x00043258       0xdc /usr/local/lib/libcrypto.a(v3_extku.o)
                0x00043290                v3_ocsp_accresp
                0x00043258                v3_ext_ku
                0x000432f0                EXTENDED_KEY_USAGE_it
 .rodata        0x00043334      0x1cc /usr/local/lib/libcrypto.a(v3_ia5.o)
                0x00043334                v3_ns_ia5_list
 .rodata        0x00043500        0xc /usr/local/lib/libcrypto.a(pcy_node.o)
 .rodata        0x0004350c       0x48 /usr/local/lib/libcrypto.a(conf_lib.o)
                0x0004350c                CONF_version
 .rodata        0x00043554       0x18 /usr/local/lib/libcrypto.a(conf_api.o)
 .rodata        0x0004356c       0x7c /usr/local/lib/libcrypto.a(conf_def.o)
                0x0004356c                CONF_def_version
 .rodata        0x000435e8        0xc /usr/local/lib/libcrypto.a(p12_add.o)
 .rodata        0x000435f4        0xc /usr/local/lib/libcrypto.a(p12_decr.o)
 .rodata        0x00043600        0xc /usr/local/lib/libcrypto.a(p12_p8e.o)
 .rodata        0x0004360c       0x28 /usr/local/lib/libcrypto.a(ocsp_lib.o)
 .rodata        0x00043634       0x28 /usr/local/lib/libcrypto.a(sha_dgst.o)
                0x00043634                SHA_version
 .rodata        0x0004365c       0x30 /usr/local/lib/libcrypto.a(rmd_dgst.o)
                0x0004365c                RMD160_version
 .rodata        0x0004368c     0x1048 /usr/local/lib/libcrypto.a(bf_skey.o)
 .rodata        0x000446d4       0x3c /usr/local/lib/libcrypto.a(bf_ecb.o)
                0x000446d4                BF_version
 .rodata        0x00044710     0x2000 /usr/local/lib/libcrypto.a(c_skey.o)
                0x00044710                CAST_S_table0
                0x00046310                CAST_S_table7
                0x00045710                CAST_S_table4
                0x00045b10                CAST_S_table5
                0x00044f10                CAST_S_table2
                0x00045310                CAST_S_table3
                0x00045f10                CAST_S_table6
                0x00044b10                CAST_S_table1
 .rodata        0x00046710       0x28 /usr/local/lib/libcrypto.a(c_ecb.o)
                0x00046710                CAST_version
 .rodata        0x00046738        0xc /usr/local/lib/libcrypto.a(bn_div.o)
 .rodata        0x00046744        0xc /usr/local/lib/libcrypto.a(bn_exp2.o)
 .rodata        0x00046750       0x4c /usr/local/lib/libcrypto.a(bn_gf2m.o)
 .rodata        0x0004679c       0xa4 /usr/local/lib/libcrypto.a(ecp_mont.o)
 .rodata        0x00046840       0xa4 /usr/local/lib/libcrypto.a(ecp_nist.o)
 .rodata        0x000468e4       0x1c /usr/local/lib/libcrypto.a(dso_null.o)
 .rodata        0x00046900       0x58 /usr/local/lib/libcrypto.a(encode.o)
 .rodata        0x00046958       0x44 /usr/local/lib/libcrypto.a(evp_key.o)
 .rodata        0x0004699c        0xc /usr/local/lib/libcrypto.a(pk7_lib.o)
 .rodata        0x000469a8      0x4a8 /usr/local/lib/libcrypto.a(bn_nist.o)
 .rodata        0x00046e50       0xa4 /usr/local/lib/libcrypto.a(ecp_smpl.o)
 .rodata        0x00046ef4       0x20 /usr/local/lib/libcrypto.a(bn_kron.o)
 .rodata        0x00046f14        0xc /usr/local/lib/libcrypto.a(bn_sqrt.o)
 .rodata        0x00046f20       0xb0 /usr/local/lib/libz.a(deflate.o)
                0x00046f20                deflate_copyright
 .rodata        0x00046fd0      0xa30 /usr/local/lib/libz.a(trees.o)
                0x00047814                _length_code
                0x00047614                _dist_code
 .rodata        0x00047a00       0xb4 /usr/local/lib/libz.a(zutil.o)
                0x00047a00                z_errmsg
 .rodata        0x00047ab4      0xa68 /usr/local/lib/libz.a(inflate.o)
 .rodata        0x0004851c      0x12c /usr/local/lib/libz.a(inftrees.o)
                0x0004851c                inflate_copyright
 .rodata        0x00048648       0x54 /usr/local/lib/libz.a(inffast.o)
 .rodata        0x0004869c        0x8 /usr/local/lib/libz.a(compress.o)
 .rodata        0x000486a4     0x2000 /usr/local/lib/libz.a(crc32.o)
 .rodata        0x0004a6a4      0x100 /gg/lib/gcc-lib/ppc-morphos/2.95.3/libnix/libgcc.a(_divdi3.o)
 *fill*         0x0004a7a4        0x4
 .rodata        0x0004a7a8        0x8 /gg/lib/gcc-lib/ppc-morphos/2.95.3/libnix/libgcc.a(_fixdfdi.o)
 .rodata        0x0004a7b0       0x18 /gg/lib/gcc-lib/ppc-morphos/2.95.3/libnix/libgcc.a(_fixunsdfdi.o)
 .rodata        0x0004a7c8       0x18 /gg/lib/gcc-lib/ppc-morphos/2.95.3/libnix/libgcc.a(_floatdidf.o)
 .rodata        0x0004a7e0      0x100 /gg/lib/gcc-lib/ppc-morphos/2.95.3/libnix/libgcc.a(_udivdi3.o)
 .rodata        0x0004a8e0      0x100 /gg/lib/gcc-lib/ppc-morphos/2.95.3/libnix/libgcc.a(_umoddi3.o)
 .rodata        0x0004a9e0       0x14 /gg/ppc-morphos/lib/libnix/libc.a(open.o)
 .rodata        0x0004a9f4      0x104 /gg/ppc-morphos/lib/libnix/libc.a(_ctype_.o)
                0x0004a9f4                __ctype
 .rodata        0x0004aaf8      0x910 /gg/ppc-morphos/lib/libnix/libc.a(strerror.o)
                0x0004aaf8                __sys_errlist
 .rodata        0x0004b408        0x8 /gg/ppc-morphos/lib/libnix/libc.a(strtod.o)
 .rodata        0x0004b410       0x14 /gg/ppc-morphos/lib/libnix/libc.a(abort.o)
 .rodata        0x0004b424       0x10 /gg/ppc-morphos/lib/libnix/libc.a(gettimeofday.o)
 *fill*         0x0004b434        0x4
 .rodata        0x0004b438      0x160 /gg/ppc-morphos/lib/libnix/libc.a(printfshared.o)
 .rodata        0x0004b598        0xc /gg/ppc-morphos/lib/libnix/libc.a(raise.o)
 .rodata        0x0004b5a4        0x4 /gg/ppc-morphos/lib/libnix/libc.a(__decimalpoint.o)
 .rodata        0x0004b5a8       0x48 /gg/ppc-morphos/lib/libnix/libc.a(scanfshared.o)
 .rodata        0x0004b5f0       0x14 /gg/ppc-morphos/lib/libnix/libauto.a(SocketBase.o)
 .rodata        0x0004b604       0x14 /gg/ppc-morphos/lib/libnix/libauto.a(UserGroupBase.o)
 .rodata        0x0004b618       0x60 /gg/ppc-morphos/lib/libnix/libauto.a(__openliberror.o)
 *(.rodata.*)
 *(.gnu.linkonce.r*)

.ctdt           0x00000000       0x70
 .ctdt          0x00000000        0x8 /gg/ppc-morphos/lib/libnix/crt0.o
 .ctdt          0x00000008       0x10 /gg/ppc-morphos/lib/libnix/libc.a(__nocommandline.o)
                0x00000008                _nocommandline
                0x00000010                _DSTP___exitcommandline
 .ctdt          0x00000018        0x8 /gg/ppc-morphos/lib/libnix/libc.a(__stdio.o)
                0x00000018                _CSTP___initstdfio
 .ctdt          0x00000020        0x8 /gg/ppc-morphos/lib/libnix/libc.a(fopen.o)
                0x00000020                _DSTP___exitstdfio
 .ctdt          0x00000028        0x8 /gg/ppc-morphos/lib/libnix/libc.a(malloc.o)
                0x00000028                _DSTP___exitmalloc
 .ctdt          0x00000030       0x10 /gg/ppc-morphos/lib/libnix/libc.a(open.o)
                0x00000038                _DSTP___exitstdio
                0x00000030                _CSTP___initstdio
 .ctdt          0x00000040        0x8 /gg/ppc-morphos/lib/libnix/libc.a(semaphore.o)
                0x00000040                _CSTP___init_semaphore
 .ctdt          0x00000048        0x8 /gg/ppc-morphos/lib/libnix/libc.a(destructors.o)
                0x00000048                _DSTP___exitdestr
 .ctdt          0x00000050       0x10 /gg/ppc-morphos/lib/libnix/libauto.a(SocketBase.o)
                0x00000050                _CSTP_init_SocketBase
                0x00000058                _DSTP_cleanup_SocketBase
 .ctdt          0x00000060       0x10 /gg/ppc-morphos/lib/libnix/libauto.a(UserGroupBase.o)
                0x00000068                _DSTP_cleanup_UserGroupBase
                0x00000060                _CSTP_init_UserGroupBase

.rodata1
 *(.rodata1)
 *(.rodata1.*)
                0x00000070                _etext=.
                0x00000070                PROVIDE (etext, .)

.sdata2         0x00000000        0x0
 *(.sdata2)
 *(.sdata2.*)

.sbss2
 *(.sbss2)
 *(.sbss2.*)
                0x00010000                .=(ALIGN(0x8)+0x10000)

.data           0x00000000     0xf398
                0x00000000                PROVIDE (__data_start, .)
 *(.data)
 .data          0x00000000       0x38 ../lib/.libs/libcurl.a(libcurl_la-version.o)
 .data          0x00000038       0xdc /usr/local/lib/libssl.a(s3_clnt.o)
 .data          0x00000114      0xaf8 /usr/local/lib/libssl.a(s3_lib.o)
                0x00000b64                SSLv3_enc_data
                0x00000114                ssl3_ciphers
 .data          0x00000c0c       0x6c /usr/local/lib/libssl.a(s3_enc.o)
 .data          0x00000c78       0x74 /usr/local/lib/libssl.a(s23_clnt.o)
 .data          0x00000cec       0x74 /usr/local/lib/libssl.a(s23_lib.o)
 .data          0x00000d60       0x74 /usr/local/lib/libssl.a(t1_clnt.o)
 .data          0x00000dd4       0xa8 /usr/local/lib/libssl.a(t1_lib.o)
                0x00000dd4                TLSv1_enc_data
 .data          0x00000e7c       0x34 /usr/local/lib/libssl.a(ssl_lib.o)
                0x00000e7c                ssl3_undef_enc_method
 .data          0x00000eb0       0x30 /usr/local/lib/libssl.a(ssl_ciph.o)
 .data          0x00000ee0       0x28 /usr/local/lib/libssl.a(bio_ssl.o)
 .data          0x00000f08      0xd58 /usr/local/lib/libssl.a(ssl_err.o)
 .data          0x00001c60       0x74 /usr/local/lib/libssl.a(s2_clnt.o)
 .data          0x00001cd4      0x18c /usr/local/lib/libssl.a(s2_lib.o)
                0x00001cd4                ssl2_ciphers
 .data          0x00001e60       0x18 /usr/local/lib/libcrypto.a(ex_data.o)
 .data          0x00001e78     0x8e1c /usr/local/lib/libcrypto.a(obj_dat.o)
 .data          0x0000ac94       0x40 /usr/local/lib/libcrypto.a(set_key.o)
 .data          0x0000acd4       0x14 /usr/local/lib/libcrypto.a(bn_lib.o)
 .data          0x0000ace8       0x10 /usr/local/lib/libcrypto.a(rsa_asn1.o)
 .data          0x0000acf8       0x24 /usr/local/lib/libcrypto.a(dh_key.o)
 .data          0x0000ad1c       0x28 /usr/local/lib/libcrypto.a(bss_mem.o)
 .data          0x0000ad44       0x28 /usr/local/lib/libcrypto.a(bss_file.o)
 .data          0x0000ad6c       0x28 /usr/local/lib/libcrypto.a(bss_sock.o)
 .data          0x0000ad94       0x28 /usr/local/lib/libcrypto.a(bss_conn.o)
 .data          0x0000adbc       0x28 /usr/local/lib/libcrypto.a(bf_buff.o)
 .data          0x0000ade4      0x258 /usr/local/lib/libcrypto.a(err_str.o)
 .data          0x0000b03c      0x308 /usr/local/lib/libcrypto.a(evp_err.o)
 .data          0x0000b344       0x80 /usr/local/lib/libcrypto.a(a_strex.o)
 .data          0x0000b3c4       0x1c /usr/local/lib/libcrypto.a(x_bignum.o)
 .data          0x0000b3e0       0x1c /usr/local/lib/libcrypto.a(x_long.o)
 .data          0x0000b3fc       0x10 /usr/local/lib/libcrypto.a(x_x509.o)
 .data          0x0000b40c       0x30 /usr/local/lib/libcrypto.a(t_x509.o)
 .data          0x0000b43c       0x7c /usr/local/lib/libcrypto.a(asn1_par.o)
 .data          0x0000b4b8      0x700 /usr/local/lib/libcrypto.a(asn1_err.o)
 .data          0x0000bbb8      0x160 /usr/local/lib/libcrypto.a(pem_err.o)
 .data          0x0000bd18       0x14 /usr/local/lib/libcrypto.a(x509_obj.o)
 .data          0x0000bd2c      0x230 /usr/local/lib/libcrypto.a(x509_err.o)
 .data          0x0000bf5c       0xa8 /usr/local/lib/libcrypto.a(x509_trs.o)
 .data          0x0000c004       0x28 /usr/local/lib/libcrypto.a(by_file.o)
                0x0000c004                x509_file_lookup
 .data          0x0000c02c       0x28 /usr/local/lib/libcrypto.a(by_dir.o)
                0x0000c02c                x509_dir_lookup
 .data          0x0000c054       0x94 /usr/local/lib/libcrypto.a(v3_lib.o)
 .data          0x0000c0e8      0x400 /usr/local/lib/libcrypto.a(v3err.o)
 .data          0x0000c4e8       0x6c /usr/local/lib/libcrypto.a(v3_enum.o)
 .data          0x0000c554      0x104 /usr/local/lib/libcrypto.a(v3_purp.o)
 .data          0x0000c658      0x130 /usr/local/lib/libcrypto.a(conf_err.o)
 .data          0x0000c788      0x260 /usr/local/lib/libcrypto.a(pkcs7err.o)
 .data          0x0000c9e8      0x1a8 /usr/local/lib/libcrypto.a(pk12err.o)
 .data          0x0000cb90       0x68 /usr/local/lib/libcrypto.a(c_zlib.o)
 .data          0x0000cbf8       0x88 /usr/local/lib/libcrypto.a(ocsp_prn.o)
 .data          0x0000cc80      0x190 /usr/local/lib/libcrypto.a(ocsp_err.o)
 .data          0x0000ce10       0xa8 /usr/local/lib/libcrypto.a(ui_err.o)
 .data          0x0000ceb8       0x1c /usr/local/lib/libcrypto.a(ui_openssl.o)
 .data          0x0000ced4       0x60 /usr/local/lib/libcrypto.a(cpt_err.o)
 .data          0x0000cf34       0x58 /usr/local/lib/libcrypto.a(obj_err.o)
 .data          0x0000cf8c      0x400 /usr/local/lib/libcrypto.a(md2_dgst.o)
 .data          0x0000d38c      0x100 /usr/local/lib/libcrypto.a(rc2_skey.o)
 .data          0x0000d48c      0x1d8 /usr/local/lib/libcrypto.a(bn_err.o)
 .data          0x0000d664      0x4a0 /usr/local/lib/libcrypto.a(ec_err.o)
 .data          0x0000db04       0x38 /usr/local/lib/libcrypto.a(rsa_eay.o)
 .data          0x0000db3c      0x2c0 /usr/local/lib/libcrypto.a(rsa_err.o)
 .data          0x0000ddfc       0xe0 /usr/local/lib/libcrypto.a(dsa_err.o)
 .data          0x0000dedc       0x30 /usr/local/lib/libcrypto.a(dsa_ossl.o)
 .data          0x0000df0c       0x18 /usr/local/lib/libcrypto.a(ecs_ossl.o)
 .data          0x0000df24       0x68 /usr/local/lib/libcrypto.a(ecs_err.o)
 .data          0x0000df8c       0x88 /usr/local/lib/libcrypto.a(dh_err.o)
 .data          0x0000e014       0x10 /usr/local/lib/libcrypto.a(ech_ossl.o)
 .data          0x0000e024       0x38 /usr/local/lib/libcrypto.a(ech_err.o)
 .data          0x0000e05c      0x1c0 /usr/local/lib/libcrypto.a(dso_err.o)
 .data          0x0000e21c      0x270 /usr/local/lib/libcrypto.a(eng_err.o)
 .data          0x0000e48c       0x40 /usr/local/lib/libcrypto.a(buf_err.o)
 .data          0x0000e4cc      0x1f8 /usr/local/lib/libcrypto.a(bio_err.o)
 .data          0x0000e6c4       0x18 /usr/local/lib/libcrypto.a(md_rand.o)
                0x0000e6c4                rand_ssleay_meth
 .data          0x0000e6dc       0xb8 /usr/local/lib/libcrypto.a(rand_err.o)
 .data          0x0000e794       0x40 /usr/local/lib/libcrypto.a(a_utctm.o)
 .data          0x0000e7d4       0x48 /usr/local/lib/libcrypto.a(a_gentm.o)
 .data          0x0000e81c      0x234 /usr/local/lib/libcrypto.a(asn1_gen.o)
 .data          0x0000ea50      0x17c /usr/local/lib/libcrypto.a(a_strnid.o)
 .data          0x0000ebcc        0xc /usr/local/lib/libcrypto.a(x509_req.o)
 .data          0x0000ebd8       0xe4 /usr/local/lib/libcrypto.a(v3_bitst.o)
 .data          0x0000ecbc       0x20 /usr/local/lib/libcrypto.a(v3_conf.o)
 .data          0x0000ecdc      0x450 /usr/local/lib/libcrypto.a(conf_def.o)
 .data          0x0000f12c       0x28 /usr/local/lib/libcrypto.a(dso_null.o)
 .data          0x0000f154       0xc4 /usr/local/lib/libcrypto.a(encode.o)
 .data          0x0000f218       0x3c /usr/local/lib/libz.a(trees.o)
 .data          0x0000f254        0xc /gg/ppc-morphos/lib/libnix/libc.a(fopen.o)
                0x0000f254                __filelist
 .data          0x0000f260       0xcc /gg/ppc-morphos/lib/libnix/libc.a(__seterrno.o)
 .data          0x0000f32c       0x18 /gg/ppc-morphos/lib/libnix/libc.a(__signalfunc.o)
                0x0000f32c                __signalfunc
 .data          0x0000f344        0xc /gg/ppc-morphos/lib/libnix/libc.a(gmtime.o)
 .data          0x0000f350       0x14 /gg/ppc-morphos/lib/libnix/libc.a(__stdv37.o)
                0x0000f350                __stdiov37
 .data          0x0000f364       0x14 /gg/ppc-morphos/lib/libnix/libc.a(__stdwin.o)
                0x0000f364                __stdiowin
 .data          0x0000f378        0xc /gg/ppc-morphos/lib/libnix/libc.a(destructors.o)
 .data          0x0000f384       0x14 /gg/ppc-morphos/lib/libnix/libc.a(__localevec.o)
                0x0000f384                __localevec
 *(.data.*)
 *(.gnu.linkonce.d*)
                0x0000f398                PROVIDE (__data_end, .)
                0x0000f398                PROVIDE (__data_size, SIZEOF(.data))

.data1
 *(.data1)
 *(.data1.*)

.got1
 *(.got1)

.dynamic
 *(.dynamic)
                0x0000f398                PROVIDE (_GOT2_START_, .)

.got2
 *(.got2)
                0x0000f398                PROVIDE (__CTOR_LIST__, .)

.ctors          0x00000000        0x4
 *(.ctors)
 .ctors         0x00000000        0x4 /gg/ppc-morphos/lib/libnix/crt0.o
                0x00000004                PROVIDE (__CTOR_END__, .)
                0x00000004                PROVIDE (__DTOR_LIST__, .)

.dtors          0x00000000        0x4
 *(.dtors)
 .dtors         0x00000000        0x4 /gg/ppc-morphos/lib/libnix/crt0.o
                0x00000004                PROVIDE (__DTOR_END__, .)
                0x00000004                PROVIDE (_FIXUP_START_, .)

.fixup
 *(.fixup)
                0x00000004                PROVIDE (_FIXUP_END_, .)
                0x00000004                PROVIDE (_GOT2_END_, .)
                0x00000004                PROVIDE (_GOT_START_, .)

.got            0x00000000       0x10
 *(.got)
 .got           0x00000000       0x10 /gg/ppc-morphos/lib/libnix/crt0.o
                0x00000004                _GLOBAL_OFFSET_TABLE_

.got.plt
 *(.got.plt)
                0x00000010                PROVIDE (_GOT_END_, .)

.sdata          0x00000000      0x2d8
                0x00000000                PROVIDE (__sdata_start, .)
 *(.sdata)
 .sdata         0x00000000       0x14 /gg/ppc-morphos/lib/libnix/crt0.o
                0x00000008                __abox__
                0x00000000                _ProgramName
                0x0000000c                __amigappc__
                0x00000004                libnix_mempool
                0x00000010                __stack
 .sdata         0x00000014        0x8 tool_cb_dbg.o
 .sdata         0x0000001c       0x1c tool_easysrc.o
                0x0000001c                easysrc_decl
                0x00000028                easysrc_toohard
                0x0000002c                easysrc_clean
                0x00000020                easysrc_data
                0x00000034                easysrc_slist_count
                0x00000030                easysrc_form_count
                0x00000024                easysrc_code
 .sdata         0x00000038        0x8 tool_libinfo.o
                0x0000003c                built_in_protos
                0x00000038                curlinfo
 .sdata         0x00000040       0x10 ../lib/.libs/libcurl.a(libcurl_la-mprintf.o)
 .sdata         0x00000050       0x14 ../lib/.libs/libcurl.a(libcurl_la-easy.o)
                0x00000058                Curl_crealloc
                0x00000050                Curl_cmalloc
                0x00000060                Curl_ccalloc
                0x0000005c                Curl_cstrdup
                0x00000054                Curl_cfree
 .sdata         0x00000064        0x8 ../lib/.libs/libcurl.a(libcurl_la-connect.o)
 .sdata         0x0000006c       0x10 ../lib/.libs/libcurl.a(libcurl_la-multi.o)
 .sdata         0x0000007c        0x4 ../lib/.libs/libcurl.a(libcurl_la-select.o)
                0x0000007c                Curl_ack_eintr
 .sdata         0x00000080       0x10 ../lib/.libs/libcurl.a(libcurl_la-splay.o)
 .sdata         0x00000090        0x4 ../lib/.libs/libcurl.a(libcurl_la-rand.o)
 .sdata         0x00000094        0x4 ../lib/.libs/libcurl.a(libcurl_la-vtls.o)
 .sdata         0x00000098        0x4 ../lib/.libs/libcurl.a(libcurl_la-openssl.o)
 .sdata         0x0000009c        0x2 ../lib/.libs/libcurl.a(libcurl_la-hmac.o)
 *fill*         0x0000009e        0x2
 .sdata         0x000000a0        0x4 /usr/local/lib/libssl.a(t1_enc.o)
 .sdata         0x000000a4        0x4 /usr/local/lib/libssl.a(ssl_lib.o)
                0x000000a4                SSL_version_str
 .sdata         0x000000a8        0x4 /usr/local/lib/libssl.a(ssl_cert.o)
 .sdata         0x000000ac       0x10 /usr/local/lib/libssl.a(ssl_ciph.o)
 .sdata         0x000000bc       0x10 /usr/local/lib/libcrypto.a(cryptlib.o)
                0x000000c8                OPENSSL_NONPIC_relocated
 .sdata         0x000000cc       0x48 /usr/local/lib/libcrypto.a(mem.o)
 .sdata         0x00000114        0x1 /usr/local/lib/libcrypto.a(mem_clr.o)
                0x00000114                cleanse_ctr
 *fill*         0x00000115        0x3
 .sdata         0x00000118       0x20 /usr/local/lib/libcrypto.a(mem_dbg.o)
 .sdata         0x00000138        0xc /usr/local/lib/libcrypto.a(ex_data.o)
 .sdata         0x00000144        0x8 /usr/local/lib/libcrypto.a(o_names.o)
 .sdata         0x0000014c        0x8 /usr/local/lib/libcrypto.a(obj_dat.o)
 .sdata         0x00000154       0x24 /usr/local/lib/libcrypto.a(bn_lib.o)
 .sdata         0x00000178        0x4 /usr/local/lib/libcrypto.a(ec_curve.o)
 .sdata         0x0000017c        0x4 /usr/local/lib/libcrypto.a(rsa_eng.o)
 .sdata         0x00000180        0x4 /usr/local/lib/libcrypto.a(dh_lib.o)
 .sdata         0x00000184        0x8 /usr/local/lib/libcrypto.a(eng_lib.o)
 .sdata         0x0000018c        0x8 /usr/local/lib/libcrypto.a(eng_list.o)
 .sdata         0x00000194        0x4 /usr/local/lib/libcrypto.a(eng_ctrl.o)
 .sdata         0x00000198        0x8 /usr/local/lib/libcrypto.a(tb_rsa.o)
 .sdata         0x000001a0        0x8 /usr/local/lib/libcrypto.a(tb_dsa.o)
 .sdata         0x000001a8        0x8 /usr/local/lib/libcrypto.a(tb_ecdsa.o)
 .sdata         0x000001b0        0x8 /usr/local/lib/libcrypto.a(tb_dh.o)
 .sdata         0x000001b8        0x8 /usr/local/lib/libcrypto.a(tb_ecdh.o)
 .sdata         0x000001c0        0x8 /usr/local/lib/libcrypto.a(tb_rand.o)
 .sdata         0x000001c8        0x4 /usr/local/lib/libcrypto.a(tb_cipher.o)
 .sdata         0x000001cc        0x4 /usr/local/lib/libcrypto.a(tb_digest.o)
 .sdata         0x000001d0        0x8 /usr/local/lib/libcrypto.a(rand_lib.o)
 .sdata         0x000001d8       0x14 /usr/local/lib/libcrypto.a(err_def.o)
 .sdata         0x000001ec        0x4 /usr/local/lib/libcrypto.a(err_str.o)
 .sdata         0x000001f0        0xc /usr/local/lib/libcrypto.a(t_pkey.o)
 .sdata         0x000001fc        0x8 /usr/local/lib/libcrypto.a(asn1_par.o)
 .sdata         0x00000204        0x8 /usr/local/lib/libcrypto.a(x509_trs.o)
 .sdata         0x0000020c        0x4 /usr/local/lib/libcrypto.a(x509_vpm.o)
 .sdata         0x00000210        0x4 /usr/local/lib/libcrypto.a(v3_lib.o)
 .sdata         0x00000214        0x4 /usr/local/lib/libcrypto.a(v3_purp.o)
 .sdata         0x00000218        0x8 /usr/local/lib/libcrypto.a(conf_mod.o)
 .sdata         0x00000220        0x4 /usr/local/lib/libcrypto.a(c_zlib.o)
 .sdata         0x00000224        0x4 /usr/local/lib/libcrypto.a(ui_lib.o)
 .sdata         0x00000228        0x4 /usr/local/lib/libcrypto.a(ec_print.o)
 .sdata         0x0000022c        0x4 /usr/local/lib/libcrypto.a(dsa_lib.o)
 .sdata         0x00000230        0x4 /usr/local/lib/libcrypto.a(ecs_lib.o)
 .sdata         0x00000234        0x4 /usr/local/lib/libcrypto.a(ech_lib.o)
 .sdata         0x00000238        0x4 /usr/local/lib/libcrypto.a(dso_lib.o)
 .sdata         0x0000023c        0x4 /usr/local/lib/libcrypto.a(eng_table.o)
 .sdata         0x00000240        0x4 /usr/local/lib/libcrypto.a(eng_cnf.o)
 *fill*         0x00000244        0x4
 .sdata         0x00000248       0x28 /usr/local/lib/libcrypto.a(md_rand.o)
 .sdata         0x00000270        0x4 /usr/local/lib/libcrypto.a(f_int.o)
 .sdata         0x00000274        0x4 /usr/local/lib/libcrypto.a(f_string.o)
 .sdata         0x00000278        0x8 /usr/local/lib/libcrypto.a(a_strnid.o)
 .sdata         0x00000280        0x4 /usr/local/lib/libcrypto.a(x509_req.o)
 .sdata         0x00000284        0x4 /usr/local/lib/libcrypto.a(conf_lib.o)
 .sdata         0x00000288        0x8 /usr/local/lib/libz.a(deflate.o)
 .sdata         0x00000290        0x4 /gg/ppc-morphos/lib/libnix/libc.a(__stdio.o)
                0x00000290                __sF
 .sdata         0x00000294        0x4 /gg/ppc-morphos/lib/libnix/libc.a(_MSTEP.o)
                0x00000294                _MSTEP
 .sdata         0x00000298        0x4 /gg/ppc-morphos/lib/libnix/libc.a(errno.o)
                0x00000298                errno
 .sdata         0x0000029c        0x8 /gg/ppc-morphos/lib/libnix/libc.a(open.o)
 .sdata         0x000002a4        0x4 /gg/ppc-morphos/lib/libnix/libc.a(__seterrno.o)
                0x000002a4                _OSERR
 .sdata         0x000002a8        0x4 /gg/ppc-morphos/lib/libnix/libc.a(_ctype_.o)
                0x000002a8                _ctype_
 .sdata         0x000002ac        0x8 /gg/ppc-morphos/lib/libnix/libc.a(__signalfunc.o)
                0x000002b0                __signalmask
                0x000002ac                __signalpending
 .sdata         0x000002b4        0x4 /gg/ppc-morphos/lib/libnix/libc.a(strerror.o)
                0x000002b4                __sys_nerr
 .sdata         0x000002b8        0x8 /gg/ppc-morphos/lib/libnix/libc.a(__gmtoffset.o)
                0x000002bc                __dstflag
                0x000002b8                __gmtoffset
 .sdata         0x000002c0        0x4 /gg/ppc-morphos/lib/libnix/libc.a(gettimeofday.o)
 .sdata         0x000002c4        0x4 /gg/ppc-morphos/lib/libnix/libc.a(__decimalpoint.o)
                0x000002c4                __decimalpoint
 .sdata         0x000002c8        0x4 /gg/ppc-morphos/lib/libnix/libc.a(__localevec.o)
                0x000002c8                libnix_LocaleBase
 .sdata         0x000002cc        0x8 /gg/ppc-morphos/lib/libnix/libauto.a(SocketBase.o)
                0x000002cc                h_errno
 .sdata         0x000002d4        0x4 /gg/ppc-morphos/lib/libnix/libauto.a(__oslibversion.o)
                0x000002d4                __oslibversion
 *(.sdata.*)
 *(.gnu.linkonce.s.*)
                0x00008000                PROVIDE (__r13_init, 0x8000)
                0x000002d8                PROVIDE (__sdata_end, .)
                0x000002d8                PROVIDE (__sdata_size, SIZEOF(.sdata))
                0x000002d8                _edata=.
                0x000002d8                PROVIDE (edata, .)

.sbss           0x000002d8       0x64
                0x000002d8                PROVIDE (__sbss_start, .)
 *(.sbss)
 .sbss          0x000002d8        0xc /gg/ppc-morphos/lib/libnix/crt0.o
 .sbss          0x000002e4        0x8 tool_cb_dbg.o
 .sbss          0x000002ec        0x8 ../lib/.libs/libcurl.a(libcurl_la-version.o)
 .sbss          0x000002f4        0x8 ../lib/.libs/libcurl.a(libcurl_la-easy.o)
 .sbss          0x000002fc        0x4 ../lib/.libs/libcurl.a(libcurl_la-rand.o)
 .sbss          0x00000300        0x4 ../lib/.libs/libcurl.a(libcurl_la-hostip.o)
 .sbss          0x00000304        0x4 /usr/local/lib/libcrypto.a(cryptlib.o)
 .sbss          0x00000308        0x8 /usr/local/lib/libcrypto.a(o_names.o)
 .sbss          0x00000310        0x4 /usr/local/lib/libcrypto.a(evp_pbe.o)
 .sbss          0x00000314       0x14 /usr/local/lib/libcrypto.a(ui_openssl.o)
 .sbss          0x00000328        0x4 /usr/local/lib/libcrypto.a(asn1_gen.o)
 .sbss          0x0000032c        0xc /gg/ppc-morphos/lib/libnix/libc.a(open.o)
 .sbss          0x00000338        0x4 /gg/ppc-morphos/lib/libnix/libc.a(strtok.o)
 *(.sbss.*)
 *(.gnu.linkonce.sb.*)
 *(.scommon)
 *(.dynsbss)
                0x0000033c                PROVIDE (__sbss_end, .)
                0x00000064                PROVIDE (__sbss_size, SIZEOF(.sbss))

.plt
 *(.plt)

.bss            0x00000000     0x20e0
                0x00000000                PROVIDE (__bss_start, .)
                0x00000000                PROVIDE (__bss_start, .)
 *(.dynbss)
 *(.bss)
 .bss           0x00000000      0x118 ../lib/.libs/libcurl.a(libcurl_la-version.o)
 .bss           0x00000118       0x18 ../lib/.libs/libcurl.a(libcurl_la-hostip.o)
 .bss           0x00000130       0xc4 /usr/local/lib/libcrypto.a(cversion.o)
 .bss           0x000001f4       0x3c /usr/local/lib/libcrypto.a(sha256.o)
 .bss           0x00000230       0x40 /usr/local/lib/libcrypto.a(hmac.o)
 .bss           0x00000270       0x10 /usr/local/lib/libcrypto.a(b_sock.o)
 .bss           0x00000280      0x18c /usr/local/lib/libcrypto.a(err_def.o)
 .bss           0x0000040c      0x100 /usr/local/lib/libcrypto.a(err_prn.o)
 .bss           0x0000050c     0x13e0 /usr/local/lib/libcrypto.a(err_str.o)
 .bss           0x000018ec       0x64 /usr/local/lib/libcrypto.a(x509_txt.o)
 .bss           0x00001950       0x80 /usr/local/lib/libcrypto.a(ui_openssl.o)
 .bss           0x000019d0       0x70 /usr/local/lib/libcrypto.a(sha512.o)
 .bss           0x00001a40      0x428 /usr/local/lib/libcrypto.a(md_rand.o)
 .bss           0x00001e68       0x50 /usr/local/lib/libcrypto.a(evp_key.o)
 .bss           0x00001eb8        0xc /gg/ppc-morphos/lib/libnix/libc.a(__stdio.o)
 .bss           0x00001ec4       0x2c /gg/ppc-morphos/lib/libnix/libc.a(gmtime.o)
 *(.bss.*)
 *(.gnu.linkonce.b.*)
 *(COMMON)
 COMMON         0x00001ef0       0x30 /gg/ppc-morphos/lib/libnix/crt0.o
                0x00001ef0                ThisRequiresConstructorHandling
                0x00001ef4                __commandline
                0x00001ef8                __commandlen
                0x00001efc                __elfobject
                0x00001f00                __argc
                0x00001f04                DOSBase
                0x00001f08                _WBenchMsg
                0x00001f0c                __argv
                0x00001f10                __curdir
                0x00001f14                __SaveSP
                0x00001f18                __currentprocess
                0x00001f1c                SysBase
 COMMON         0x00001f20      0x17c ../lib/.libs/libcurl.a(libcurl_la-hostip.o)
                0x00001f20                curl_jmpenv
 COMMON         0x0000209c        0x4 /usr/local/lib/libcrypto.a(set_key.o)
                0x0000209c                _shadow_DES_check_key
 COMMON         0x000020a0        0x8 /gg/ppc-morphos/lib/libnix/libc.a(__nocommandline.o)
                0x000020a0                __programname
                0x000020a4                __commandbuf
 COMMON         0x000020a8       0x2e /gg/ppc-morphos/lib/libnix/libc.a(semaphore.o)
                0x000020a8                __global_lock
 *fill*         0x000020d6        0x2
 COMMON         0x000020d8        0x4 /gg/ppc-morphos/lib/libnix/libauto.a(SocketBase.o)
                0x000020d8                SocketBase
 COMMON         0x000020dc        0x4 /gg/ppc-morphos/lib/libnix/libauto.a(UserGroupBase.o)
                0x000020dc                UserGroupBase
                0x000020e0                PROVIDE (__bss_end, .)
                0x000020e0                PROVIDE (__bss_size, SIZEOF(.bss))
                0x000020e0                _end=.
                0x000020e0                PROVIDE (end, .)

.stab           0x00000000    0x284ac
 *(.stab)
 .stab          0x00000000     0x1b3c slist_wc.o
                               0x1b48 (size before relaxing)
 .stab          0x00001b3c      0x57c tool_binmode.o
                               0x1980 (size before relaxing)
 .stab          0x000020b8      0x69c tool_bname.o
                               0x1aac (size before relaxing)
 .stab          0x00002754      0xef4 tool_cb_dbg.o
                               0x2304 (size before relaxing)
 .stab          0x00003648      0xc60 tool_cb_hdr.o
                               0x2208 (size before relaxing)
 .stab          0x000042a8      0xa5c tool_cb_prg.o
                               0x2004 (size before relaxing)
 .stab          0x00004d04      0x744 tool_cb_rea.o
                               0x1ce0 (size before relaxing)
 .stab          0x00005448      0x7c8 tool_cb_see.o
                               0x1d64 (size before relaxing)
 .stab          0x00005c10      0x960 tool_cb_wrt.o
                               0x1f08 (size before relaxing)
 .stab          0x00006570      0xc30 tool_cfgable.o
                               0x2178 (size before relaxing)
 .stab          0x000071a0      0x57c tool_convert.o
                               0x1980 (size before relaxing)
 .stab          0x0000771c      0x930 tool_dirhie.o
                               0x1d94 (size before relaxing)
 .stab          0x0000804c      0x57c tool_doswin.o
                               0x1980 (size before relaxing)
 .stab          0x000085c8      0xfe4 tool_easysrc.o
                               0x25a4 (size before relaxing)
 .stab          0x000095ac     0x10c8 tool_formparse.o
                               0x2670 (size before relaxing)
 .stab          0x0000a674     0x3c78 tool_getparam.o
                               0x5244 (size before relaxing)
 .stab          0x0000e2ec      0x78c tool_getpass.o
                               0x1b9c (size before relaxing)
 .stab          0x0000ea78      0x8c4 tool_help.o
                               0x1ce0 (size before relaxing)
 .stab          0x0000f33c      0x8dc tool_helpers.o
                               0x1eb4 (size before relaxing)
 .stab          0x0000fc18      0x6fc tool_homedir.o
                               0x1b0c (size before relaxing)
 .stab          0x00010314      0x990 tool_hugehelp.o
                               0x1da0 (size before relaxing)
 .stab          0x00010ca4      0x72c tool_libinfo.o
                               0x1b9c (size before relaxing)
 .stab          0x000113d0      0xb34 tool_main.o
                               0x2100 (size before relaxing)
 .stab          0x00011f04      0x57c tool_metalink.o
                               0x1980 (size before relaxing)
 .stab          0x00012480      0x924 tool_mfiles.o
                               0x1d4c (size before relaxing)
 .stab          0x00012da4      0xa44 tool_msgs.o
                               0x1fec (size before relaxing)
 .stab          0x000137e8     0x3960 tool_operate.o
                               0x5040 (size before relaxing)
 .stab          0x00017148      0xb7c tool_operhlp.o
                               0x213c (size before relaxing)
 .stab          0x00017cc4      0x57c tool_panykey.o
                               0x1980 (size before relaxing)
 .stab          0x00018240     0x1a1c tool_paramhlp.o
                               0x3018 (size before relaxing)
 .stab          0x00019c5c      0xf84 tool_parsecfg.o
                               0x2574 (size before relaxing)
 .stab          0x0001abe0      0x594 tool_strdup.o
                               0x1998 (size before relaxing)
 .stab          0x0001b174     0x1c08 tool_setopt.o
                               0x31d4 (size before relaxing)
 .stab          0x0001cd7c      0x744 tool_sleep.o
                               0x1b60 (size before relaxing)
 .stab          0x0001d4c0     0x20c4 tool_urlglob.o
                               0x36b4 (size before relaxing)
 .stab          0x0001f584      0x750 tool_util.o
                               0x1b6c (size before relaxing)
 .stab          0x0001fcd4      0x57c tool_vms.o
                               0x1980 (size before relaxing)
 .stab          0x00020250      0x57c tool_writeenv.o
                               0x1980 (size before relaxing)
 .stab          0x000207cc      0xe94 tool_writeout.o
                               0x243c (size before relaxing)
 .stab          0x00021660      0x5e8 tool_xattr.o
                               0x1a04 (size before relaxing)
 .stab          0x00021c48      0x96c ../lib/strtoofft.o
                               0x1824 (size before relaxing)
 .stab          0x000225b4      0xbdc ../lib/nonblock.o
                               0x1adc (size before relaxing)
 .stab          0x00023190      0xaa4 ../lib/warnless.o
                               0x195c (size before relaxing)
 .stab          0x00023c34     0x13bc /gg/lib/gcc-lib/ppc-morphos/2.95.3/libnix/libgcc.a(_divdi3.o)
                               0x1974 (size before relaxing)
 .stab          0x00024ff0      0x5dc /gg/lib/gcc-lib/ppc-morphos/2.95.3/libnix/libgcc.a(_eprintf.o)
                               0x1128 (size before relaxing)
 .stab          0x000255cc      0x540 /gg/lib/gcc-lib/ppc-morphos/2.95.3/libnix/libgcc.a(_fixdfdi.o)
                               0x108c (size before relaxing)
 .stab          0x00025b0c      0x63c /gg/lib/gcc-lib/ppc-morphos/2.95.3/libnix/libgcc.a(_fixunsdfdi.o)
                               0x1188 (size before relaxing)
 .stab          0x00026148      0x5f4 /gg/lib/gcc-lib/ppc-morphos/2.95.3/libnix/libgcc.a(_floatdidf.o)
                               0x1140 (size before relaxing)
 .stab          0x0002673c      0xbd0 /gg/lib/gcc-lib/ppc-morphos/2.95.3/libnix/libgcc.a(_udivdi3.o)
                               0x1728 (size before relaxing)
 .stab          0x0002730c      0xbf4 /gg/lib/gcc-lib/ppc-morphos/2.95.3/libnix/libgcc.a(_umoddi3.o)
                               0x174c (size before relaxing)
 .stab          0x00027f00      0x5ac /gg/lib/gcc-lib/ppc-morphos/2.95.3/libnix/libgcc.a(_cmpdi2.o)
                               0x10f8 (size before relaxing)

.stabstr        0x00000000    0x19dc5
 *(.stabstr)
 .stabstr       0x00000000    0x19dc5 slist_wc.o
                                  0x0 (size before relaxing)

.debug
 *(.debug)

.line
 *(.line)

.debug_srcinfo
 *(.debug_srcinfo)

.debug_sfnames
 *(.debug_sfnames)

.debug_aranges
 *(.debug_aranges)

.debug_pubnames
 *(.debug_pubnames)

.debug_info
 *(.debug_info)

.debug_abbrev
 *(.debug_abbrev)

.debug_line
 *(.debug_line)

.debug_frame
 *(.debug_frame)

.debug_str
 *(.debug_str)

.debug_loc
 *(.debug_loc)

.debug_macinfo
 *(.debug_macinfo)

.debug_weaknames
 *(.debug_weaknames)

.debug_funcnames
 *(.debug_funcnames)

.debug_typenames
 *(.debug_typenames)

.debug_varnames
 *(.debug_varnames)
OUTPUT(curl elf32-morphos)

.comment        0x00000000     0x9967
 .comment       0x00000000       0x35 /gg/ppc-morphos/lib/libnix/crt0.o
 .comment       0x00000035       0x35 slist_wc.o
 .comment       0x0000006a       0x35 tool_binmode.o
 .comment       0x0000009f       0x35 tool_bname.o
 .comment       0x000000d4       0x35 tool_cb_dbg.o
 .comment       0x00000109       0x35 tool_cb_hdr.o
 .comment       0x0000013e       0x35 tool_cb_prg.o
 .comment       0x00000173       0x35 tool_cb_rea.o
 .comment       0x000001a8       0x35 tool_cb_see.o
 .comment       0x000001dd       0x35 tool_cb_wrt.o
 .comment       0x00000212       0x35 tool_cfgable.o
 .comment       0x00000247       0x35 tool_convert.o
 .comment       0x0000027c       0x35 tool_dirhie.o
 .comment       0x000002b1       0x35 tool_doswin.o
 .comment       0x000002e6       0x35 tool_easysrc.o
 .comment       0x0000031b       0x35 tool_formparse.o
 .comment       0x00000350       0x35 tool_getparam.o
 .comment       0x00000385       0x35 tool_getpass.o
 .comment       0x000003ba       0x35 tool_help.o
 .comment       0x000003ef       0x35 tool_helpers.o
 .comment       0x00000424       0x35 tool_homedir.o
 .comment       0x00000459       0x35 tool_hugehelp.o
 .comment       0x0000048e       0x35 tool_libinfo.o
 .comment       0x000004c3       0x35 tool_main.o
 .comment       0x000004f8       0x35 tool_metalink.o
 .comment       0x0000052d       0x35 tool_mfiles.o
 .comment       0x00000562       0x35 tool_msgs.o
 .comment       0x00000597       0x35 tool_operate.o
 .comment       0x000005cc       0x35 tool_operhlp.o
 .comment       0x00000601       0x35 tool_panykey.o
 .comment       0x00000636       0x35 tool_paramhlp.o
 .comment       0x0000066b       0x35 tool_parsecfg.o
 .comment       0x000006a0       0x35 tool_strdup.o
 .comment       0x000006d5       0x35 tool_setopt.o
 .comment       0x0000070a       0x35 tool_sleep.o
 .comment       0x0000073f       0x35 tool_urlglob.o
 .comment       0x00000774       0x35 tool_util.o
 .comment       0x000007a9       0x35 tool_vms.o
 .comment       0x000007de       0x35 tool_writeenv.o
 .comment       0x00000813       0x35 tool_writeout.o
 .comment       0x00000848       0x35 tool_xattr.o
 .comment       0x0000087d       0x35 ../lib/strtoofft.o
 .comment       0x000008b2       0x35 ../lib/nonblock.o
 .comment       0x000008e7       0x35 ../lib/warnless.o
 .comment       0x0000091c       0x35 ../lib/.libs/libcurl.a(libcurl_la-formdata.o)
 .comment       0x00000951       0x35 ../lib/.libs/libcurl.a(libcurl_la-sendf.o)
 .comment       0x00000986       0x35 ../lib/.libs/libcurl.a(libcurl_la-version.o)
 .comment       0x000009bb       0x35 ../lib/.libs/libcurl.a(libcurl_la-getenv.o)
 .comment       0x000009f0       0x35 ../lib/.libs/libcurl.a(libcurl_la-escape.o)
 .comment       0x00000a25       0x35 ../lib/.libs/libcurl.a(libcurl_la-mprintf.o)
 .comment       0x00000a5a       0x35 ../lib/.libs/libcurl.a(libcurl_la-strcase.o)
 .comment       0x00000a8f       0x35 ../lib/.libs/libcurl.a(libcurl_la-easy.o)
 .comment       0x00000ac4       0x35 ../lib/.libs/libcurl.a(libcurl_la-connect.o)
 .comment       0x00000af9       0x35 ../lib/.libs/libcurl.a(libcurl_la-multi.o)
 .comment       0x00000b2e       0x35 ../lib/.libs/libcurl.a(libcurl_la-inet_pton.o)
 .comment       0x00000b63       0x35 ../lib/.libs/libcurl.a(libcurl_la-strerror.o)
 .comment       0x00000b98       0x35 ../lib/.libs/libcurl.a(libcurl_la-inet_ntop.o)
 .comment       0x00000bcd       0x35 ../lib/.libs/libcurl.a(libcurl_la-parsedate.o)
 .comment       0x00000c02       0x35 ../lib/.libs/libcurl.a(libcurl_la-select.o)
 .comment       0x00000c37       0x35 ../lib/.libs/libcurl.a(libcurl_la-splay.o)
 .comment       0x00000c6c       0x35 ../lib/.libs/libcurl.a(libcurl_la-strdup.o)
 .comment       0x00000ca1       0x35 ../lib/.libs/libcurl.a(libcurl_la-slist.o)
 .comment       0x00000cd6       0x35 ../lib/.libs/libcurl.a(libcurl_la-rand.o)
 .comment       0x00000d0b       0x35 ../lib/.libs/libcurl.a(libcurl_la-conncache.o)
 .comment       0x00000d40       0x35 ../lib/.libs/libcurl.a(libcurl_la-pipeline.o)
 .comment       0x00000d75       0x35 ../lib/.libs/libcurl.a(libcurl_la-vtls.o)
 .comment       0x00000daa       0x35 ../lib/.libs/libcurl.a(libcurl_la-timeval.o)
 .comment       0x00000ddf       0x35 ../lib/.libs/libcurl.a(libcurl_la-base64.o)
 .comment       0x00000e14       0x35 ../lib/.libs/libcurl.a(libcurl_la-hostip.o)
 .comment       0x00000e49       0x35 ../lib/.libs/libcurl.a(libcurl_la-progress.o)
 .comment       0x00000e7e       0x35 ../lib/.libs/libcurl.a(libcurl_la-cookie.o)
 .comment       0x00000eb3       0x35 ../lib/.libs/libcurl.a(libcurl_la-http.o)
 .comment       0x00000ee8       0x35 ../lib/.libs/libcurl.a(libcurl_la-url.o)
 .comment       0x00000f1d       0x35 ../lib/.libs/libcurl.a(libcurl_la-dict.o)
 .comment       0x00000f52       0x35 ../lib/.libs/libcurl.a(libcurl_la-if2ip.o)
 .comment       0x00000f87       0x35 ../lib/.libs/libcurl.a(libcurl_la-speedcheck.o)
 .comment       0x00000fbc       0x35 ../lib/.libs/libcurl.a(libcurl_la-telnet.o)
 .comment       0x00000ff1       0x35 ../lib/.libs/libcurl.a(libcurl_la-netrc.o)
 .comment       0x00001026       0x35 ../lib/.libs/libcurl.a(libcurl_la-getinfo.o)
 .comment       0x0000105b       0x35 ../lib/.libs/libcurl.a(libcurl_la-transfer.o)
 .comment       0x00001090       0x35 ../lib/.libs/libcurl.a(libcurl_la-wildcard.o)
 .comment       0x000010c5       0x35 ../lib/.libs/libcurl.a(libcurl_la-http_chunks.o)
 .comment       0x000010fa       0x35 ../lib/.libs/libcurl.a(libcurl_la-llist.o)
 .comment       0x0000112f       0x35 ../lib/.libs/libcurl.a(libcurl_la-hash.o)
 .comment       0x00001164       0x35 ../lib/.libs/libcurl.a(libcurl_la-content_encoding.o)
 .comment       0x00001199       0x35 ../lib/.libs/libcurl.a(libcurl_la-share.o)
 .comment       0x000011ce       0x35 ../lib/.libs/libcurl.a(libcurl_la-http_digest.o)
 .comment       0x00001203       0x35 ../lib/.libs/libcurl.a(libcurl_la-hostip4.o)
 .comment       0x00001238       0x35 ../lib/.libs/libcurl.a(libcurl_la-hostsyn.o)
 .comment       0x0000126d       0x35 ../lib/.libs/libcurl.a(libcurl_la-tftp.o)
 .comment       0x000012a2       0x35 ../lib/.libs/libcurl.a(libcurl_la-socks.o)
 .comment       0x000012d7       0x35 ../lib/.libs/libcurl.a(libcurl_la-curl_addrinfo.o)
 .comment       0x0000130c       0x35 ../lib/.libs/libcurl.a(libcurl_la-curl_memrchr.o)
 .comment       0x00001341       0x35 ../lib/.libs/libcurl.a(libcurl_la-imap.o)
 .comment       0x00001376       0x35 ../lib/.libs/libcurl.a(libcurl_la-pop3.o)
 .comment       0x000013ab       0x35 ../lib/.libs/libcurl.a(libcurl_la-smtp.o)
 .comment       0x000013e0       0x35 ../lib/.libs/libcurl.a(libcurl_la-pingpong.o)
 .comment       0x00001415       0x35 ../lib/.libs/libcurl.a(libcurl_la-rtsp.o)
 .comment       0x0000144a       0x35 ../lib/.libs/libcurl.a(libcurl_la-curl_gethostname.o)
 .comment       0x0000147f       0x35 ../lib/.libs/libcurl.a(libcurl_la-gopher.o)
 .comment       0x000014b4       0x35 ../lib/.libs/libcurl.a(libcurl_la-http_proxy.o)
 .comment       0x000014e9       0x35 ../lib/.libs/libcurl.a(libcurl_la-http_ntlm.o)
 .comment       0x0000151e       0x35 ../lib/.libs/libcurl.a(libcurl_la-curl_sasl.o)
 .comment       0x00001553       0x35 ../lib/.libs/libcurl.a(libcurl_la-dotdot.o)
 .comment       0x00001588       0x35 ../lib/.libs/libcurl.a(libcurl_la-smb.o)
 .comment       0x000015bd       0x35 ../lib/.libs/libcurl.a(libcurl_la-curl_endian.o)
 .comment       0x000015f2       0x35 ../lib/.libs/libcurl.a(libcurl_la-cleartext.o)
 .comment       0x00001627       0x35 ../lib/.libs/libcurl.a(libcurl_la-cram.o)
 .comment       0x0000165c       0x35 ../lib/.libs/libcurl.a(libcurl_la-digest.o)
 .comment       0x00001691       0x35 ../lib/.libs/libcurl.a(libcurl_la-ntlm.o)
 .comment       0x000016c6       0x35 ../lib/.libs/libcurl.a(libcurl_la-oauth2.o)
 .comment       0x000016fb       0x35 ../lib/.libs/libcurl.a(libcurl_la-openssl.o)
 .comment       0x00001730       0x35 ../lib/.libs/libcurl.a(libcurl_la-file.o)
 .comment       0x00001765       0x35 ../lib/.libs/libcurl.a(libcurl_la-ftp.o)
 .comment       0x0000179a       0x35 ../lib/.libs/libcurl.a(libcurl_la-fileinfo.o)
 .comment       0x000017cf       0x35 ../lib/.libs/libcurl.a(libcurl_la-ftplistparser.o)
 .comment       0x00001804       0x35 ../lib/.libs/libcurl.a(libcurl_la-md5.o)
 .comment       0x00001839       0x35 ../lib/.libs/libcurl.a(libcurl_la-hmac.o)
 .comment       0x0000186e       0x35 ../lib/.libs/libcurl.a(libcurl_la-curl_ntlm_core.o)
 .comment       0x000018a3       0x35 ../lib/.libs/libcurl.a(libcurl_la-hostcheck.o)
 .comment       0x000018d8       0x35 ../lib/.libs/libcurl.a(libcurl_la-vauth.o)
 .comment       0x0000190d       0x35 ../lib/.libs/libcurl.a(libcurl_la-curl_fnmatch.o)
 .comment       0x00001942       0x42 /usr/local/lib/libssl.a(s3_clnt.o)
 .comment       0x00001984       0x42 /usr/local/lib/libssl.a(s3_lib.o)
 .comment       0x000019c6       0x42 /usr/local/lib/libssl.a(s3_enc.o)
 .comment       0x00001a08       0x42 /usr/local/lib/libssl.a(s3_pkt.o)
 .comment       0x00001a4a       0x42 /usr/local/lib/libssl.a(s3_both.o)
 .comment       0x00001a8c       0x42 /usr/local/lib/libssl.a(s23_clnt.o)
 .comment       0x00001ace       0x42 /usr/local/lib/libssl.a(s23_lib.o)
 .comment       0x00001b10       0x42 /usr/local/lib/libssl.a(s23_pkt.o)
 .comment       0x00001b52       0x42 /usr/local/lib/libssl.a(t1_clnt.o)
 .comment       0x00001b94       0x42 /usr/local/lib/libssl.a(t1_lib.o)
 .comment       0x00001bd6       0x42 /usr/local/lib/libssl.a(t1_enc.o)
 .comment       0x00001c18       0x42 /usr/local/lib/libssl.a(ssl_lib.o)
 .comment       0x00001c5a       0x42 /usr/local/lib/libssl.a(ssl_err2.o)
 .comment       0x00001c9c       0x42 /usr/local/lib/libssl.a(ssl_cert.o)
 .comment       0x00001cde       0x42 /usr/local/lib/libssl.a(ssl_sess.o)
 .comment       0x00001d20       0x42 /usr/local/lib/libssl.a(ssl_ciph.o)
 .comment       0x00001d62       0x42 /usr/local/lib/libssl.a(ssl_rsa.o)
 .comment       0x00001da4       0x42 /usr/local/lib/libssl.a(ssl_asn1.o)
 .comment       0x00001de6       0x42 /usr/local/lib/libssl.a(ssl_algs.o)
 .comment       0x00001e28       0x42 /usr/local/lib/libssl.a(bio_ssl.o)
 .comment       0x00001e6a       0x42 /usr/local/lib/libssl.a(ssl_err.o)
 .comment       0x00001eac       0x42 /usr/local/lib/libssl.a(s2_clnt.o)
 .comment       0x00001eee       0x42 /usr/local/lib/libssl.a(s2_lib.o)
 .comment       0x00001f30       0x42 /usr/local/lib/libssl.a(s2_enc.o)
 .comment       0x00001f72       0x42 /usr/local/lib/libssl.a(s2_pkt.o)
 .comment       0x00001fb4       0x42 /usr/local/lib/libcrypto.a(cryptlib.o)
 .comment       0x00001ff6       0x42 /usr/local/lib/libcrypto.a(mem.o)
 .comment       0x00002038       0x42 /usr/local/lib/libcrypto.a(mem_clr.o)
 .comment       0x0000207a       0x42 /usr/local/lib/libcrypto.a(mem_dbg.o)
 .comment       0x000020bc       0x42 /usr/local/lib/libcrypto.a(cversion.o)
 .comment       0x000020fe       0x42 /usr/local/lib/libcrypto.a(ex_data.o)
 .comment       0x00002140       0x42 /usr/local/lib/libcrypto.a(o_dir.o)
 .comment       0x00002182       0x42 /usr/local/lib/libcrypto.a(o_names.o)
 .comment       0x000021c4       0x42 /usr/local/lib/libcrypto.a(obj_dat.o)
 .comment       0x00002206       0x42 /usr/local/lib/libcrypto.a(obj_lib.o)
 .comment       0x00002248       0x42 /usr/local/lib/libcrypto.a(md4_dgst.o)
 .comment       0x0000228a       0x42 /usr/local/lib/libcrypto.a(md5_dgst.o)
 .comment       0x000022cc       0x42 /usr/local/lib/libcrypto.a(sha256.o)
 .comment       0x0000230e       0x42 /usr/local/lib/libcrypto.a(hmac.o)
 .comment       0x00002350       0x42 /usr/local/lib/libcrypto.a(set_key.o)
 .comment       0x00002392       0x42 /usr/local/lib/libcrypto.a(ecb_enc.o)
 .comment       0x000023d4       0x42 /usr/local/lib/libcrypto.a(des_enc.o)
 .comment       0x00002416       0x42 /usr/local/lib/libcrypto.a(bn_lib.o)
 .comment       0x00002458       0x42 /usr/local/lib/libcrypto.a(bn_ctx.o)
 .comment       0x0000249a       0x42 /usr/local/lib/libcrypto.a(bn_print.o)
 .comment       0x000024dc       0x42 /usr/local/lib/libcrypto.a(bn_shift.o)
 .comment       0x0000251e       0x42 /usr/local/lib/libcrypto.a(bn_word.o)
 .comment       0x00002560       0x42 /usr/local/lib/libcrypto.a(bn_asm.o)
 .comment       0x000025a2       0x42 /usr/local/lib/libcrypto.a(ec_lib.o)
 .comment       0x000025e4       0x42 /usr/local/lib/libcrypto.a(ec_mult.o)
 .comment       0x00002626       0x42 /usr/local/lib/libcrypto.a(ec_curve.o)
 .comment       0x00002668       0x42 /usr/local/lib/libcrypto.a(ec_key.o)
 .comment       0x000026aa       0x42 /usr/local/lib/libcrypto.a(rsa_lib.o)
 .comment       0x000026ec       0x42 /usr/local/lib/libcrypto.a(rsa_sign.o)
 .comment       0x0000272e       0x42 /usr/local/lib/libcrypto.a(rsa_asn1.o)
 .comment       0x00002770       0x42 /usr/local/lib/libcrypto.a(rsa_eng.o)
 .comment       0x000027b2       0x42 /usr/local/lib/libcrypto.a(dsa_asn1.o)
 .comment       0x000027f4       0x42 /usr/local/lib/libcrypto.a(dsa_vrf.o)
 .comment       0x00002836       0x42 /usr/local/lib/libcrypto.a(dsa_sign.o)
 .comment       0x00002878       0x42 /usr/local/lib/libcrypto.a(dsa_utl.o)
 .comment       0x000028ba       0x42 /usr/local/lib/libcrypto.a(ecs_sign.o)
 .comment       0x000028fc       0x42 /usr/local/lib/libcrypto.a(dh_asn1.o)
 .comment       0x0000293e       0x42 /usr/local/lib/libcrypto.a(dh_key.o)
 .comment       0x00002980       0x42 /usr/local/lib/libcrypto.a(dh_lib.o)
 .comment       0x000029c2       0x42 /usr/local/lib/libcrypto.a(dh_check.o)
 .comment       0x00002a04       0x42 /usr/local/lib/libcrypto.a(ech_key.o)
 .comment       0x00002a46       0x42 /usr/local/lib/libcrypto.a(eng_lib.o)
 .comment       0x00002a88       0x42 /usr/local/lib/libcrypto.a(eng_list.o)
 .comment       0x00002aca       0x42 /usr/local/lib/libcrypto.a(eng_init.o)
 .comment       0x00002b0c       0x42 /usr/local/lib/libcrypto.a(eng_ctrl.o)
 .comment       0x00002b4e       0x42 /usr/local/lib/libcrypto.a(eng_pkey.o)
 .comment       0x00002b90       0x42 /usr/local/lib/libcrypto.a(eng_fat.o)
 .comment       0x00002bd2       0x42 /usr/local/lib/libcrypto.a(tb_rsa.o)
 .comment       0x00002c14       0x42 /usr/local/lib/libcrypto.a(tb_dsa.o)
 .comment       0x00002c56       0x42 /usr/local/lib/libcrypto.a(tb_ecdsa.o)
 .comment       0x00002c98       0x42 /usr/local/lib/libcrypto.a(tb_dh.o)
 .comment       0x00002cda       0x42 /usr/local/lib/libcrypto.a(tb_ecdh.o)
 .comment       0x00002d1c       0x42 /usr/local/lib/libcrypto.a(tb_rand.o)
 .comment       0x00002d5e       0x42 /usr/local/lib/libcrypto.a(tb_cipher.o)
 .comment       0x00002da0       0x42 /usr/local/lib/libcrypto.a(tb_digest.o)
 .comment       0x00002de2       0x42 /usr/local/lib/libcrypto.a(buffer.o)
 .comment       0x00002e24       0x42 /usr/local/lib/libcrypto.a(buf_str.o)
 .comment       0x00002e66       0x42 /usr/local/lib/libcrypto.a(bio_lib.o)
 .comment       0x00002ea8       0x42 /usr/local/lib/libcrypto.a(bss_mem.o)
 .comment       0x00002eea       0x42 /usr/local/lib/libcrypto.a(bss_file.o)
 .comment       0x00002f2c       0x42 /usr/local/lib/libcrypto.a(bss_sock.o)
 .comment       0x00002f6e       0x42 /usr/local/lib/libcrypto.a(bss_conn.o)
 .comment       0x00002fb0       0x42 /usr/local/lib/libcrypto.a(bf_buff.o)
 .comment       0x00002ff2       0x42 /usr/local/lib/libcrypto.a(b_print.o)
 .comment       0x00003034       0x42 /usr/local/lib/libcrypto.a(b_sock.o)
 .comment       0x00003076       0x42 /usr/local/lib/libcrypto.a(stack.o)
 .comment       0x000030b8       0x42 /usr/local/lib/libcrypto.a(lhash.o)
 .comment       0x000030fa       0x42 /usr/local/lib/libcrypto.a(randfile.o)
 .comment       0x0000313c       0x42 /usr/local/lib/libcrypto.a(rand_lib.o)
 .comment       0x0000317e       0x42 /usr/local/lib/libcrypto.a(err.o)
 .comment       0x000031c0       0x42 /usr/local/lib/libcrypto.a(err_def.o)
 .comment       0x00003202       0x42 /usr/local/lib/libcrypto.a(err_all.o)
 .comment       0x00003244       0x42 /usr/local/lib/libcrypto.a(err_prn.o)
 .comment       0x00003286       0x42 /usr/local/lib/libcrypto.a(err_str.o)
 .comment       0x000032c8       0x42 /usr/local/lib/libcrypto.a(digest.o)
 .comment       0x0000330a       0x42 /usr/local/lib/libcrypto.a(evp_enc.o)
 .comment       0x0000334c       0x42 /usr/local/lib/libcrypto.a(e_des.o)
 .comment       0x0000338e       0x42 /usr/local/lib/libcrypto.a(e_idea.o)
 .comment       0x000033d0       0x42 /usr/local/lib/libcrypto.a(e_des3.o)
 .comment       0x00003412       0x42 /usr/local/lib/libcrypto.a(e_rc4.o)
 .comment       0x00003454       0x42 /usr/local/lib/libcrypto.a(e_aes.o)
 .comment       0x00003496       0x42 /usr/local/lib/libcrypto.a(names.o)
 .comment       0x000034d8       0x42 /usr/local/lib/libcrypto.a(e_rc2.o)
 .comment       0x0000351a       0x42 /usr/local/lib/libcrypto.a(enc_min.o)
 .comment       0x0000355c       0x42 /usr/local/lib/libcrypto.a(m_md2.o)
 .comment       0x0000359e       0x42 /usr/local/lib/libcrypto.a(m_md5.o)
 .comment       0x000035e0       0x42 /usr/local/lib/libcrypto.a(m_sha1.o)
 .comment       0x00003622       0x42 /usr/local/lib/libcrypto.a(m_dss1.o)
 .comment       0x00003664       0x42 /usr/local/lib/libcrypto.a(m_ecdsa.o)
 .comment       0x000036a6       0x42 /usr/local/lib/libcrypto.a(p_sign.o)
 .comment       0x000036e8       0x42 /usr/local/lib/libcrypto.a(p_verify.o)
 .comment       0x0000372a       0x42 /usr/local/lib/libcrypto.a(p_lib.o)
 .comment       0x0000376c       0x42 /usr/local/lib/libcrypto.a(evp_err.o)
 .comment       0x000037ae       0x42 /usr/local/lib/libcrypto.a(e_null.o)
 .comment       0x000037f0       0x42 /usr/local/lib/libcrypto.a(c_all.o)
 .comment       0x00003832       0x42 /usr/local/lib/libcrypto.a(c_allc.o)
 .comment       0x00003874       0x42 /usr/local/lib/libcrypto.a(c_alld.o)
 .comment       0x000038b6       0x42 /usr/local/lib/libcrypto.a(evp_lib.o)
 .comment       0x000038f8       0x42 /usr/local/lib/libcrypto.a(evp_pbe.o)
 .comment       0x0000393a       0x42 /usr/local/lib/libcrypto.a(p5_crpt.o)
 .comment       0x0000397c       0x42 /usr/local/lib/libcrypto.a(p5_crpt2.o)
 .comment       0x000039be       0x42 /usr/local/lib/libcrypto.a(a_object.o)
 .comment       0x00003a00       0x42 /usr/local/lib/libcrypto.a(a_int.o)
 .comment       0x00003a42       0x42 /usr/local/lib/libcrypto.a(a_type.o)
 .comment       0x00003a84       0x42 /usr/local/lib/libcrypto.a(a_dup.o)
 .comment       0x00003ac6       0x42 /usr/local/lib/libcrypto.a(a_strex.o)
 .comment       0x00003b08       0x42 /usr/local/lib/libcrypto.a(x_pubkey.o)
 .comment       0x00003b4a       0x42 /usr/local/lib/libcrypto.a(x_sig.o)
 .comment       0x00003b8c       0x42 /usr/local/lib/libcrypto.a(x_attrib.o)
 .comment       0x00003bce       0x42 /usr/local/lib/libcrypto.a(x_bignum.o)
 .comment       0x00003c10       0x42 /usr/local/lib/libcrypto.a(x_long.o)
 .comment       0x00003c52       0x42 /usr/local/lib/libcrypto.a(x_name.o)
 .comment       0x00003c94       0x42 /usr/local/lib/libcrypto.a(x_x509.o)
 .comment       0x00003cd6       0x42 /usr/local/lib/libcrypto.a(x_x509a.o)
 .comment       0x00003d18       0x42 /usr/local/lib/libcrypto.a(d2i_pu.o)
 .comment       0x00003d5a       0x42 /usr/local/lib/libcrypto.a(d2i_pr.o)
 .comment       0x00003d9c       0x42 /usr/local/lib/libcrypto.a(i2d_pu.o)
 .comment       0x00003dde       0x42 /usr/local/lib/libcrypto.a(t_x509.o)
 .comment       0x00003e20       0x42 /usr/local/lib/libcrypto.a(t_x509a.o)
 .comment       0x00003e62       0x42 /usr/local/lib/libcrypto.a(t_pkey.o)
 .comment       0x00003ea4       0x42 /usr/local/lib/libcrypto.a(tasn_new.o)
 .comment       0x00003ee6       0x42 /usr/local/lib/libcrypto.a(tasn_fre.o)
 .comment       0x00003f28       0x42 /usr/local/lib/libcrypto.a(tasn_enc.o)
 .comment       0x00003f6a       0x42 /usr/local/lib/libcrypto.a(tasn_dec.o)
 .comment       0x00003fac       0x42 /usr/local/lib/libcrypto.a(tasn_utl.o)
 .comment       0x00003fee       0x42 /usr/local/lib/libcrypto.a(tasn_typ.o)
 .comment       0x00004030       0x42 /usr/local/lib/libcrypto.a(x_exten.o)
 .comment       0x00004072       0x42 /usr/local/lib/libcrypto.a(asn1_par.o)
 .comment       0x000040b4       0x42 /usr/local/lib/libcrypto.a(asn1_lib.o)
 .comment       0x000040f6       0x42 /usr/local/lib/libcrypto.a(asn1_err.o)
 .comment       0x00004138       0x42 /usr/local/lib/libcrypto.a(evp_asn1.o)
 .comment       0x0000417a       0x42 /usr/local/lib/libcrypto.a(p5_pbe.o)
 .comment       0x000041bc       0x42 /usr/local/lib/libcrypto.a(p5_pbev2.o)
 .comment       0x000041fe       0x42 /usr/local/lib/libcrypto.a(pem_all.o)
 .comment       0x00004240       0x42 /usr/local/lib/libcrypto.a(pem_err.o)
 .comment       0x00004282       0x42 /usr/local/lib/libcrypto.a(pem_x509.o)
 .comment       0x000042c4       0x42 /usr/local/lib/libcrypto.a(pem_oth.o)
 .comment       0x00004306       0x42 /usr/local/lib/libcrypto.a(pem_pkey.o)
 .comment       0x00004348       0x42 /usr/local/lib/libcrypto.a(x509_d2.o)
 .comment       0x0000438a       0x42 /usr/local/lib/libcrypto.a(x509_cmp.o)
 .comment       0x000043cc       0x42 /usr/local/lib/libcrypto.a(x509_obj.o)
 .comment       0x0000440e       0x42 /usr/local/lib/libcrypto.a(x509_vfy.o)
 .comment       0x00004450       0x42 /usr/local/lib/libcrypto.a(x509_err.o)
 .comment       0x00004492       0x42 /usr/local/lib/libcrypto.a(x509name.o)
 .comment       0x000044d4       0x42 /usr/local/lib/libcrypto.a(x509_v3.o)
 .comment       0x00004516       0x42 /usr/local/lib/libcrypto.a(x509_ext.o)
 .comment       0x00004558       0x42 /usr/local/lib/libcrypto.a(x509type.o)
 .comment       0x0000459a       0x42 /usr/local/lib/libcrypto.a(x509_lu.o)
 .comment       0x000045dc       0x42 /usr/local/lib/libcrypto.a(x_all.o)
 .comment       0x0000461e       0x42 /usr/local/lib/libcrypto.a(x509_txt.o)
 .comment       0x00004660       0x42 /usr/local/lib/libcrypto.a(x509_trs.o)
 .comment       0x000046a2       0x42 /usr/local/lib/libcrypto.a(by_file.o)
 .comment       0x000046e4       0x42 /usr/local/lib/libcrypto.a(by_dir.o)
 .comment       0x00004726       0x42 /usr/local/lib/libcrypto.a(x509_vpm.o)
 .comment       0x00004768       0x42 /usr/local/lib/libcrypto.a(v3_lib.o)
 .comment       0x000047aa       0x42 /usr/local/lib/libcrypto.a(v3_prn.o)
 .comment       0x000047ec       0x42 /usr/local/lib/libcrypto.a(v3_utl.o)
 .comment       0x0000482e       0x42 /usr/local/lib/libcrypto.a(v3err.o)
 .comment       0x00004870       0x42 /usr/local/lib/libcrypto.a(v3_genn.o)
 .comment       0x000048b2       0x42 /usr/local/lib/libcrypto.a(v3_alt.o)
 .comment       0x000048f4       0x42 /usr/local/lib/libcrypto.a(v3_skey.o)
 .comment       0x00004936       0x42 /usr/local/lib/libcrypto.a(v3_akey.o)
 .comment       0x00004978       0x42 /usr/local/lib/libcrypto.a(v3_pku.o)
 .comment       0x000049ba       0x42 /usr/local/lib/libcrypto.a(v3_int.o)
 .comment       0x000049fc       0x42 /usr/local/lib/libcrypto.a(v3_enum.o)
 .comment       0x00004a3e       0x42 /usr/local/lib/libcrypto.a(v3_sxnet.o)
 .comment       0x00004a80       0x42 /usr/local/lib/libcrypto.a(v3_cpols.o)
 .comment       0x00004ac2       0x42 /usr/local/lib/libcrypto.a(v3_crld.o)
 .comment       0x00004b04       0x42 /usr/local/lib/libcrypto.a(v3_purp.o)
 .comment       0x00004b46       0x42 /usr/local/lib/libcrypto.a(v3_info.o)
 .comment       0x00004b88       0x42 /usr/local/lib/libcrypto.a(v3_ocsp.o)
 .comment       0x00004bca       0x42 /usr/local/lib/libcrypto.a(v3_akeya.o)
 .comment       0x00004c0c       0x42 /usr/local/lib/libcrypto.a(v3_pmaps.o)
 .comment       0x00004c4e       0x42 /usr/local/lib/libcrypto.a(v3_pcons.o)
 .comment       0x00004c90       0x42 /usr/local/lib/libcrypto.a(v3_ncons.o)
 .comment       0x00004cd2       0x42 /usr/local/lib/libcrypto.a(v3_pcia.o)
 .comment       0x00004d14       0x42 /usr/local/lib/libcrypto.a(v3_pci.o)
 .comment       0x00004d56       0x42 /usr/local/lib/libcrypto.a(pcy_cache.o)
 .comment       0x00004d98       0x42 /usr/local/lib/libcrypto.a(pcy_data.o)
 .comment       0x00004dda       0x42 /usr/local/lib/libcrypto.a(pcy_map.o)
 .comment       0x00004e1c       0x42 /usr/local/lib/libcrypto.a(pcy_tree.o)
 .comment       0x00004e5e       0x42 /usr/local/lib/libcrypto.a(pcy_lib.o)
 .comment       0x00004ea0       0x42 /usr/local/lib/libcrypto.a(conf_err.o)
 .comment       0x00004ee2       0x42 /usr/local/lib/libcrypto.a(conf_mod.o)
 .comment       0x00004f24       0x42 /usr/local/lib/libcrypto.a(conf_mall.o)
 .comment       0x00004f66       0x42 /usr/local/lib/libcrypto.a(pk7_asn1.o)
 .comment       0x00004fa8       0x42 /usr/local/lib/libcrypto.a(pkcs7err.o)
 .comment       0x00004fea       0x42 /usr/local/lib/libcrypto.a(p12_asn.o)
 .comment       0x0000502c       0x42 /usr/local/lib/libcrypto.a(p12_crpt.o)
 .comment       0x0000506e       0x42 /usr/local/lib/libcrypto.a(p12_key.o)
 .comment       0x000050b0       0x42 /usr/local/lib/libcrypto.a(p12_kiss.o)
 .comment       0x000050f2       0x42 /usr/local/lib/libcrypto.a(p12_mutl.o)
 .comment       0x00005134       0x42 /usr/local/lib/libcrypto.a(p12_utl.o)
 .comment       0x00005176       0x42 /usr/local/lib/libcrypto.a(pk12err.o)
 .comment       0x000051b8       0x42 /usr/local/lib/libcrypto.a(p12_p8d.o)
 .comment       0x000051fa       0x42 /usr/local/lib/libcrypto.a(comp_lib.o)
 .comment       0x0000523c       0x42 /usr/local/lib/libcrypto.a(c_zlib.o)
 .comment       0x0000527e       0x42 /usr/local/lib/libcrypto.a(ocsp_asn.o)
 .comment       0x000052c0       0x42 /usr/local/lib/libcrypto.a(ocsp_cl.o)
 .comment       0x00005302       0x42 /usr/local/lib/libcrypto.a(ocsp_srv.o)
 .comment       0x00005344       0x42 /usr/local/lib/libcrypto.a(ocsp_prn.o)
 .comment       0x00005386       0x42 /usr/local/lib/libcrypto.a(ocsp_vfy.o)
 .comment       0x000053c8       0x42 /usr/local/lib/libcrypto.a(ocsp_err.o)
 .comment       0x0000540a       0x42 /usr/local/lib/libcrypto.a(ui_err.o)
 .comment       0x0000544c       0x42 /usr/local/lib/libcrypto.a(ui_lib.o)
 .comment       0x0000548e       0x42 /usr/local/lib/libcrypto.a(ui_openssl.o)
 .comment       0x000054d0       0x42 /usr/local/lib/libcrypto.a(cpt_err.o)
 .comment       0x00005512       0x42 /usr/local/lib/libcrypto.a(uid.o)
 .comment       0x00005554       0x42 /usr/local/lib/libcrypto.a(obj_err.o)
 .comment       0x00005596       0x42 /usr/local/lib/libcrypto.a(md2_dgst.o)
 .comment       0x000055d8       0x42 /usr/local/lib/libcrypto.a(sha1dgst.o)
 .comment       0x0000561a       0x42 /usr/local/lib/libcrypto.a(sha512.o)
 .comment       0x0000565c       0x42 /usr/local/lib/libcrypto.a(ecb3_enc.o)
 .comment       0x0000569e       0x42 /usr/local/lib/libcrypto.a(cfb64enc.o)
 .comment       0x000056e0       0x42 /usr/local/lib/libcrypto.a(cfb64ede.o)
 .comment       0x00005722       0x42 /usr/local/lib/libcrypto.a(cfb_enc.o)
 .comment       0x00005764       0x42 /usr/local/lib/libcrypto.a(ofb64ede.o)
 .comment       0x000057a6       0x42 /usr/local/lib/libcrypto.a(ofb64enc.o)
 .comment       0x000057e8       0x42 /usr/local/lib/libcrypto.a(aes_ecb.o)
 .comment       0x0000582a       0x42 /usr/local/lib/libcrypto.a(aes_cfb.o)
 .comment       0x0000586c       0x42 /usr/local/lib/libcrypto.a(aes_ofb.o)
 .comment       0x000058ae       0x42 /usr/local/lib/libcrypto.a(aes_core.o)
 .comment       0x000058f0       0x42 /usr/local/lib/libcrypto.a(aes_cbc.o)
 .comment       0x00005932       0x42 /usr/local/lib/libcrypto.a(rc2_ecb.o)
 .comment       0x00005974       0x42 /usr/local/lib/libcrypto.a(rc2_skey.o)
 .comment       0x000059b6       0x42 /usr/local/lib/libcrypto.a(rc2_cbc.o)
 .comment       0x000059f8       0x42 /usr/local/lib/libcrypto.a(rc2cfb64.o)
 .comment       0x00005a3a       0x42 /usr/local/lib/libcrypto.a(rc2ofb64.o)
 .comment       0x00005a7c       0x42 /usr/local/lib/libcrypto.a(rc4_enc.o)
 .comment       0x00005abe       0x42 /usr/local/lib/libcrypto.a(rc4_skey.o)
 .comment       0x00005b00       0x42 /usr/local/lib/libcrypto.a(i_cbc.o)
 .comment       0x00005b42       0x42 /usr/local/lib/libcrypto.a(i_cfb64.o)
 .comment       0x00005b84       0x42 /usr/local/lib/libcrypto.a(i_ofb64.o)
 .comment       0x00005bc6       0x42 /usr/local/lib/libcrypto.a(i_ecb.o)
 .comment       0x00005c08       0x42 /usr/local/lib/libcrypto.a(i_skey.o)
 .comment       0x00005c4a       0x42 /usr/local/lib/libcrypto.a(bn_add.o)
 .comment       0x00005c8c       0x42 /usr/local/lib/libcrypto.a(bn_exp.o)
 .comment       0x00005cce       0x42 /usr/local/lib/libcrypto.a(bn_mul.o)
 .comment       0x00005d10       0x42 /usr/local/lib/libcrypto.a(bn_mod.o)
 .comment       0x00005d52       0x42 /usr/local/lib/libcrypto.a(bn_rand.o)
 .comment       0x00005d94       0x42 /usr/local/lib/libcrypto.a(bn_blind.o)
 .comment       0x00005dd6       0x42 /usr/local/lib/libcrypto.a(bn_gcd.o)
 .comment       0x00005e18       0x42 /usr/local/lib/libcrypto.a(bn_prime.o)
 .comment       0x00005e5a       0x42 /usr/local/lib/libcrypto.a(bn_err.o)
 .comment       0x00005e9c       0x42 /usr/local/lib/libcrypto.a(bn_sqr.o)
 .comment       0x00005ede       0x42 /usr/local/lib/libcrypto.a(bn_recp.o)
 .comment       0x00005f20       0x42 /usr/local/lib/libcrypto.a(bn_mont.o)
 .comment       0x00005f62       0x42 /usr/local/lib/libcrypto.a(ec_cvt.o)
 .comment       0x00005fa4       0x42 /usr/local/lib/libcrypto.a(ec_err.o)
 .comment       0x00005fe6       0x42 /usr/local/lib/libcrypto.a(ec_print.o)
 .comment       0x00006028       0x42 /usr/local/lib/libcrypto.a(ec_asn1.o)
 .comment       0x0000606a       0x42 /usr/local/lib/libcrypto.a(ec2_smpl.o)
 .comment       0x000060ac       0x42 /usr/local/lib/libcrypto.a(ec2_mult.o)
 .comment       0x000060ee       0x42 /usr/local/lib/libcrypto.a(rsa_eay.o)
 .comment       0x00006130       0x42 /usr/local/lib/libcrypto.a(rsa_err.o)
 .comment       0x00006172       0x42 /usr/local/lib/libcrypto.a(rsa_pk1.o)
 .comment       0x000061b4       0x42 /usr/local/lib/libcrypto.a(rsa_ssl.o)
 .comment       0x000061f6       0x42 /usr/local/lib/libcrypto.a(rsa_none.o)
 .comment       0x00006238       0x42 /usr/local/lib/libcrypto.a(rsa_oaep.o)
 .comment       0x0000627a       0x42 /usr/local/lib/libcrypto.a(rsa_x931.o)
 .comment       0x000062bc       0x42 /usr/local/lib/libcrypto.a(dsa_lib.o)
 .comment       0x000062fe       0x42 /usr/local/lib/libcrypto.a(dsa_err.o)
 .comment       0x00006340       0x42 /usr/local/lib/libcrypto.a(dsa_ossl.o)
 .comment       0x00006382       0x42 /usr/local/lib/libcrypto.a(ecs_lib.o)
 .comment       0x000063c4       0x42 /usr/local/lib/libcrypto.a(ecs_asn1.o)
 .comment       0x00006406       0x42 /usr/local/lib/libcrypto.a(ecs_ossl.o)
 .comment       0x00006448       0x42 /usr/local/lib/libcrypto.a(ecs_vrf.o)
 .comment       0x0000648a       0x42 /usr/local/lib/libcrypto.a(ecs_err.o)
 .comment       0x000064cc       0x42 /usr/local/lib/libcrypto.a(dh_err.o)
 .comment       0x0000650e       0x42 /usr/local/lib/libcrypto.a(ech_lib.o)
 .comment       0x00006550       0x42 /usr/local/lib/libcrypto.a(ech_ossl.o)
 .comment       0x00006592       0x42 /usr/local/lib/libcrypto.a(ech_err.o)
 .comment       0x000065d4       0x42 /usr/local/lib/libcrypto.a(dso_err.o)
 .comment       0x00006616       0x42 /usr/local/lib/libcrypto.a(dso_lib.o)
 .comment       0x00006658       0x42 /usr/local/lib/libcrypto.a(dso_openssl.o)
 .comment       0x0000669a       0x42 /usr/local/lib/libcrypto.a(eng_err.o)
 .comment       0x000066dc       0x42 /usr/local/lib/libcrypto.a(eng_table.o)
 .comment       0x0000671e       0x42 /usr/local/lib/libcrypto.a(eng_cnf.o)
 .comment       0x00006760       0x42 /usr/local/lib/libcrypto.a(buf_err.o)
 .comment       0x000067a2       0x42 /usr/local/lib/libcrypto.a(bio_err.o)
 .comment       0x000067e4       0x42 /usr/local/lib/libcrypto.a(b_dump.o)
 .comment       0x00006826       0x42 /usr/local/lib/libcrypto.a(md_rand.o)
 .comment       0x00006868       0x42 /usr/local/lib/libcrypto.a(rand_err.o)
 .comment       0x000068aa       0x42 /usr/local/lib/libcrypto.a(rand_unix.o)
 .comment       0x000068ec       0x42 /usr/local/lib/libcrypto.a(err_bio.o)
 .comment       0x0000692e       0x42 /usr/local/lib/libcrypto.a(evp_cnf.o)
 .comment       0x00006970       0x42 /usr/local/lib/libcrypto.a(e_bf.o)
 .comment       0x000069b2       0x42 /usr/local/lib/libcrypto.a(e_xcbc_d.o)
 .comment       0x000069f4       0x42 /usr/local/lib/libcrypto.a(e_cast.o)
 .comment       0x00006a36       0x42 /usr/local/lib/libcrypto.a(m_md4.o)
 .comment       0x00006a78       0x42 /usr/local/lib/libcrypto.a(m_sha.o)
 .comment       0x00006aba       0x42 /usr/local/lib/libcrypto.a(m_dss.o)
 .comment       0x00006afc       0x42 /usr/local/lib/libcrypto.a(m_ripemd.o)
 .comment       0x00006b3e       0x42 /usr/local/lib/libcrypto.a(evp_pkey.o)
 .comment       0x00006b80       0x42 /usr/local/lib/libcrypto.a(a_bitstr.o)
 .comment       0x00006bc2       0x42 /usr/local/lib/libcrypto.a(a_utctm.o)
 .comment       0x00006c04       0x42 /usr/local/lib/libcrypto.a(a_gentm.o)
 .comment       0x00006c46       0x42 /usr/local/lib/libcrypto.a(a_time.o)
 .comment       0x00006c88       0x42 /usr/local/lib/libcrypto.a(a_octet.o)
 .comment       0x00006cca       0x42 /usr/local/lib/libcrypto.a(a_print.o)
 .comment       0x00006d0c       0x42 /usr/local/lib/libcrypto.a(a_set.o)
 .comment       0x00006d4e       0x42 /usr/local/lib/libcrypto.a(a_d2i_fp.o)
 .comment       0x00006d90       0x42 /usr/local/lib/libcrypto.a(a_i2d_fp.o)
 .comment       0x00006dd2       0x42 /usr/local/lib/libcrypto.a(a_enum.o)
 .comment       0x00006e14       0x42 /usr/local/lib/libcrypto.a(a_utf8.o)
 .comment       0x00006e56       0x42 /usr/local/lib/libcrypto.a(a_sign.o)
 .comment       0x00006e98       0x42 /usr/local/lib/libcrypto.a(a_digest.o)
 .comment       0x00006eda       0x42 /usr/local/lib/libcrypto.a(a_verify.o)
 .comment       0x00006f1c       0x42 /usr/local/lib/libcrypto.a(a_mbstr.o)
 .comment       0x00006f5e       0x42 /usr/local/lib/libcrypto.a(x_algor.o)
 .comment       0x00006fa0       0x42 /usr/local/lib/libcrypto.a(x_val.o)
 .comment       0x00006fe2       0x42 /usr/local/lib/libcrypto.a(x_req.o)
 .comment       0x00007024       0x42 /usr/local/lib/libcrypto.a(x_crl.o)
 .comment       0x00007066       0x42 /usr/local/lib/libcrypto.a(x_info.o)
 .comment       0x000070a8       0x42 /usr/local/lib/libcrypto.a(x_spki.o)
 .comment       0x000070ea       0x42 /usr/local/lib/libcrypto.a(nsseq.o)
 .comment       0x0000712c       0x42 /usr/local/lib/libcrypto.a(i2d_pr.o)
 .comment       0x0000716e       0x42 /usr/local/lib/libcrypto.a(f_int.o)
 .comment       0x000071b0       0x42 /usr/local/lib/libcrypto.a(f_string.o)
 .comment       0x000071f2       0x42 /usr/local/lib/libcrypto.a(x_pkey.o)
 .comment       0x00007234       0x42 /usr/local/lib/libcrypto.a(a_bool.o)
 .comment       0x00007276       0x42 /usr/local/lib/libcrypto.a(asn1_gen.o)
 .comment       0x000072b8       0x42 /usr/local/lib/libcrypto.a(a_bytes.o)
 .comment       0x000072fa       0x42 /usr/local/lib/libcrypto.a(a_strnid.o)
 .comment       0x0000733c       0x42 /usr/local/lib/libcrypto.a(asn_pack.o)
 .comment       0x0000737e       0x42 /usr/local/lib/libcrypto.a(p8_pkey.o)
 .comment       0x000073c0       0x42 /usr/local/lib/libcrypto.a(asn_moid.o)
 .comment       0x00007402       0x42 /usr/local/lib/libcrypto.a(pem_info.o)
 .comment       0x00007444       0x42 /usr/local/lib/libcrypto.a(pem_lib.o)
 .comment       0x00007486       0x42 /usr/local/lib/libcrypto.a(pem_xaux.o)
 .comment       0x000074c8       0x42 /usr/local/lib/libcrypto.a(x509_def.o)
 .comment       0x0000750a       0x42 /usr/local/lib/libcrypto.a(x509_req.o)
 .comment       0x0000754c       0x42 /usr/local/lib/libcrypto.a(x509rset.o)
 .comment       0x0000758e       0x42 /usr/local/lib/libcrypto.a(x509_att.o)
 .comment       0x000075d0       0x42 /usr/local/lib/libcrypto.a(v3_bcons.o)
 .comment       0x00007612       0x42 /usr/local/lib/libcrypto.a(v3_bitst.o)
 .comment       0x00007654       0x42 /usr/local/lib/libcrypto.a(v3_conf.o)
 .comment       0x00007696       0x42 /usr/local/lib/libcrypto.a(v3_extku.o)
 .comment       0x000076d8       0x42 /usr/local/lib/libcrypto.a(v3_ia5.o)
 .comment       0x0000771a       0x42 /usr/local/lib/libcrypto.a(pcy_node.o)
 .comment       0x0000775c       0x42 /usr/local/lib/libcrypto.a(conf_lib.o)
 .comment       0x0000779e       0x42 /usr/local/lib/libcrypto.a(conf_api.o)
 .comment       0x000077e0       0x42 /usr/local/lib/libcrypto.a(conf_def.o)
 .comment       0x00007822       0x42 /usr/local/lib/libcrypto.a(p12_add.o)
 .comment       0x00007864       0x42 /usr/local/lib/libcrypto.a(p12_attr.o)
 .comment       0x000078a6       0x42 /usr/local/lib/libcrypto.a(p12_decr.o)
 .comment       0x000078e8       0x42 /usr/local/lib/libcrypto.a(p12_p8e.o)
 .comment       0x0000792a       0x42 /usr/local/lib/libcrypto.a(ocsp_lib.o)
 .comment       0x0000796c       0x42 /usr/local/lib/libcrypto.a(o_time.o)
 .comment       0x000079ae       0x42 /usr/local/lib/libcrypto.a(sha_dgst.o)
 .comment       0x000079f0       0x42 /usr/local/lib/libcrypto.a(rmd_dgst.o)
 .comment       0x00007a32       0x42 /usr/local/lib/libcrypto.a(xcbc_enc.o)
 .comment       0x00007a74       0x42 /usr/local/lib/libcrypto.a(bf_skey.o)
 .comment       0x00007ab6       0x42 /usr/local/lib/libcrypto.a(bf_ecb.o)
 .comment       0x00007af8       0x42 /usr/local/lib/libcrypto.a(bf_enc.o)
 .comment       0x00007b3a       0x42 /usr/local/lib/libcrypto.a(bf_cfb64.o)
 .comment       0x00007b7c       0x42 /usr/local/lib/libcrypto.a(bf_ofb64.o)
 .comment       0x00007bbe       0x42 /usr/local/lib/libcrypto.a(c_skey.o)
 .comment       0x00007c00       0x42 /usr/local/lib/libcrypto.a(c_ecb.o)
 .comment       0x00007c42       0x42 /usr/local/lib/libcrypto.a(c_enc.o)
 .comment       0x00007c84       0x42 /usr/local/lib/libcrypto.a(c_cfb64.o)
 .comment       0x00007cc6       0x42 /usr/local/lib/libcrypto.a(c_ofb64.o)
 .comment       0x00007d08       0x42 /usr/local/lib/libcrypto.a(bn_div.o)
 .comment       0x00007d4a       0x42 /usr/local/lib/libcrypto.a(bn_exp2.o)
 .comment       0x00007d8c       0x42 /usr/local/lib/libcrypto.a(bn_gf2m.o)
 .comment       0x00007dce       0x42 /usr/local/lib/libcrypto.a(ecp_mont.o)
 .comment       0x00007e10       0x42 /usr/local/lib/libcrypto.a(ecp_nist.o)
 .comment       0x00007e52       0x42 /usr/local/lib/libcrypto.a(dso_null.o)
 .comment       0x00007e94       0x42 /usr/local/lib/libcrypto.a(encode.o)
 .comment       0x00007ed6       0x42 /usr/local/lib/libcrypto.a(evp_key.o)
 .comment       0x00007f18       0x42 /usr/local/lib/libcrypto.a(pk7_lib.o)
 .comment       0x00007f5a       0x42 /usr/local/lib/libcrypto.a(bn_nist.o)
 .comment       0x00007f9c       0x42 /usr/local/lib/libcrypto.a(ecp_smpl.o)
 .comment       0x00007fde       0x42 /usr/local/lib/libcrypto.a(bn_kron.o)
 .comment       0x00008020       0x42 /usr/local/lib/libcrypto.a(bn_sqrt.o)
 .comment       0x00008062       0x3a /usr/local/lib/libz.a(deflate.o)
 .comment       0x0000809c       0x3a /usr/local/lib/libz.a(trees.o)
 .comment       0x000080d6       0x3a /usr/local/lib/libz.a(zutil.o)
 .comment       0x00008110       0x3a /usr/local/lib/libz.a(inflate.o)
 .comment       0x0000814a       0x3a /usr/local/lib/libz.a(inftrees.o)
 .comment       0x00008184       0x3a /usr/local/lib/libz.a(inffast.o)
 .comment       0x000081be       0x3a /usr/local/lib/libz.a(adler32.o)
 .comment       0x000081f8       0x3a /usr/local/lib/libz.a(compress.o)
 .comment       0x00008232       0x3a /usr/local/lib/libz.a(crc32.o)
 .comment       0x0000826c       0x35 /usr/local/lib/libgen.a(basename.o)
 .comment       0x000082a1       0x35 /gg/lib/gcc-lib/ppc-morphos/2.95.3/libnix/libgcc.a(_divdi3.o)
 .comment       0x000082d6       0x35 /gg/lib/gcc-lib/ppc-morphos/2.95.3/libnix/libgcc.a(_eprintf.o)
 .comment       0x0000830b       0x35 /gg/lib/gcc-lib/ppc-morphos/2.95.3/libnix/libgcc.a(_fixdfdi.o)
 .comment       0x00008340       0x35 /gg/lib/gcc-lib/ppc-morphos/2.95.3/libnix/libgcc.a(_fixunsdfdi.o)
 .comment       0x00008375       0x35 /gg/lib/gcc-lib/ppc-morphos/2.95.3/libnix/libgcc.a(_floatdidf.o)
 .comment       0x000083aa       0x35 /gg/lib/gcc-lib/ppc-morphos/2.95.3/libnix/libgcc.a(_udivdi3.o)
 .comment       0x000083df       0x35 /gg/lib/gcc-lib/ppc-morphos/2.95.3/libnix/libgcc.a(_umoddi3.o)
 .comment       0x00008414       0x35 /gg/lib/gcc-lib/ppc-morphos/2.95.3/libnix/libgcc.a(_cmpdi2.o)
 .comment       0x00008449       0x35 /gg/ppc-morphos/lib/libnix/libc.a(__nocommandline.o)
 .comment       0x0000847e       0x35 /gg/ppc-morphos/lib/libnix/libc.a(printf.o)
 .comment       0x000084b3       0x35 /gg/ppc-morphos/lib/libnix/libc.a(vfprintf.o)
 .comment       0x000084e8       0x35 /gg/ppc-morphos/lib/libnix/libc.a(vprintf.o)
 .comment       0x0000851d       0x35 /gg/ppc-morphos/lib/libnix/libc.a(__stdio.o)
 .comment       0x00008552       0x35 /gg/ppc-morphos/lib/libnix/libc.a(fopen.o)
 .comment       0x00008587       0x35 /gg/ppc-morphos/lib/libnix/libc.a(calloc.o)
 .comment       0x000085bc       0x35 /gg/ppc-morphos/lib/libnix/libc.a(malloc.o)
 .comment       0x000085f1       0x35 /gg/ppc-morphos/lib/libnix/libc.a(_MSTEP.o)
 .comment       0x00008626       0x35 /gg/ppc-morphos/lib/libnix/libc.a(freopen.o)
 .comment       0x0000865b       0x35 /gg/ppc-morphos/lib/libnix/libc.a(free.o)
 .comment       0x00008690       0x35 /gg/ppc-morphos/lib/libnix/libc.a(errno.o)
 .comment       0x000086c5       0x35 /gg/ppc-morphos/lib/libnix/libc.a(__fflush.o)
 .comment       0x000086fa       0x35 /gg/ppc-morphos/lib/libnix/libc.a(open.o)
 .comment       0x0000872f       0x35 /gg/ppc-morphos/lib/libnix/libc.a(__isatty.o)
 .comment       0x00008764       0x35 /gg/ppc-morphos/lib/libnix/libc.a(__seterrno.o)
 .comment       0x00008799       0x35 /gg/ppc-morphos/lib/libnix/libc.a(_ctype_.o)
 .comment       0x000087ce       0x35 /gg/ppc-morphos/lib/libnix/libc.a(fputc.o)
 .comment       0x00008803       0x35 /gg/ppc-morphos/lib/libnix/libc.a(__swbuf.o)
 .comment       0x00008838       0x35 /gg/ppc-morphos/lib/libnix/libc.a(realloc.o)
 .comment       0x0000886d       0x35 /gg/ppc-morphos/lib/libnix/libc.a(signal.o)
 .comment       0x000088a2       0x35 /gg/ppc-morphos/lib/libnix/libc.a(__signalfunc.o)
 .comment       0x000088d7       0x35 /gg/ppc-morphos/lib/libnix/libc.a(memset.o)
 .comment       0x0000890c       0x35 /gg/ppc-morphos/lib/libnix/libc.a(time.o)
 .comment       0x00008941       0x35 /gg/ppc-morphos/lib/libnix/libc.a(fread.o)
 .comment       0x00008976       0x35 /gg/ppc-morphos/lib/libnix/libc.a(strerror.o)
 .comment       0x000089ab       0x35 /gg/ppc-morphos/lib/libnix/libc.a(ftell.o)
 .comment       0x000089e0       0x35 /gg/ppc-morphos/lib/libnix/libc.a(fseek.o)
 .comment       0x00008a15       0x35 /gg/ppc-morphos/lib/libnix/libc.a(fwrite.o)
 .comment       0x00008a4a       0x35 /gg/ppc-morphos/lib/libnix/libc.a(__gmtoffset.o)
 .comment       0x00008a7f       0x35 /gg/ppc-morphos/lib/libnix/libc.a(strtod.o)
 .comment       0x00008ab4       0x35 /gg/ppc-morphos/lib/libnix/libc.a(abort.o)
 .comment       0x00008ae9       0x35 /gg/ppc-morphos/lib/libnix/libc.a(atoi.o)
 .comment       0x00008b1e       0x35 /gg/ppc-morphos/lib/libnix/libc.a(qsort.o)
 .comment       0x00008b53       0x35 /gg/ppc-morphos/lib/libnix/libc.a(strtol.o)
 .comment       0x00008b88       0x35 /gg/ppc-morphos/lib/libnix/libc.a(strtoul.o)
 .comment       0x00008bbd       0x35 /gg/ppc-morphos/lib/libnix/libc.a(getenv.o)
 .comment       0x00008bf2       0x35 /gg/ppc-morphos/lib/libnix/libc.a(localtime.o)
 .comment       0x00008c27       0x35 /gg/ppc-morphos/lib/libnix/libc.a(gmtime.o)
 .comment       0x00008c5c       0x35 /gg/ppc-morphos/lib/libnix/libc.a(fflush.o)
 .comment       0x00008c91       0x35 /gg/ppc-morphos/lib/libnix/libc.a(fgets.o)
 .comment       0x00008cc6       0x35 /gg/ppc-morphos/lib/libnix/libc.a(fprintf.o)
 .comment       0x00008cfb       0x35 /gg/ppc-morphos/lib/libnix/libc.a(fputs.o)
 .comment       0x00008d30       0x35 /gg/ppc-morphos/lib/libnix/libc.a(memchr.o)
 .comment       0x00008d65       0x35 /gg/ppc-morphos/lib/libnix/libc.a(memcmp.o)
 .comment       0x00008d9a       0x35 /gg/ppc-morphos/lib/libnix/libc.a(memmove.o)
 .comment       0x00008dcf       0x35 /gg/ppc-morphos/lib/libnix/libc.a(bcopy.o)
 .comment       0x00008e04       0x35 /gg/ppc-morphos/lib/libnix/libc.a(puts.o)
 .comment       0x00008e39       0x35 /gg/ppc-morphos/lib/libnix/libc.a(setvbuf.o)
 .comment       0x00008e6e       0x35 /gg/ppc-morphos/lib/libnix/libc.a(sprintf.o)
 .comment       0x00008ea3       0x35 /gg/ppc-morphos/lib/libnix/libc.a(sscanf.o)
 .comment       0x00008ed8       0x35 /gg/ppc-morphos/lib/libnix/libc.a(strcat.o)
 .comment       0x00008f0d       0x35 /gg/ppc-morphos/lib/libnix/libc.a(strchr.o)
 .comment       0x00008f42       0x35 /gg/ppc-morphos/lib/libnix/libc.a(strcmp.o)
 .comment       0x00008f77       0x35 /gg/ppc-morphos/lib/libnix/libc.a(strcpy.o)
 .comment       0x00008fac       0x35 /gg/ppc-morphos/lib/libnix/libc.a(strcspn.o)
 .comment       0x00008fe1       0x35 /gg/ppc-morphos/lib/libnix/libc.a(strlen.o)
 .comment       0x00009016       0x35 /gg/ppc-morphos/lib/libnix/libc.a(strncmp.o)
 .comment       0x0000904b       0x35 /gg/ppc-morphos/lib/libnix/libc.a(strncpy.o)
 .comment       0x00009080       0x35 /gg/ppc-morphos/lib/libnix/libc.a(strpbrk.o)
 .comment       0x000090b5       0x35 /gg/ppc-morphos/lib/libnix/libc.a(strrchr.o)
 .comment       0x000090ea       0x35 /gg/ppc-morphos/lib/libnix/libc.a(strstr.o)
 .comment       0x0000911f       0x35 /gg/ppc-morphos/lib/libnix/libc.a(strtok.o)
 .comment       0x00009154       0x35 /gg/ppc-morphos/lib/libnix/libc.a(memcpy.o)
 .comment       0x00009189       0x35 /gg/ppc-morphos/lib/libnix/libc.a(vsprintf.o)
 .comment       0x000091be       0x35 /gg/ppc-morphos/lib/libnix/libc.a(vsscanf.o)
 .comment       0x000091f3       0x35 /gg/ppc-morphos/lib/libnix/libc.a(dirent.o)
 .comment       0x00009228       0x35 /gg/ppc-morphos/lib/libnix/libc.a(stat.o)
 .comment       0x0000925d       0x35 /gg/ppc-morphos/lib/libnix/libc.a(__stat.o)
 .comment       0x00009292       0x35 /gg/ppc-morphos/lib/libnix/libc.a(access.o)
 .comment       0x000092c7       0x35 /gg/ppc-morphos/lib/libnix/libc.a(fstat.o)
 .comment       0x000092fc       0x35 /gg/ppc-morphos/lib/libnix/libc.a(bzero.o)
 .comment       0x00009331       0x35 /gg/ppc-morphos/lib/libnix/libc.a(strdup.o)
 .comment       0x00009366       0x35 /gg/ppc-morphos/lib/libnix/libc.a(gettimeofday.o)
 .comment       0x0000939b       0x35 /gg/ppc-morphos/lib/libnix/libc.a(mkdir.o)
 .comment       0x000093d0       0x35 /gg/ppc-morphos/lib/libnix/libc.a(strtoll.o)
 .comment       0x00009405       0x35 /gg/ppc-morphos/lib/libnix/libc.a(strtoull.o)
 .comment       0x0000943a       0x35 /gg/ppc-morphos/lib/libnix/libc.a(__stdv37.o)
 .comment       0x0000946f       0x35 /gg/ppc-morphos/lib/libnix/libc.a(__stdwin.o)
 .comment       0x000094a4       0x35 /gg/ppc-morphos/lib/libnix/libc.a(semaphore.o)
 .comment       0x000094d9       0x35 /gg/ppc-morphos/lib/libnix/libc.a(write.o)
 .comment       0x0000950e       0x35 /gg/ppc-morphos/lib/libnix/libc.a(read.o)
 .comment       0x00009543       0x35 /gg/ppc-morphos/lib/libnix/libc.a(lseek.o)
 .comment       0x00009578       0x35 /gg/ppc-morphos/lib/libnix/libc.a(lseek64.o)
 .comment       0x000095ad       0x35 /gg/ppc-morphos/lib/libnix/libc.a(chmod.o)
 .comment       0x000095e2       0x35 /gg/ppc-morphos/lib/libnix/libc.a(destructors.o)
 .comment       0x00009617       0x35 /gg/ppc-morphos/lib/libnix/libc.a(printfshared.o)
 .comment       0x0000964c       0x35 /gg/ppc-morphos/lib/libnix/libc.a(__chkabort.o)
 .comment       0x00009681       0x35 /gg/ppc-morphos/lib/libnix/libc.a(raise.o)
 .comment       0x000096b6       0x35 /gg/ppc-morphos/lib/libnix/libc.a(isinf.o)
 .comment       0x000096eb       0x35 /gg/ppc-morphos/lib/libnix/libc.a(isnan.o)
 .comment       0x00009720       0x35 /gg/ppc-morphos/lib/libnix/libc.a(__decimalpoint.o)
 .comment       0x00009755       0x35 /gg/ppc-morphos/lib/libnix/libc.a(scanfshared.o)
 .comment       0x0000978a       0x35 /gg/ppc-morphos/lib/libnix/libc.a(fgetc.o)
 .comment       0x000097bf       0x35 /gg/ppc-morphos/lib/libnix/libc.a(__srget.o)
 .comment       0x000097f4       0x35 /gg/ppc-morphos/lib/libnix/libc.a(__localevec.o)
 .comment       0x00009829       0x35 /gg/ppc-morphos/lib/libnix/libc.a(strspn.o)
 .comment       0x0000985e       0x35 /gg/ppc-morphos/lib/libnix/libauto.a(SocketBase.o)
 .comment       0x00009893       0x35 /gg/ppc-morphos/lib/libnix/libauto.a(UserGroupBase.o)
 .comment       0x000098c8       0x35 /gg/ppc-morphos/lib/libnix/libauto.a(__initlibraries.o)
 .comment       0x000098fd       0x35 /gg/ppc-morphos/lib/libnix/libauto.a(__openliberror.o)
 .comment       0x00009932       0x35 /gg/ppc-morphos/lib/libnix/libauto.a(__oslibversion.o)

Cross Reference Table

Symbol                                            File
ACCESS_DESCRIPTION_free                           /usr/local/lib/libcrypto.a(v3_info.o)
ACCESS_DESCRIPTION_it                             /usr/local/lib/libcrypto.a(v3_info.o)
                                                  /usr/local/lib/libcrypto.a(ocsp_asn.o)
ACCESS_DESCRIPTION_new                            /usr/local/lib/libcrypto.a(v3_info.o)
AES_cbc_encrypt                                   /usr/local/lib/libcrypto.a(aes_cbc.o)
                                                  /usr/local/lib/libcrypto.a(e_aes.o)
AES_cfb128_encrypt                                /usr/local/lib/libcrypto.a(aes_cfb.o)
                                                  /usr/local/lib/libcrypto.a(e_aes.o)
AES_cfb1_encrypt                                  /usr/local/lib/libcrypto.a(aes_cfb.o)
                                                  /usr/local/lib/libcrypto.a(e_aes.o)
AES_cfb8_encrypt                                  /usr/local/lib/libcrypto.a(aes_cfb.o)
                                                  /usr/local/lib/libcrypto.a(e_aes.o)
AES_cfbr_encrypt_block                            /usr/local/lib/libcrypto.a(aes_cfb.o)
AES_decrypt                                       /usr/local/lib/libcrypto.a(aes_core.o)
                                                  /usr/local/lib/libcrypto.a(aes_cbc.o)
                                                  /usr/local/lib/libcrypto.a(aes_ecb.o)
AES_ecb_encrypt                                   /usr/local/lib/libcrypto.a(aes_ecb.o)
                                                  /usr/local/lib/libcrypto.a(e_aes.o)
AES_encrypt                                       /usr/local/lib/libcrypto.a(aes_core.o)
                                                  /usr/local/lib/libcrypto.a(aes_cbc.o)
                                                  /usr/local/lib/libcrypto.a(aes_ofb.o)
                                                  /usr/local/lib/libcrypto.a(aes_cfb.o)
                                                  /usr/local/lib/libcrypto.a(aes_ecb.o)
AES_ofb128_encrypt                                /usr/local/lib/libcrypto.a(aes_ofb.o)
                                                  /usr/local/lib/libcrypto.a(e_aes.o)
AES_set_decrypt_key                               /usr/local/lib/libcrypto.a(aes_core.o)
                                                  /usr/local/lib/libcrypto.a(e_aes.o)
AES_set_encrypt_key                               /usr/local/lib/libcrypto.a(aes_core.o)
                                                  /usr/local/lib/libcrypto.a(e_aes.o)
ASN1_ANY_it                                       /usr/local/lib/libcrypto.a(tasn_typ.o)
                                                  /usr/local/lib/libcrypto.a(p8_pkey.o)
                                                  /usr/local/lib/libcrypto.a(x_algor.o)
                                                  /usr/local/lib/libcrypto.a(ec_asn1.o)
                                                  /usr/local/lib/libcrypto.a(p12_asn.o)
                                                  /usr/local/lib/libcrypto.a(pk7_asn1.o)
                                                  /usr/local/lib/libcrypto.a(v3_cpols.o)
                                                  /usr/local/lib/libcrypto.a(v3_genn.o)
                                                  /usr/local/lib/libcrypto.a(p5_pbev2.o)
                                                  /usr/local/lib/libcrypto.a(x_attrib.o)
ASN1_BIT_STRING_free                              /usr/local/lib/libcrypto.a(tasn_typ.o)
                                                  /usr/local/lib/libcrypto.a(ec_asn1.o)
                                                  /usr/local/lib/libcrypto.a(v3_purp.o)
ASN1_BIT_STRING_get_bit                           /usr/local/lib/libcrypto.a(a_bitstr.o)
                                                  /usr/local/lib/libcrypto.a(v3_bitst.o)
ASN1_BIT_STRING_it                                /usr/local/lib/libcrypto.a(tasn_typ.o)
                                                  /usr/local/lib/libcrypto.a(v3_bitst.o)
                                                  /usr/local/lib/libcrypto.a(x_spki.o)
                                                  /usr/local/lib/libcrypto.a(x_crl.o)
                                                  /usr/local/lib/libcrypto.a(x_req.o)
                                                  /usr/local/lib/libcrypto.a(ec_asn1.o)
                                                  /usr/local/lib/libcrypto.a(ocsp_asn.o)
                                                  /usr/local/lib/libcrypto.a(v3_crld.o)
                                                  /usr/local/lib/libcrypto.a(x_x509.o)
                                                  /usr/local/lib/libcrypto.a(x_pubkey.o)
ASN1_BIT_STRING_new                               /usr/local/lib/libcrypto.a(tasn_typ.o)
                                                  /usr/local/lib/libcrypto.a(ec_asn1.o)
ASN1_BIT_STRING_set                               /usr/local/lib/libcrypto.a(a_bitstr.o)
                                                  /usr/local/lib/libcrypto.a(ec_asn1.o)
ASN1_BIT_STRING_set_bit                           /usr/local/lib/libcrypto.a(a_bitstr.o)
                                                  /usr/local/lib/libcrypto.a(v3_bitst.o)
                                                  /usr/local/lib/libcrypto.a(asn1_gen.o)
ASN1_BMPSTRING_free                               /usr/local/lib/libcrypto.a(tasn_typ.o)
ASN1_BMPSTRING_it                                 /usr/local/lib/libcrypto.a(tasn_typ.o)
ASN1_BMPSTRING_new                                /usr/local/lib/libcrypto.a(tasn_typ.o)
ASN1_BOOLEAN_it                                   /usr/local/lib/libcrypto.a(tasn_typ.o)
                                                  /usr/local/lib/libcrypto.a(x_exten.o)
ASN1_ENUMERATED_free                              /usr/local/lib/libcrypto.a(tasn_typ.o)
ASN1_ENUMERATED_get                               /usr/local/lib/libcrypto.a(a_enum.o)
                                                  /usr/local/lib/libcrypto.a(ocsp_prn.o)
                                                  /usr/local/lib/libcrypto.a(ocsp_cl.o)
                                                  /usr/local/lib/libcrypto.a(v3_enum.o)
ASN1_ENUMERATED_it                                /usr/local/lib/libcrypto.a(tasn_typ.o)
                                                  /usr/local/lib/libcrypto.a(ocsp_asn.o)
                                                  /usr/local/lib/libcrypto.a(v3_enum.o)
ASN1_ENUMERATED_new                               /usr/local/lib/libcrypto.a(tasn_typ.o)
                                                  /usr/local/lib/libcrypto.a(ocsp_srv.o)
ASN1_ENUMERATED_set                               /usr/local/lib/libcrypto.a(a_enum.o)
                                                  /usr/local/lib/libcrypto.a(ocsp_srv.o)
ASN1_ENUMERATED_to_BN                             /usr/local/lib/libcrypto.a(a_enum.o)
                                                  /usr/local/lib/libcrypto.a(v3_utl.o)
ASN1_FBOOLEAN_it                                  /usr/local/lib/libcrypto.a(tasn_typ.o)
                                                  /usr/local/lib/libcrypto.a(v3_bcons.o)
ASN1_GENERALIZEDTIME_check                        /usr/local/lib/libcrypto.a(a_gentm.o)
                                                  /usr/local/lib/libcrypto.a(a_time.o)
                                                  /usr/local/lib/libcrypto.a(ocsp_cl.o)
ASN1_GENERALIZEDTIME_free                         /usr/local/lib/libcrypto.a(tasn_typ.o)
ASN1_GENERALIZEDTIME_it                           /usr/local/lib/libcrypto.a(tasn_typ.o)
                                                  /usr/local/lib/libcrypto.a(ocsp_asn.o)
                                                  /usr/local/lib/libcrypto.a(v3_ocsp.o)
                                                  /usr/local/lib/libcrypto.a(v3_pku.o)
ASN1_GENERALIZEDTIME_new                          /usr/local/lib/libcrypto.a(tasn_typ.o)
                                                  /usr/local/lib/libcrypto.a(a_time.o)
ASN1_GENERALIZEDTIME_print                        /usr/local/lib/libcrypto.a(t_x509.o)
                                                  /usr/local/lib/libcrypto.a(ocsp_prn.o)
                                                  /usr/local/lib/libcrypto.a(v3_ocsp.o)
                                                  /usr/local/lib/libcrypto.a(v3_pku.o)
ASN1_GENERALIZEDTIME_set                          /usr/local/lib/libcrypto.a(a_gentm.o)
                                                  /usr/local/lib/libcrypto.a(a_time.o)
                                                  /usr/local/lib/libcrypto.a(x509_vfy.o)
ASN1_GENERALIZEDTIME_set_string                   /usr/local/lib/libcrypto.a(a_gentm.o)
ASN1_GENERALSTRING_free                           /usr/local/lib/libcrypto.a(tasn_typ.o)
ASN1_GENERALSTRING_it                             /usr/local/lib/libcrypto.a(tasn_typ.o)
ASN1_GENERALSTRING_new                            /usr/local/lib/libcrypto.a(tasn_typ.o)
ASN1_IA5STRING_free                               /usr/local/lib/libcrypto.a(tasn_typ.o)
ASN1_IA5STRING_it                                 /usr/local/lib/libcrypto.a(tasn_typ.o)
                                                  /usr/local/lib/libcrypto.a(v3_ia5.o)
                                                  /usr/local/lib/libcrypto.a(x_spki.o)
                                                  /usr/local/lib/libcrypto.a(ocsp_asn.o)
                                                  /usr/local/lib/libcrypto.a(p12_asn.o)
                                                  /usr/local/lib/libcrypto.a(v3_cpols.o)
                                                  /usr/local/lib/libcrypto.a(v3_genn.o)
ASN1_IA5STRING_new                                /usr/local/lib/libcrypto.a(tasn_typ.o)
ASN1_INTEGER_cmp                                  /usr/local/lib/libcrypto.a(a_int.o)
                                                  /usr/local/lib/libcrypto.a(ocsp_lib.o)
                                                  /usr/local/lib/libcrypto.a(v3_purp.o)
ASN1_INTEGER_dup                                  /usr/local/lib/libcrypto.a(a_int.o)
                                                  /usr/local/lib/libcrypto.a(ocsp_lib.o)
ASN1_INTEGER_free                                 /usr/local/lib/libcrypto.a(tasn_typ.o)
                                                  /usr/local/lib/libcrypto.a(ocsp_lib.o)
                                                  /usr/local/lib/libcrypto.a(evp_pkey.o)
                                                  /usr/local/lib/libcrypto.a(pcy_cache.o)
                                                  /usr/local/lib/libcrypto.a(v3_pci.o)
ASN1_INTEGER_get                                  /usr/local/lib/libcrypto.a(a_int.o)
                                                  /usr/local/lib/libcrypto.a(ec_asn1.o)
                                                  /usr/local/lib/libcrypto.a(ocsp_prn.o)
                                                  /usr/local/lib/libcrypto.a(p12_mutl.o)
                                                  /usr/local/lib/libcrypto.a(p12_crpt.o)
                                                  /usr/local/lib/libcrypto.a(pcy_cache.o)
                                                  /usr/local/lib/libcrypto.a(v3_purp.o)
                                                  /usr/local/lib/libcrypto.a(v3_sxnet.o)
                                                  /usr/local/lib/libcrypto.a(evp_asn1.o)
                                                  /usr/local/lib/libcrypto.a(tasn_utl.o)
                                                  /usr/local/lib/libcrypto.a(t_x509.o)
                                                  /usr/local/lib/libcrypto.a(p5_crpt2.o)
                                                  /usr/local/lib/libcrypto.a(p5_crpt.o)
                                                  /usr/local/lib/libssl.a(ssl_asn1.o)
                                                  ../lib/.libs/libcurl.a(libcurl_la-openssl.o)
ASN1_INTEGER_it                                   /usr/local/lib/libcrypto.a(tasn_typ.o)
                                                  /usr/local/lib/libcrypto.a(v3_bcons.o)
                                                  /usr/local/lib/libcrypto.a(p8_pkey.o)
                                                  /usr/local/lib/libcrypto.a(x_crl.o)
                                                  /usr/local/lib/libcrypto.a(x_req.o)
                                                  /usr/local/lib/libcrypto.a(ec_asn1.o)
                                                  /usr/local/lib/libcrypto.a(ocsp_asn.o)
                                                  /usr/local/lib/libcrypto.a(p12_asn.o)
                                                  /usr/local/lib/libcrypto.a(pk7_asn1.o)
                                                  /usr/local/lib/libcrypto.a(v3_pcia.o)
                                                  /usr/local/lib/libcrypto.a(v3_ncons.o)
                                                  /usr/local/lib/libcrypto.a(v3_pcons.o)
                                                  /usr/local/lib/libcrypto.a(v3_akeya.o)
                                                  /usr/local/lib/libcrypto.a(v3_cpols.o)
                                                  /usr/local/lib/libcrypto.a(v3_sxnet.o)
                                                  /usr/local/lib/libcrypto.a(v3_int.o)
                                                  /usr/local/lib/libcrypto.a(p5_pbev2.o)
                                                  /usr/local/lib/libcrypto.a(p5_pbe.o)
                                                  /usr/local/lib/libcrypto.a(x_x509.o)
ASN1_INTEGER_new                                  /usr/local/lib/libcrypto.a(tasn_typ.o)
                                                  /usr/local/lib/libcrypto.a(ec_asn1.o)
ASN1_INTEGER_set                                  /usr/local/lib/libcrypto.a(a_int.o)
                                                  /usr/local/lib/libcrypto.a(pk7_lib.o)
                                                  /usr/local/lib/libcrypto.a(x509rset.o)
                                                  /usr/local/lib/libcrypto.a(evp_pkey.o)
                                                  /usr/local/lib/libcrypto.a(ec_asn1.o)
                                                  /usr/local/lib/libcrypto.a(p12_mutl.o)
                                                  /usr/local/lib/libcrypto.a(v3_sxnet.o)
                                                  /usr/local/lib/libcrypto.a(p5_pbev2.o)
                                                  /usr/local/lib/libcrypto.a(p5_pbe.o)
                                                  /usr/local/lib/libcrypto.a(evp_asn1.o)
                                                  /usr/local/lib/libssl.a(ssl_asn1.o)
ASN1_INTEGER_to_BN                                /usr/local/lib/libcrypto.a(a_int.o)
                                                  /usr/local/lib/libcrypto.a(evp_pkey.o)
                                                  /usr/local/lib/libcrypto.a(ec_asn1.o)
                                                  /usr/local/lib/libcrypto.a(v3_utl.o)
ASN1_NULL_free                                    /usr/local/lib/libcrypto.a(tasn_typ.o)
ASN1_NULL_it                                      /usr/local/lib/libcrypto.a(tasn_typ.o)
                                                  /usr/local/lib/libcrypto.a(ec_asn1.o)
                                                  /usr/local/lib/libcrypto.a(ocsp_asn.o)
                                                  /usr/local/lib/libcrypto.a(v3_ocsp.o)
ASN1_NULL_new                                     /usr/local/lib/libcrypto.a(tasn_typ.o)
                                                  /usr/local/lib/libcrypto.a(ec_asn1.o)
                                                  /usr/local/lib/libcrypto.a(ocsp_srv.o)
                                                  /usr/local/lib/libcrypto.a(v3_ocsp.o)
ASN1_OBJECT_create                                /usr/local/lib/libcrypto.a(a_object.o)
                                                  /usr/local/lib/libcrypto.a(obj_dat.o)
ASN1_OBJECT_free                                  /usr/local/lib/libcrypto.a(a_object.o)
                                                  /usr/local/lib/libcrypto.a(ocsp_lib.o)
                                                  /usr/local/lib/libcrypto.a(v3_extku.o)
                                                  /usr/local/lib/libcrypto.a(v3_conf.o)
                                                  /usr/local/lib/libcrypto.a(x509_att.o)
                                                  /usr/local/lib/libcrypto.a(x_algor.o)
                                                  /usr/local/lib/libcrypto.a(a_sign.o)
                                                  /usr/local/lib/libcrypto.a(evp_pkey.o)
                                                  /usr/local/lib/libcrypto.a(ec_asn1.o)
                                                  /usr/local/lib/libcrypto.a(pcy_map.o)
                                                  /usr/local/lib/libcrypto.a(pcy_data.o)
                                                  /usr/local/lib/libcrypto.a(v3_pci.o)
                                                  /usr/local/lib/libcrypto.a(v3_purp.o)
                                                  /usr/local/lib/libcrypto.a(x509_vpm.o)
                                                  /usr/local/lib/libcrypto.a(x509_v3.o)
                                                  /usr/local/lib/libcrypto.a(x509name.o)
                                                  /usr/local/lib/libcrypto.a(p5_pbe.o)
                                                  /usr/local/lib/libcrypto.a(asn1_par.o)
                                                  /usr/local/lib/libcrypto.a(tasn_fre.o)
                                                  /usr/local/lib/libcrypto.a(x_x509a.o)
                                                  /usr/local/lib/libcrypto.a(x_pubkey.o)
                                                  /usr/local/lib/libcrypto.a(evp_lib.o)
                                                  /usr/local/lib/libcrypto.a(obj_dat.o)
ASN1_OBJECT_it                                    /usr/local/lib/libcrypto.a(tasn_typ.o)
                                                  /usr/local/lib/libcrypto.a(v3_extku.o)
                                                  /usr/local/lib/libcrypto.a(nsseq.o)
                                                  /usr/local/lib/libcrypto.a(x_algor.o)
                                                  /usr/local/lib/libcrypto.a(ec_asn1.o)
                                                  /usr/local/lib/libcrypto.a(ocsp_asn.o)
                                                  /usr/local/lib/libcrypto.a(p12_asn.o)
                                                  /usr/local/lib/libcrypto.a(pk7_asn1.o)
                                                  /usr/local/lib/libcrypto.a(v3_pcia.o)
                                                  /usr/local/lib/libcrypto.a(v3_pmaps.o)
                                                  /usr/local/lib/libcrypto.a(v3_ocsp.o)
                                                  /usr/local/lib/libcrypto.a(v3_info.o)
                                                  /usr/local/lib/libcrypto.a(v3_cpols.o)
                                                  /usr/local/lib/libcrypto.a(v3_genn.o)
                                                  /usr/local/lib/libcrypto.a(x_exten.o)
                                                  /usr/local/lib/libcrypto.a(x_x509a.o)
                                                  /usr/local/lib/libcrypto.a(x_name.o)
                                                  /usr/local/lib/libcrypto.a(x_attrib.o)
ASN1_OBJECT_new                                   /usr/local/lib/libcrypto.a(a_object.o)
                                                  /usr/local/lib/libcrypto.a(obj_lib.o)
ASN1_OCTET_STRING_NDEF_it                         /usr/local/lib/libcrypto.a(tasn_typ.o)
                                                  /usr/local/lib/libcrypto.a(pk7_asn1.o)
ASN1_OCTET_STRING_cmp                             /usr/local/lib/libcrypto.a(a_octet.o)
                                                  /usr/local/lib/libcrypto.a(ocsp_lib.o)
                                                  /usr/local/lib/libcrypto.a(v3_purp.o)
ASN1_OCTET_STRING_dup                             /usr/local/lib/libcrypto.a(a_octet.o)
ASN1_OCTET_STRING_free                            /usr/local/lib/libcrypto.a(tasn_typ.o)
                                                  /usr/local/lib/libcrypto.a(pk7_lib.o)
                                                  /usr/local/lib/libcrypto.a(v3_pci.o)
                                                  /usr/local/lib/libcrypto.a(v3_utl.o)
                                                  /usr/local/lib/libcrypto.a(x_x509a.o)
                                                  /usr/local/lib/libcrypto.a(x_x509.o)
ASN1_OCTET_STRING_it                              /usr/local/lib/libcrypto.a(tasn_typ.o)
                                                  /usr/local/lib/libcrypto.a(ec_asn1.o)
                                                  /usr/local/lib/libcrypto.a(ocsp_asn.o)
                                                  /usr/local/lib/libcrypto.a(p12_asn.o)
                                                  /usr/local/lib/libcrypto.a(pk7_asn1.o)
                                                  /usr/local/lib/libcrypto.a(v3_pcia.o)
                                                  /usr/local/lib/libcrypto.a(v3_akeya.o)
                                                  /usr/local/lib/libcrypto.a(v3_sxnet.o)
                                                  /usr/local/lib/libcrypto.a(v3_skey.o)
                                                  /usr/local/lib/libcrypto.a(v3_genn.o)
                                                  /usr/local/lib/libcrypto.a(p5_pbe.o)
                                                  /usr/local/lib/libcrypto.a(x_exten.o)
                                                  /usr/local/lib/libcrypto.a(x_x509a.o)
                                                  /usr/local/lib/libcrypto.a(x_sig.o)
ASN1_OCTET_STRING_new                             /usr/local/lib/libcrypto.a(tasn_typ.o)
                                                  /usr/local/lib/libcrypto.a(evp_pkey.o)
                                                  /usr/local/lib/libcrypto.a(ec_asn1.o)
                                                  /usr/local/lib/libcrypto.a(ocsp_srv.o)
                                                  /usr/local/lib/libcrypto.a(v3_pci.o)
                                                  /usr/local/lib/libcrypto.a(v3_ocsp.o)
                                                  /usr/local/lib/libcrypto.a(v3_utl.o)
                                                  /usr/local/lib/libcrypto.a(x_x509a.o)
ASN1_OCTET_STRING_set                             /usr/local/lib/libcrypto.a(a_octet.o)
                                                  /usr/local/lib/libcrypto.a(ocsp_lib.o)
                                                  /usr/local/lib/libcrypto.a(ec_asn1.o)
                                                  /usr/local/lib/libcrypto.a(ocsp_srv.o)
                                                  /usr/local/lib/libcrypto.a(v3_ocsp.o)
                                                  /usr/local/lib/libcrypto.a(v3_utl.o)
ASN1_PRINTABLESTRING_free                         /usr/local/lib/libcrypto.a(tasn_typ.o)
ASN1_PRINTABLESTRING_it                           /usr/local/lib/libcrypto.a(tasn_typ.o)
ASN1_PRINTABLESTRING_new                          /usr/local/lib/libcrypto.a(tasn_typ.o)
ASN1_PRINTABLE_free                               /usr/local/lib/libcrypto.a(tasn_typ.o)
ASN1_PRINTABLE_it                                 /usr/local/lib/libcrypto.a(tasn_typ.o)
                                                  /usr/local/lib/libcrypto.a(x_name.o)
ASN1_PRINTABLE_new                                /usr/local/lib/libcrypto.a(tasn_typ.o)
ASN1_PRINTABLE_type                               /usr/local/lib/libcrypto.a(a_print.o)
                                                  /usr/local/lib/libcrypto.a(x509name.o)
ASN1_SEQUENCE_it                                  /usr/local/lib/libcrypto.a(tasn_typ.o)
                                                  /usr/local/lib/libcrypto.a(v3_genn.o)
ASN1_STRING_TABLE_add                             /usr/local/lib/libcrypto.a(a_strnid.o)
ASN1_STRING_TABLE_cleanup                         /usr/local/lib/libcrypto.a(a_strnid.o)
ASN1_STRING_TABLE_get                             /usr/local/lib/libcrypto.a(a_strnid.o)
ASN1_STRING_cmp                                   /usr/local/lib/libcrypto.a(asn1_lib.o)
                                                  /usr/local/lib/libcrypto.a(x_crl.o)
                                                  /usr/local/lib/libcrypto.a(a_octet.o)
                                                  /usr/local/lib/libcrypto.a(ocsp_cl.o)
                                                  /usr/local/lib/libcrypto.a(p12_kiss.o)
                                                  /usr/local/lib/libcrypto.a(v3_sxnet.o)
                                                  /usr/local/lib/libcrypto.a(x509_cmp.o)
                                                  /usr/local/lib/libcrypto.a(a_int.o)
ASN1_STRING_data                                  /usr/local/lib/libcrypto.a(asn1_lib.o)
                                                  /usr/local/lib/libcrypto.a(ocsp_prn.o)
                                                  ../lib/.libs/libcurl.a(libcurl_la-openssl.o)
ASN1_STRING_dup                                   /usr/local/lib/libcrypto.a(asn1_lib.o)
                                                  /usr/local/lib/libcrypto.a(pk7_lib.o)
                                                  /usr/local/lib/libcrypto.a(a_octet.o)
                                                  /usr/local/lib/libcrypto.a(p12_kiss.o)
                                                  /usr/local/lib/libcrypto.a(v3_akey.o)
                                                  /usr/local/lib/libcrypto.a(v3_alt.o)
                                                  /usr/local/lib/libcrypto.a(a_type.o)
                                                  /usr/local/lib/libcrypto.a(a_int.o)
ASN1_STRING_free                                  /usr/local/lib/libcrypto.a(asn1_lib.o)
                                                  /usr/local/lib/libcrypto.a(pk7_lib.o)
                                                  /usr/local/lib/libcrypto.a(p12_p8e.o)
                                                  /usr/local/lib/libcrypto.a(p12_add.o)
                                                  /usr/local/lib/libcrypto.a(v3_ia5.o)
                                                  /usr/local/lib/libcrypto.a(v3_conf.o)
                                                  /usr/local/lib/libcrypto.a(v3_bitst.o)
                                                  /usr/local/lib/libcrypto.a(a_bytes.o)
                                                  /usr/local/lib/libcrypto.a(x_pkey.o)
                                                  /usr/local/lib/lib