DMP format
Start address (PDP-6): 034723
Start address (WAITS): 777400

Symbol table:
  Program: raid
  Program: dired
  Block: dired
    Symbol %ddels = 10000 (12)
    Symbol rscan = 41060 (02)
    Symbol filscx = 40721 (02)
    Symbol tfile = 23413 (02)
    Symbol tvrlsg = 36725 (02)
    Symbol ufdnul = 23454 (02)
    Symbol %szsrt = 100000 (02)
    Symbol anywho = 23417 (02)
    Symbol rppn31 = 40370 (02)
    Symbol putup = 36572 (02)
    Symbol sizspc = 37752 (02)
    Symbol rppn32 = 40374 (02)
    Symbol putl1 = 36652 (02)
    Symbol up1 = 36007 (02)
    Symbol wdn2 = 35502 (02)
    Symbol .uso = 42114 (02)
    Symbol .sgen = 41564 (02)
    Symbol mask4 = 40534 (02)
    Symbol rppn33 = 40377 (02)
    Symbol wjmp = 35541 (02)
    Symbol wdn1 = 35506 (02)
    Symbol .fler1 = 41674 (02)
    Symbol .fl5 = 41661 (02)
    Symbol wtmpce = 41262 (02)
    Symbol mask3 = 40517 (02)
    Symbol rppn34 = 40401 (02)
    Symbol argin = 36552 (02)
    Symbol xitip = 36461 (02)
    Symbol undl1 = 36323 (02)
    Symbol flkdat = 23420 (02)
    Symbol ufdc = 0 (12)
    Symbol .fl4 = 41641 (02)
    Symbol prwho = 41137 (02)
    Symbol mask2 = 40512 (02)
    Symbol shw1 = 40156 (02)
    Symbol arrxit = 36417 (02)
    Symbol arrow = 36400 (02)
    Symbol upe1 = 36037 (02)
    Symbol .fl3 = 41646 (02)
    Symbol pds = 105 (12)
    Symbol outdt1 = 40634 (02)
    Symbol mask1 = 40503 (02)
    Symbol ufdb = 23457 (02)
    Symbol ddamun = 23364 (02)
    Symbol upend = 36015 (02)
    Symbol .fl2 = 41637 (02)
    Symbol outdt2 = 40641 (02)
    Symbol wtp = 35537 (02)
    Symbol nfiles = 1000 (12)
    Symbol dipfil = 23410 (02)
    Symbol hedlin = 36636 (02)
    Symbol outdt3 = 40625 (02)
    Symbol cpopj = 37252 (02)
    Symbol getset = 37047 (02)
    Symbol putd2 = 37043 (02)
    Symbol swcr = 35416 (02)
    Symbol .usi = 42103 (02)
    Symbol .spr1 = 41603 (02)
    Symbol ppncct = 40406 (02)
    Symbol rppnf = 42126 (02)
    Symbol tfiles = 23415 (02)
    Symbol putd1 = 37027 (02)
    Symbol ambh = 35455 (02)
    Symbol .remoe = 41732 (02)
    Symbol masdev = 40536 (02)
    Symbol ins1 = 36366 (02)
    Symbol months = 34707 (02)
    Symbol .tty61 = 41754 (02)
    Symbol savppn = 41047 (02)
    Symbol sixty1 = 41030 (02)
    Symbol .type6 = 41733 (02)
    Symbol pdl = 34470 (02)
    Symbol put11 = 36632 (02)
    Symbol iiitop = 600 (12)
    Symbol editrr = 31464 (02)
    Symbol .flook = 41620 (02)
    Symbol sixty3 = 41036 (02)
    Symbol rea1 = 37244 (02)
    Symbol ntpcw = 15 (12)
    Symbol sixty4 = 41037 (02)
    Symbol dipfis = 23412 (02)
    Symbol stripe = 36722 (02)
    Symbol .usi1 = 42110 (02)
    Symbol .take = 41544 (02)
    Symbol %nook = 200 (12)
    Symbol putdl1 = 37017 (02)
    Symbol ambh1 = 35460 (02)
    Symbol swnm = 35425 (02)
    Symbol ufd = 24463 (02)
    Symbol argf = 36570 (02)
    Symbol ocycle = 35000 (02)
    Symbol sylab = 40407 (02)
    Symbol xiting = 36452 (02)
    Symbol msko = 36727 (02)
    Symbol %fast = 40000 (12)
    Symbol fatl01 = 41351 (02)
    Symbol ffastm = 40114 (02)
    Symbol msko6 = 36766 (02)
    Symbol lolin = 5 (12)
    Symbol fatl02 = 41355 (02)
    Symbol zero = 14361 (02)
    Symbol msko5 = 36753 (02)
    Symbol .sgena = 41563 (02)
    Symbol iiiblk = 36717 (02)
    Symbol fatl03 = 41365 (02)
    Symbol rtmpce = 41331 (02)
    Symbol put1 = 36664 (02)
    Symbol patch = 12503 (02)
    Symbol ustfoo = 42121 (02)
    Symbol undel = 36322 (02)
    Symbol %tty = 200000 (12)
    Symbol ufd2 = 25463 (02)
    Symbol fatl05 = 41402 (02)
    Symbol mask31 = 40527 (02)
    Symbol fatl06 = 41404 (02)
    Symbol loss3 = 37064 (02)
    Symbol masf1 = 40466 (02)
    Symbol setmas = 40411 (02)
    Symbol msko1 = 36747 (02)
    Symbol fatl07 = 41407 (02)
    Symbol loss2 = 37060 (02)
    Symbol masf0 = 40462 (02)
    Symbol msko0 = 36734 (02)
    Symbol uuoret = 41505 (02)
    Symbol heliii = 41436 (02)
    Symbol ddhead = 12610 (02)
    Symbol rppn = 40310 (02)
    Symbol loss1 = 37054 (02)
    Symbol debgm = 40260 (02)
    Symbol sybp6z = 42127 (02)
    Symbol dele1 = 36202 (02)
    Symbol gltp = 0 (12)
    Symbol chnl = 2 (12)
    Symbol fatl09 = 41411 (02)
    Symbol loss0 = 37050 (02)
    Symbol rppn5 = 40347 (02)
    Symbol .fll2b = 41652 (02)
    Symbol fal05r = 37774 (02)
    Symbol rscne2 = 41114 (02)
    Symbol eatbrk = 37547 (02)
    Symbol cmout = 37407 (02)
    Symbol putiii = 36710 (02)
    Symbol xiter1 = 36547 (02)
    Symbol uddtre = 36447 (02)
    Symbol .remo4 = 41721 (02)
    Symbol rppn3 = 40366 (02)
    Symbol abcgo = 40044 (02)
    Symbol xiter2 = 36511 (02)
    Symbol .remo3 = 41726 (02)
    Symbol qpds = 20 (12)
    Symbol rppn2 = 40317 (02)
    Symbol read1 = 37200 (02)
    Symbol reasng = 37163 (02)
    Symbol delqu = 36236 (02)
    Symbol delete = 36163 (02)
    Symbol badchr = 35447 (02)
    Symbol comend = 34662 (02)
    Symbol hilin = 4 (12)
    Symbol .remo2 = 41723 (02)
    Symbol rppn1 = 40355 (02)
    Symbol udpmod = 40235 (02)
    Symbol reaufd = 37107 (02)
    Symbol exct = 0 (12)
    Symbol .remo1 = 41713 (02)
    Symbol reasiz = 37232 (02)
    Symbol uuodsp = 41474 (02)
    Symbol delqr = 36225 (02)
    Symbol wjmpte = 35542 (02)
    Symbol wtmpc = 41233 (02)
    Symbol mashuh = 40477 (02)
    Symbol wup2 = 35532 (02)
    Symbol dotab = 34662 (02)
    Symbol iihead = 12603 (02)
    Symbol rea10 = 37150 (02)
    Symbol undlup = 36335 (02)
    Symbol upoend = 35765 (02)
    Symbol wup1 = 35534 (02)
    Symbol xiti1 = 36462 (02)
    Symbol comtab = 34635 (02)
    Symbol %displ = 100 (12)
    Symbol .uso1 = 42117 (02)
    Symbol usttyt = 42030 (02)
    Symbol spooll = 40657 (02)
    Symbol qpdl = 34575 (02)
    Symbol wupnl = 35525 (02)
    Symbol .sgen0 = 41567 (02)
    Symbol swap = 40046 (02)
    Symbol dnoend = 35613 (02)
    Symbol heldo = 41430 (02)
    Symbol clear1 = 41215 (02)
    Symbol cmask = 37306 (02)
    Symbol dirlin = 12612 (02)
    Symbol clear2 = 41222 (02)
    Symbol nrsycl = 4 (12)
    Symbol line = 37474 (02)
    Symbol upoq = 35744 (02)
    Symbol .fll2 = 41653 (02)
    Symbol gent9 = 37730 (02)
    Symbol .fll1 = 41624 (02)
    Symbol popj1 = 40717 (02)
    Symbol spoolr = 40645 (02)
    Symbol rundel = 40250 (02)
    Symbol dates = 23463 (02)
    Symbol dno = 35573 (02)
    Symbol fncn = 1 (12)
    Symbol %devuo = 1000 (12)
    Symbol words = 23406 (02)
    Symbol sixtyp = 41027 (02)
    Symbol gent7 = 37705 (02)
    Symbol arginf = 36561 (02)
    Symbol lasuuo = 10 (12)
    Symbol abcskp = 40025 (02)
    Symbol gent6 = 37630 (02)
    Symbol dnlup = 35645 (02)
    Symbol wbt = 35555 (02)
    Symbol wdown = 35463 (02)
    Symbol wup = 35513 (02)
    Symbol undone = 36361 (02)
    Symbol datesr = 40271 (02)
    Symbol curfil = 23407 (02)
    Symbol unde1 = 36330 (02)
    Symbol editnf = 36161 (02)
    Symbol rcycl1 = 34760 (02)
    Symbol %tcore = 400 (12)
    Symbol nlines = 35 (12)
    Symbol ddfmun = 23371 (02)
    Symbol uddts = 36451 (02)
    Symbol upeend = 36045 (02)
    Symbol bp7 = 12502 (02)
    Symbol lukdat = 14362 (02)
    Symbol entfl = 41000 (02)
    Symbol mskfoo = 42130 (02)
    Symbol fil = 2 (12)
    Symbol ustate = 42100 (02)
    Symbol zzz = 1 (12)
    Symbol q = 17 (02)
    Symbol argneg = 36565 (02)
    Symbol p = 6 (02)
    Symbol masdv1 = 40551 (02)
    Symbol filnul = 23446 (02)
    Symbol editr = 36055 (02)
    Symbol dne = 35700 (02)
    Symbol initl = 41045 (02)
    Symbol masdv2 = 40570 (02)
    Symbol dneend = 35717 (02)
    Symbol usttsr = 42073 (02)
    Symbol ufdin = 23421 (02)
    Symbol ddflsa = 23370 (02)
    Symbol lup = 41050 (02)
    Symbol rppn2a = 40320 (02)
    Symbol uuoacs = 34615 (02)
    Symbol curfis = 23411 (02)
    Symbol l = 12 (02)
    Symbol sortl = 40012 (02)
    Symbol xiter = 36524 (02)
    Symbol k = 13 (02)
    Symbol rstrip = 36724 (02)
    Symbol comlen = 26 (12)
    Symbol rtmpc = 41266 (02)
    Symbol j = 14 (02)
    Symbol to = 4 (12)
    Symbol i = 7 (02)
    Symbol filc = 1 (12)
    Symbol .take1 = 41557 (02)
    Symbol %debug = 10 (12)
    Symbol %rrufd = 20000 (12)
    Symbol szsrts = 40106 (02)
    Symbol dpyini = 37067 (02)
    Symbol helpsw = 41445 (02)
    Symbol ii = 10 (02)
    Symbol abort = 40264 (02)
    Symbol delblk = 23442 (02)
    Symbol f = 11 (02)
    Symbol .get = 41510 (02)
    Symbol argsgn = 36571 (02)
    Symbol e = 5 (02)
    Symbol spolle = 40673 (02)
    Symbol arg = 36567 (02)
    Symbol masfls = 40460 (02)
    Symbol showu = 40134 (02)
    Symbol sorte = 40020 (02)
    Symbol sizlop = 37774 (02)
    Symbol arriii = 36422 (02)
    Symbol uplup = 36003 (02)
    Symbol colm = 3 (12)
    Symbol d = 4 (02)
    Symbol delr = 36261 (02)
    Symbol editf = 36056 (02)
    Symbol ustats = 41761 (02)
    Symbol c = 3 (02)
    Symbol realea = 37247 (02)
    Symbol xitsv = 36551 (02)
    Symbol chrs = 35175 (02)
    Symbol b = 2 (02)
    Symbol getsix = 41003 (02)
    Symbol fcycle = 34776 (02)
    Symbol etbrk1 = 37550 (02)
    Symbol deldon = 36235 (02)
    Symbol a = 1 (02)
    Symbol %order = 40 (12)
    Symbol .sprin = 41575 (02)
    Symbol mfdnul = 23451 (02)
    Symbol putrec = 36605 (02)
    Symbol zz = 40577 (12)
    Symbol delis0 = 31465 (02)
    Symbol dnoz = 35574 (02)
    Symbol %xtsrt = 4000 (12)
    Symbol ustt1 = 42063 (02)
    Symbol helxit = 41433 (02)
    Symbol ddselp = 23416 (02)
    Symbol rcycle = 34752 (02)
    Symbol delis1 = 32466 (02)
    Symbol splblk = 23427 (02)
    Symbol cpopj1 = 36376 (02)
    Symbol delis2 = 33467 (02)
    Symbol putxit = 36703 (02)
    Symbol cpopj2 = 36375 (02)
    Symbol ffcycl = 34777 (02)
    Symbol usta2 = 42012 (02)
    Symbol type61 = 41740 (02)
    Symbol cpopj3 = 36374 (02)
    Symbol swl1 = 35403 (02)
    Symbol usta1 = 42005 (02)
    Symbol .flerr = 41666 (02)
    Symbol uuoh = 41464 (02)
    Symbol .get4 = 41522 (02)
    Symbol help = 41413 (02)
    Symbol jmp = 36054 (02)
    Symbol upo1 = 35757 (02)
    Symbol swl0 = 35402 (02)
    Symbol .get3 = 41516 (02)
    Symbol ihang = 35006 (02)
    Symbol dn = 35636 (02)
    Symbol upo = 35742 (02)
    Symbol alpha = 46 (12)
    Symbol lluser = 26463 (02)
    Symbol .get2 = 41531 (02)
    Symbol mmask2 = 23403 (02)
    Symbol %sort = 2 (12)
    Symbol .get1 = 41535 (02)
    Symbol rppn11 = 40363 (02)
    Symbol reamte = 37467 (02)
    Symbol delrl = 36263 (02)
    Symbol rscan1 = 41062 (02)
    Symbol rppn12 = 40357 (02)
    Symbol dskmod = 40236 (02)
    Symbol tfile1 = 23414 (02)
    Symbol stars = 36721 (02)
    Symbol roarup = 35440 (02)
    Symbol falt04 = 41374 (02)
    Symbol rscan2 = 41073 (02)
    Symbol gentxt = 37565 (02)
    Symbol gentex = 37744 (02)
    Symbol wuloop = 35522 (02)
    Symbol wdnl = 35475 (02)
    Symbol rscan3 = 41102 (02)
    Symbol getsx1 = 41005 (02)
    Symbol rrppn = 40316 (02)
    Symbol deloop = 36172 (02)
    Symbol gltby = 3 (12)
    Symbol upj = 35774 (02)
    Symbol upolup = 35753 (02)
    Symbol rscan4 = 41075 (02)
    Symbol getsx2 = 41014 (02)
    Symbol masdvl = 40544 (02)
    Symbol lkpcf = 40073 (02)
    Symbol abc1 = 40053 (02)
    Symbol putdp = 36671 (02)
    Symbol .takas = 41562 (02)
    Symbol getsx3 = 41023 (02)
    Symbol outdt = 40575 (02)
    Symbol maskl = 40424 (02)
    Symbol line2 = 37543 (02)
    Symbol rsyc4 = 43731 (02)
    Symbol getsx4 = 41020 (02)
    Symbol filnou = 40763 (02)
    Symbol hedli2 = 36635 (02)
    Symbol lintxt = 37561 (02)
    Symbol line1 = 37540 (02)
    Symbol rsyc3 = 44146 (02)
    Symbol go = 34723 (02)
    Symbol ddmung = 12611 (02)
    Symbol ent = 41054 (02)
    Symbol kmodc = 40217 (02)
    Symbol rsyc2 = 44015 (02)
    Symbol dell1 = 36174 (02)
    Symbol dnolup = 35603 (02)
    Symbol switch = 35376 (02)
    Symbol abcdat = 40042 (02)
    Symbol eatit = 37557 (02)
    Symbol rsyc1 = 44033 (02)
    Symbol putdl = 36774 (02)
    Symbol upe = 36024 (02)
    Symbol alphas = 40300 (02)
    Symbol sizsp1 = 37761 (02)
    Symbol huh = 35165 (02)
    Symbol .ustt = 42125 (02)
    Symbol scycle = 34775 (02)
    Symbol rvsrt = 40227 (02)
    Symbol edit1 = 36146 (02)
    Symbol filsp1 = 40731 (02)
    Symbol shwe = 40202 (02)
    Symbol reamat = 37414 (02)
    Symbol insert = 36362 (02)
    Symbol dirlen = 1546 (12)
    Symbol filsp2 = 40735 (02)
    Symbol files = 30463 (02)
    Symbol cjrst4 = 41472 (02)
    Symbol tmpcbl = 41334 (02)
    Symbol filsp3 = 40736 (02)
    Symbol rstars = 36723 (02)
    Symbol uexit = 36430 (02)
    Symbol dnend = 35655 (02)
    Symbol decd1 = 35101 (02)
    Symbol luser = 23433 (02)
    Symbol filsp4 = 40745 (02)
    Symbol cct = 41617 (02)
    Symbol %udp = 20 (12)
    Symbol fulwho = 27463 (02)
    Symbol mmask = 23375 (02)
    Symbol filsp5 = 40755 (02)
    Symbol %start = 1 (12)
    Symbol .tty6 = 41747 (02)
    Symbol rihang = 35003 (02)
    Symbol filsp6 = 40747 (02)
    Symbol filscn = 40700 (02)
    Symbol iimung = 12604 (02)
    Symbol filsp7 = 40753 (02)
    Symbol frome = 42131 (02)
    Symbol %getty = 4 (12)
    Symbol filsp8 = 40740 (02)
    Symbol filscp = 40727 (02)
    Symbol extsrt = 40205 (02)
    Symbol upelup = 36033 (02)
    Symbol wdloop = 35472 (02)
    Symbol mfdc = 3 (12)
    Symbol .remov = 41676 (02)
    Symbol mask10 = 40505 (02)
    Symbol renblk = 23434 (02)
    Symbol ddarro = 23363 (02)
    Symbol %kmode = 2000 (12)
    Symbol rscane = 41121 (02)
    Symbol xit3 = 36501 (02)
    Symbol cycle = 34770 (02)
    Symbol pat = 12503 (02)
    Symbol ddclr = 41227 (02)
    Symbol ffulm = 40126 (02)
    Symbol xit2 = 36505 (02)
    Symbol dnelup = 35707 (02)
    Symbol badch1 = 35452 (02)
    Symbol roardn = 35431 (02)
    Symbol lupfl = 40761 (02)
    Symbol zclear = 41167 (02)
    Symbol bo = 5 (12)
    Symbol clear = 41174 (02)
    Symbol sort = 40002 (02)
    Symbol sizend = 37777 (02)
    Symbol uddt = 36436 (02)
    Symbol recall = 262300000000 (02)
    Symbol return = 262300000000 (02)
    Symbol save = 261300000000 (02)
    Symbol get = 1000000000 (02)
    Symbol flooku = 4000000000 (02)
    Symbol type6 = 6000000000 (02)
    Symbol sgena = 10000000000 (02)
    Symbol tty6 = 7000000000 (02)
    Symbol sgen = 2000000000 (02)
    Symbol sprint = 3000000000 (02)
    Symbol remove = 5000000000 (02)
  Program: jobdat
  Program: spsub
    Symbol $14b = 10737 (01)
    Symbol $1b = 10650 (01)
    Symbol ddt = 7152 (01)
    Symbol $17b = 10756 (01)
    Symbol $sbp = 11416 (01)
    Symbol $4b = 10667 (01)
    Symbol $7b = 10706 (01)
    Symbol $12b = 10725 (01)
    Symbol $15b = 10744 (01)
    Symbol $m = 10523 (01)
    Symbol $2b = 10655 (01)
    Symbol $i = 11010 (01)
    Symbol $rptcn = 12053 (11)
    Symbol $c = 5413 (01)
    Symbol $5b = 10674 (01)
    Symbol $10b = 10713 (01)
    Symbol $13b = 10732 (01)
    Symbol ddtend = 12502 (01)
    Symbol $rbp = 11433 (01)
    Symbol $io = 6201 (01)
    Symbol $16b = 10751 (01)
    Symbol $3b = 10662 (01)
    Symbol $iotab = 2310 (11)
    Symbol $bgddt = 140 (11)
    Symbol job41 = 41 (11)
    Symbol jobac = 0 (11)
    Symbol jobapr = 125 (11)
    Symbol jobblt = 45 (11)
    Symbol jobchn = 131 (11)
    Symbol jobcn6 = 106 (11)
    Symbol jobcni = 126 (11)
    Symbol jobcor = 133 (11)
    Symbol jobd14 = 34 (11)
    Symbol jobd15 = 35 (11)
    Symbol jobd16 = 36 (11)
    Symbol jobd17 = 37 (11)
    Symbol jobda = 140 (11)
    Symbol jobdac = 20 (11)
    Symbol jobddt = 74 (11)
    Symbol jobdpd = 23 (11)
    Symbol jobdpg = 27 (11)
    Symbol jobenb = 43 (11)
    Symbol joberr = 42 (11)
    Symbol jobexm = 123 (11)
    Symbol jobfdv = 132 (11)
    Symbol jobff = 121 (11)
    Symbol jobhcu = 72 (11)
    Symbol jobhrl = 115 (11)
    Symbol jobint = 71 (11)
    Symbol jobjda = 75 (11)
    Symbol jobjmh = 777777777775 (11)
    Symbol jobopc = 130 (11)
    Symbol jobpc = 73 (11)
    Symbol jobpd1 = 45 (11)
    Symbol jobpdl = 44 (11)
    Symbol jobpfi = 114 (11)
    Symbol jobpr1 = 73 (11)
    Symbol jobprt = 72 (11)
    Symbol jobrel = 44 (11)
    Symbol jobren = 124 (11)
    Symbol jobs41 = 122 (11)
    Symbol jobsa = 120 (11)
    Symbol jobsav = 73 (11)
    Symbol jobsym = 116 (11)
    Symbol jobtpc = 127 (11)
    Symbol jobusy = 117 (11)
    Symbol jobuuo = 40 (11)
    Symbol jobver = 137 (11)
    Symbol mjobp1 = 777777777753 (11)
    Symbol mjobpd = 777777777752 (11)
    Symbol .jb41 = 41 (11)
    Symbol .jbac = 0 (11)
    Symbol .jbapr = 125 (11)
    Symbol .jbblt = 45 (11)
    Symbol .jbchn = 131 (11)
    Symbol .jbcn6 = 106 (11)
    Symbol .jbcni = 126 (11)
    Symbol .jbcor = 133 (11)
    Symbol .jbd14 = 34 (11)
    Symbol .jbd15 = 35 (11)
    Symbol .jbd16 = 36 (11)
    Symbol .jbd17 = 37 (11)
    Symbol .jbda = 140 (11)
    Symbol .jbdac = 20 (11)
    Symbol .jbddt = 74 (11)
    Symbol .jbdpd = 23 (11)
    Symbol .jbdpg = 27 (11)
    Symbol .jbenb = 43 (11)
    Symbol .jberr = 42 (11)
    Symbol .jbexm = 123 (11)
    Symbol .jbfdv = 132 (11)
    Symbol .jbff = 121 (11)
    Symbol .jbhcu = 72 (11)
    Symbol .jbhrl = 115 (11)
    Symbol .jbint = 71 (11)
    Symbol .jbjda = 75 (11)
    Symbol .jbopc = 130 (11)
    Symbol .jbpc = 73 (11)
    Symbol .jbpd1 = 45 (11)
    Symbol .jbpdl = 44 (11)
    Symbol .jbpfi = 114 (11)
    Symbol .jbpr1 = 73 (11)
    Symbol .jbprt = 72 (11)
    Symbol .jbrel = 44 (11)
    Symbol .jbren = 124 (11)
    Symbol .jbs41 = 122 (11)
    Symbol .jbsa = 120 (11)
    Symbol .jbsav = 73 (11)
    Symbol .jbsym = 116 (11)
    Symbol .jbtpc = 127 (11)
    Symbol .jbusy = 117 (11)
    Symbol .jbuuo = 40 (11)
    Symbol .jbver = 137 (11)
    Symbol $6b = 10701 (01)
    Symbol $11b = 10720 (01)
    Symbol spoolf = 46440 (01)
    Symbol spoolm = 46332 (01)
    Symbol spall = 46366 (01)
    Symbol spool = 46311 (01)
    Symbol spl%cn = 46270 (01)
    Symbol $20b = 10763 (01)
    Symbol pat.. = 47265 (11)

Disassembly:

jobddt:
000074:  000040007152  %order,,                 ;"  @ YJ"
jobjda:
000075:  466100753052  orcmm    b, 753052       ;"FQ ]8J"
000076:  000000000000                           ;"      "
000077:  000000000000                           ;"      "
%displ:
000100:  000000000000                           ;"      "
000101:  000000000000                           ;"      "
000102:  000000000000                           ;"      "
000103:  000000000000                           ;"      "
000104:  000000000000                           ;"      "
pds:
000105:  000000000000                           ;"      "
jobcn6:
000106:  000000000000                           ;"      "
000107:  000000000000                           ;"      "
000110:  000000000000                           ;"      "
000111:  000000000000                           ;"      "
000112:  000000000000                           ;"      "
000113:  000000000000                           ;"      "
jobpfi:
000114:  000000000000                           ;"      "
jobhrl:
000115:  000000000000                           ;"      "
jobsym:
000116:  775520047305  blko     754, @47305     ;"_M0$[%"
jobusy:
000117:  000000047305                           ;"   $[%"
jobsa:
000120:  051565034723  inskip   @go(e)          ;"%-U#G3"
jobff:
000121:  000000051565                           ;"   %-U"
jobs41:
000122:  254200000000  halt     ufdc            ;"5B    "
jobexm:
000123:  000000000000                           ;"      "
jobren:
000124:  000000000000                           ;"      "
jobapr:
000125:  000000000000                           ;"      "
jobcni:
000126:  000000000000                           ;"      "
jobtpc:
000127:  000000000000                           ;"      "
jobopc:
000130:  000000000000                           ;"      "
jobchn:
000131:  000000000000                           ;"      "
jobfdv:
000132:  000000000000                           ;"      "
jobcor:
000133:  000000051777                           ;"   %/_"
000134:  000000000000                           ;"      "
000135:  000000000000                           ;"      "
000136:  000000000000                           ;"      "
jobver:
000137:  000000000000                           ;"      "
$bgddt:
000140:  000000777400                           ;"   _\ "
000141:  002254051557                           ;" 2L%-O"
000142:  002252051555                           ;" 2J%-M"
000143:  000040037154  %order,,                 ;"  @#YL"
000144:  000040037155  %order,,                 ;"  @#YM"
000145:  000000000000                           ;"      "
000146:  000000000000                           ;"      "
000147:  000000000000                           ;"      "
000150:  000000000000                           ;"      "
000151:  000000000000                           ;"      "
000152:  000000000000                           ;"      "
000153:  000000000000                           ;"      "
000154:  000000000000                           ;"      "
000155:  000000000000                           ;"      "
000156:  000000000000                           ;"      "
000157:  000000000000                           ;"      "
000160:  000000000000                           ;"      "
000161:  000000000000                           ;"      "
000162:  000000000000                           ;"      "
000163:  000000000000                           ;"      "
000164:  000000000000                           ;"      "
000165:  000000000000                           ;"      "
000166:  000000000000                           ;"      "
000167:  000000000000                           ;"      "
000170:  000000000000                           ;"      "
000171:  000000000000                           ;"      "
000172:  000143777767                           ;" !C__W"
000173:  000040000040  %order,,                 ;"  @  @"
000174:  000100000000                           ;" !    "
000175:  000000000000                           ;"      "
000176:  000000000003  c                        ;"     #"
000177:  000000000130  jobopc                   ;"    !8"
%nook:
000200:  000000000104                           ;"    !$"
000201:  000000000000                           ;"      "
000202:  000000000000                           ;"      "
000203:  000000000012  l                        ;"     *"
000204:  001000000000                           ;" (    "
000205:  000000010770                           ;"   !'X"
000206:  000000011647                           ;"   !.G"
000207:  003740000000                           ;" ?@   "
000210:  777770000144  conso    774, @144(ii)   ;"__X !D"
000211:  000000000000                           ;"      "
000212:  777777777777  conso    774, @777777(q) ;"______"
000213:  777605000225  cono     774, 225(e)     ;"_^% "5"
000214:  000000037155                           ;"   #YM"
000215:  777777777777  conso    774, @777777(q) ;"______"
000216:  777770000144  conso    774, @144(ii)   ;"__X !D"
000217:  100000000000                           ;"(     "
000220:  000000000000                           ;"      "
000221:  310000007226  cam      ufdc, 7226      ;"9   Z6"
000222:  310000007226  cam      ufdc, 7226      ;"9   Z6"
000223:  000000000000                           ;"      "
000224:  310000011615  cam      ufdc, 11615     ;"9  !.-"
000225:  310000011354  cam      ufdc, 11354     ;"9  !+L"
000226:  000000000000                           ;"      "
000227:  000000000000                           ;"      "
000230:  310000006551  cam      ufdc, 6551      ;"9   UI"
000231:  310000006614  cam      ufdc, 6614      ;"9   V,"
000232:  000007000001  i,,                      ;"  '  !"
000233:  000012006420  l,,                      ;"  * T0"
000234:  000000000000                           ;"      "
000235:  000000000001  a                        ;"     !"
000236:  000000000004  d                        ;"     $"
000237:  000000000011  f                        ;"     )"
000240:  310000006517  cam      ufdc, 6517      ;"9   U/"
000241:  000007000001  i,,                      ;"  '  !"
000242:  000000006432                           ;"    T:"
000243:  000000000000                           ;"      "
000244:  000000000020  qpds                     ;"     0"
000245:  000000000002  b                        ;"     ""
000246:  000000000003  c                        ;"     #"
000247:  310000006517  cam      ufdc, 6517      ;"9   U/"
000250:  000000000000                           ;"      "
000251:  000000000000                           ;"      "
000252:  000000000000                           ;"      "
000253:  000000000000                           ;"      "
000254:  000000000000                           ;"      "
000255:  000000000000                           ;"      "
000256:  000000000000                           ;"      "
000257:  000000000000                           ;"      "
000260:  000000000000                           ;"      "
000261:  000000000000                           ;"      "
000262:  000000000000                           ;"      "
000263:  000000000000                           ;"      "
000264:  000000000000                           ;"      "
000265:  000000000000                           ;"      "
000266:  000000000000                           ;"      "
000267:  000000000000                           ;"      "
000270:  000000000000                           ;"      "
000271:  000000000000                           ;"      "
000272:  000000000000                           ;"      "
000273:  000000000000                           ;"      "
000274:  000000000000                           ;"      "
000275:  000000000000                           ;"      "
000276:  000000000000                           ;"      "
000277:  000000000000                           ;"      "
000300:  000000000000                           ;"      "
000301:  000000000000                           ;"      "
000302:  000000000000                           ;"      "
000303:  000000000000                           ;"      "
000304:  000000000000                           ;"      "
000305:  000000000000                           ;"      "
000306:  000000000000                           ;"      "
000307:  000000000000                           ;"      "
000310:  000000000000                           ;"      "
000311:  000000000000                           ;"      "
000312:  000000000000                           ;"      "
000313:  000000000000                           ;"      "
000314:  000000000000                           ;"      "
000315:  000000000000                           ;"      "
000316:  000000000000                           ;"      "
000317:  000000000000                           ;"      "
000320:  000000000000                           ;"      "
000321:  000000000000                           ;"      "
000322:  000000000000                           ;"      "
000323:  000000000000                           ;"      "
000324:  000000000000                           ;"      "
000325:  000000000000                           ;"      "
000326:  000000000000                           ;"      "
000327:  000000000000                           ;"      "
000330:  000000000000                           ;"      "
000331:  000000000000                           ;"      "
000332:  000000000000                           ;"      "
000333:  000000000000                           ;"      "
000334:  000000000000                           ;"      "
000335:  000000000000                           ;"      "
000336:  000000000000                           ;"      "
000337:  000000000000                           ;"      "
000340:  000000000000                           ;"      "
000341:  000000000000                           ;"      "
000342:  000000000000                           ;"      "
000343:  000000000000                           ;"      "
000344:  000000000000                           ;"      "
000345:  000000000000                           ;"      "
000346:  000000000000                           ;"      "
000347:  000000000000                           ;"      "
000350:  000000000000                           ;"      "
000351:  000000000000                           ;"      "
000352:  000000000000                           ;"      "
000353:  000000000000                           ;"      "
000354:  000000000000                           ;"      "
000355:  000000000000                           ;"      "
000356:  000000000000                           ;"      "
000357:  000000000000                           ;"      "
000360:  000000000000                           ;"      "
000361:  000000000000                           ;"      "
000362:  000000000000                           ;"      "
000363:  000000000000                           ;"      "
000364:  000000000000                           ;"      "
000365:  000000000000                           ;"      "
000366:  000000000000                           ;"      "
000367:  000000000000                           ;"      "
000370:  000000000000                           ;"      "
000371:  000000000000                           ;"      "
000372:  000000000000                           ;"      "
000373:  000000000000                           ;"      "
000374:  000000000000                           ;"      "
000375:  000000000000                           ;"      "
000376:  000000000000                           ;"      "
000377:  000000000000                           ;"      "
%tcore:
000400:  000000000000                           ;"      "
000401:  000000000000                           ;"      "
000402:  000000000000                           ;"      "
000403:  000000000000                           ;"      "
000404:  000000000000                           ;"      "
000405:  000000000000                           ;"      "
000406:  000000000000                           ;"      "
000407:  000000000000                           ;"      "
000410:  000000000000                           ;"      "
000411:  000000000000                           ;"      "
000412:  000000000000                           ;"      "
000413:  000000000000                           ;"      "
000414:  000000000000                           ;"      "
000415:  000000000000                           ;"      "
000416:  000000000000                           ;"      "
000417:  000000000000                           ;"      "
000420:  000000000000                           ;"      "
000421:  445162454400  eqvi     c, @454400(b)   ;"DIRED "
000422:  445560007551  eqvi     k, @7551        ;"DMP ]I"
000423:  000760547754                           ;" 'PL_L"
000424:  212025634753  movnm    ufdc, @634753(e);"105SGK"
000425:  000000000000                           ;"      "
000426:  000000000002  b                        ;"     ""
000427:  446353000000  eqvm     i, (k)          ;"DSK   " "INX\0\0"
000430:  000000000000                           ;"      "
000431:  000000000000                           ;"      "
000432:  776074000073  datai    760, @jobpc(j)  ;"_P\  ["
000433:  000000000000                           ;"      "
000434:  000000000000                           ;"      "
000435:  000000000011  f                        ;"     )"
000436:  000000000256                           ;"    "N"
000437:  000000000133  jobcor                   ;"    !;"
000440:  474564000000  seto     k, @(d)         ;"GET   "
000441:  000000000001  a                        ;"     !"
000442:  416031542500  setmm    @542500(f)      ;"AP9L5 " "CAME "
000443:  411310651236  andcai   p, 651236(ii)   ;"A+(U*>" "B,FRO"
000444:  466125332146  orcmm    b, @332146(e)   ;"FQ5;1F" "ME+43"
000445:  064000000000  inbuf    ufdc, ufdc      ;"&@    " "\r\0\0\0\0"
000446:  000000000000                           ;"      "
000447:  000000000000                           ;"      "
000450:  000000000000                           ;"      "
000451:  000000000000                           ;"      "
000452:  000000000000                           ;"      "
000453:  000000000000                           ;"      "
000454:  000000000000                           ;"      "
000455:  000000000000                           ;"      "
000456:  000000000000                           ;"      "
000457:  000000000000                           ;"      "
000460:  000000000000                           ;"      "
000461:  000000000000                           ;"      "
000462:  000000000000                           ;"      "
000463:  000000000000                           ;"      "
000464:  000000000000                           ;"      "
000465:  000000000000                           ;"      "
000466:  000000000000                           ;"      "
000467:  000000000000                           ;"      "
000470:  000000000000                           ;"      "
000471:  000000000000                           ;"      "
000472:  000000000000                           ;"      "
000473:  000000000000                           ;"      "
000474:  000000000000                           ;"      "
000475:  000000000000                           ;"      "
000476:  000000000000                           ;"      "
000477:  000000000000                           ;"      "
000500:  000000000000                           ;"      "
000501:  000000000000                           ;"      "
000502:  000000000000                           ;"      "
000503:  000000000007  i                        ;"     '"
000504:  000000000007  i                        ;"     '"
000505:  000000000000                           ;"      "
000506:  000000000000                           ;"      "
000507:  000000000000                           ;"      "
000510:  000000000000                           ;"      "
000511:  000000000000                           ;"      "
000512:  000000000000                           ;"      "
000513:  000000000000                           ;"      "
000514:  002254051557                           ;" 2L%-O"
000515:  000000000000                           ;"      "
000516:  000000000000                           ;"      "
000517:  000000000000                           ;"      "
000520:  000000000000                           ;"      "
000521:  000000000000                           ;"      "
000522:  000000000000                           ;"      "
000523:  000000000000                           ;"      "
000524:  002252051555                           ;" 2J%-M"
000525:  000000000005  e                        ;"     %"
000526:  000000000000                           ;"      "
000527:  777777777777  conso    774, @777777(q) ;"______"
000530:  777777777777  conso    774, @777777(q) ;"______"
000531:  777777777777  conso    774, @777777(q) ;"______"
000532:  777777777777  conso    774, @777777(q) ;"______"
000533:  777777777777  conso    774, @777777(q) ;"______"
000534:  000243173747                           ;" "C/?G"
000535:  000000000014  j                        ;"     ,"
000536:  000425125421                           ;" $5*L1"
000537:  777777777777  conso    774, @777777(q) ;"______"
000540:  777777777777  conso    774, @777777(q) ;"______"
000541:  777777777777  conso    774, @777777(q) ;"______"
000542:  777777777777  conso    774, @777777(q) ;"______"
000543:  777777777777  conso    774, @777777(q) ;"______"
000544:  000520050023                           ;" %0% 3"
000545:  001136050441                           ;" )>%$A"
000546:  001516051021                           ;" -.%(1"
000547:  777777777777  conso    774, @777777(q) ;"______"
000550:  777777777777  conso    774, @777777(q) ;"______"
000551:  777777777777  conso    774, @777777(q) ;"______"
000552:  777777777777  conso    774, @777777(q) ;"______"
000553:  777777777777  conso    774, @777777(q) ;"______"
000554:  777777777777  conso    774, @777777(q) ;"______"
000555:  777777777777  conso    774, @777777(q) ;"______"
000556:  777777777777  conso    774, @777777(q) ;"______"
000557:  777777777777  conso    774, @777777(q) ;"______"
000560:  777777777777  conso    774, @777777(q) ;"______"
000561:  777777777777  conso    774, @777777(q) ;"______"
000562:  777777777777  conso    774, @777777(q) ;"______"
000563:  777777777777  conso    774, @777777(q) ;"______"
000564:  777777777777  conso    774, @777777(q) ;"______"
000565:  777777777777  conso    774, @777777(q) ;"______"
000566:  777777777777  conso    774, @777777(q) ;"______"
000567:  777777777777  conso    774, @777777(q) ;"______"
000570:  777777777777  conso    774, @777777(q) ;"______"
000571:  777777777777  conso    774, @777777(q) ;"______"
000572:  777777777777  conso    774, @777777(q) ;"______"
000573:  777777777777  conso    774, @777777(q) ;"______"
000574:  777777777777  conso    774, @777777(q) ;"______"
000575:  777777777777  conso    774, @777777(q) ;"______"
000576:  777777777777  conso    774, @777777(q) ;"______"
000577:  020620000060                           ;""&0  P"
iiitop:
000600:  000000015000                           ;"   !H "
000601:  000000100000  %szsrt                   ;"   (  "
000602:  000001000000                           ;"  !   "
000603:  777777777777  conso    774, @777777(q) ;"______"
000604:  777700037600  consz    774, 37600      ;"__ #^ "
000605:  000000374000                           ;"   ?@ "
000606:  000007600000  i,,                      ;"  'P  "
000607:  402000010522  setzm    10522           ;"@0 !%2"
000610:  260740002130  pushj    q, 2130         ;"6'@ 18"
000611:  256000000616  xct      616             ;"5P  &."
000612:  263740000000  popj     q,              ;"6?@   "
000613:  134140010522  ildb     c, 10522        ;"+A@!%2"
000614:  322140000607  jumpe    c, 607          ;":1@ &'"
000615:  263740000000  popj     q,              ;"6?@   "
000616:  051200000003  inchwl   c               ;"%*   #"
000617:  201100000000  movei    b, ufdc         ;"0)    " " $\0\0\0"
000620:  260740000613  pushj    q, 613          ;"6'@ &+"
000621:  306140000175  cain     c, 175          ;"8Q@ !]"
000622:  344100012216  aoja     b, 12216        ;"<A !2."
000623:  306140000015  cain     c, ntpcw        ;"8Q@  -"
000624:  254000000641  jrst     641             ;"5@  &A"
000625:  602140000600  trne     c, iiitop       ;"P1@ & "
000626:  135100012275  ldb      b, 12275        ;"+I !2]"
000627:  626400010000  trzn     ii, %ddels      ;"RT !  "
000630:  254000000633  jrst     633             ;"5@  &;"
000631:  261740012320  push     q, 12320        ;"6/@!30"
000632:  262740000616  pop      q, 616          ;"67@ &."
000633:  405140000177  andi     c, 177          ;"@I@ !_"
000634:  302140000177  caie     c, 177          ;"81@ !_"
000635:  263740000000  popj     q,              ;"6?@   "
000636:  051140012117  outstr   12117           ;"%)@!1/"
000637:  621400000004  tlz      ii, hilin       ;"R,   $"
000640:  254000007172  jrst     7172            ;"5@  YZ"
000641:  332000010522  skipe    10522           ;";0 !%2"
000642:  254000000625  jrst     625             ;"5@  &5"
000643:  051000000003  inchrw   c               ;"%(   #"
000644:  431140000007  xori     c, i            ;"C)@  '"
000645:  254000000625  jrst     625             ;"5@  &5"
000646:  260740000617  pushj    q, 617          ;"6'@ &/"
000647:  305140000140  caige    c, $bgddt       ;"8I@ !@"
000650:  254000000654  jrst     654             ;"5@  &L"
000651:  275140000040  subi     c, %order       ;"7I@  @"
000652:  301140000133  cail     c, jobcor       ;"8)@ !;"
000653:  271140000005  addi     c, lolin        ;"7)@  %"
000654:  200200000003  move     d, c            ;"0"   #"
000655:  231200000011  idivi    d, f            ;"3*   )"
000656:  135205000670  ldb      d, 670(e)       ;"+J% &X"
000657:  200204000715  move     d, 715(d)       ;"0"$ '-"
000660:  602200000001  trne     d, fncn         ;"P2   !"
000661:  254000000667  jrst     667             ;"5@  &W"
000662:  602200000400  trne     d, %tcore       ;"P2  $ "
000663:  201100000000  movei    b, ufdc         ;"0)    " " $\0\0\0"
000664:  606200000200  trnn     d, %nook        ;"PR  " "
000665:  263740000000  popj     q,              ;"6?@   "
000666:  322100000665  jumpe    b, 665          ;":1  &U"
000667:  254000007242  jrst     7242            ;"5@  ZB"
000670:  400404000701  setz     ii, 701(d)      ;"@$$ '!"
000671:  340404000701  aoj      ii, 701(d)      ;"<$$ '!"
000672:  300404000701  cai      ii, 701(d)      ;"8$$ '!"
000673:  240404000701  ash      ii, 701(d)      ;"4$$ '!"
000674:  200404000701  move     ii, 701(d)      ;"0$$ '!"
000675:  140404000701  fad      ii, 701(d)      ;",$$ '!"
000676:  100404000701                           ;"($$ '!"
000677:  040404000701  call     ii, 701(d)      ;"$$$ '!"
000700:  000404000701                           ;" $$ '!"
000701:  000042000000                           ;"  B   "
000702:  414002000000  setm     ufdc, (b)       ;"A@"   "
000703:  314002403146  cama     ufdc, 403146(b) ;"9@"@9F"
000704:  300032034130  cai      ufdc, @34130(l) ;"8 :#A8"
000705:  463326101470  setcmb   p, @101470(p)   ;"F;6(,X"
000706:  150310421042  fsb      p, 421042(ii)   ;"-#(B(B"
000707:  104212663126                           ;"(B*V96"
000710:  414104210421  setm     b, 210421(d)    ;"AA$1$1"
000711:  042160210421                           ;"$1P1$1"
000712:  042104210421                           ;"$1$1$1"
000713:  054631530140                           ;"%F9K!@"
000714:  314000000000  cama     ufdc, ufdc      ;"9@    " "3\0\0\0\0"
000715:  000000000001  a                        ;"     !"
000716:  000000000104                           ;"    !$"
000717:  000000000102                           ;"    !""
000720:  000000000420                           ;"    $0"
000721:  000000001144                           ;"    )D"
000722:  000000000140  $bgddt                   ;"    !@"
000723:  000000000100  %displ                   ;"    ! "
000724:  000000000200  %nook                    ;"    " "
000725:  000000000400  %tcore                   ;"    $ "
000726:  000000001104                           ;"    )$"
000727:  000000002004                           ;"    0$"
000730:  000000004100                           ;"    A "
000731:  000000004104                           ;"    A$"
000732:  621400364000  tlz      ii, 364000      ;"R, >@ "
000733:  627400010000  tlzn     ii, %ddels      ;"R\ !  "
000734:  260740000646  pushj    q, 646          ;"6'@ &F"
000735:  602200000004  trne     d, hilin        ;"P2   $"
000736:  254000001056  jrst     1056            ;"5@  (N"
000737:  602200000002  trne     d, chnl         ;"P2   ""
000740:  254000000770  jrst     770             ;"5@  'X"
000741:  606200000040  trnn     d, %order       ;"PR   @"
000742:  263740000000  popj     q,              ;"6?@   "
000743:  306140000075  cain     c, jobjda       ;"8Q@  ]"
000744:  254000001127  jrst     1127            ;"5@  )7"
000745:  306140000042  cain     c, joberr       ;"8Q@  B"
000746:  254000001140  jrst     1140            ;"5@  )@"
000747:  306140000047  cain     c, 47           ;"8Q@  G"
000750:  254000001172  jrst     1172            ;"5@  )Z"
000751:  254200000751  halt     751             ;"5B  'I"
000752:  306140000056  cain     c, 56           ;"8Q@  N"
000753:  254000000757  jrst     757             ;"5@  'O"
000754:  306140000045  cain     c, jobblt       ;"8Q@  E"
000755:  254000001425  jrst     1425            ;"5@  ,5"
000756:  263740000000  popj     q,              ;"6?@   "
000757:  302100000001  caie     b, fncn         ;"81   !"
000760:  263740000000  popj     q,              ;"6?@   "
000761:  550340000214  hrrz     i, 214          ;"M#@ ","
000762:  307340000017  caig     i, q            ;"8[@  /"
000763:  271340000421  addi     i, 421          ;"7+@ $1"
000764:  200347000000  move     i, (i)          ;"0#G   "
000765:  202340012047  movem    i, 12047        ;"03@!0G"
000766:  661400300000  tlo      ii, 300000      ;"V, 8  "
000767:  263740000000  popj     q,              ;"6?@   "
000770:  326100001424  jumpn    b, 1424         ;":Q  ,4"
000771:  200700012353  move     16, 12353       ;"0' !3K"
000772:  202700001004  movem    16, 1004        ;"07  ($"
000773:  402000012046  setzm    12046           ;"@0 !0F"
000774:  402000012047  setzm    12047           ;"@0 !0G"
000775:  665400200000  tloa     ii, %tty        ;"VL 0  "
000776:  260740000646  pushj    q, 646          ;"6'@ &F"
000777:  606200000002  trnn     d, chnl         ;"PR   ""
nfiles:
001000:  254000001014  jrst     1014            ;"5@  (,"
001001:  326100001014  jumpn    b, 1014         ;":Q  (,"
001002:  201703777720  movei    16, 777720(c)   ;"0/#__0"
001003:  250700012047  exch     16, 12047       ;"5' !0G"
001004:  242700000003  lsh      16, c           ;"47   #"
001005:  272700012047  addm     16, 12047       ;"77 !0G"
001006:  201703777720  movei    16, 777720(c)   ;"0/#__0"
001007:  132700000233  fsc      16, 233         ;"+7  ";"
001010:  250700012046  exch     16, 12046       ;"5' !0F"
001011:  164700012351  fmpr     16, 12351       ;".G !3I"
001012:  142700012046  fadm     16, 12046       ;",7 !0F"
001013:  254000000776  jrst     776             ;"5@  '^"
001014:  306140000056  cain     c, 56           ;"8Q@  N"
001015:  254000001025  jrst     1025            ;"5@  (5"
001016:  602200000004  trne     d, hilin        ;"P2   $"
001017:  254000001023  jrst     1023            ;"5@  (3"
001020:  661400210000  tlo      ii, 210000      ;"V, 1  "
001021:  550340012047  hrrz     i, 12047        ;"M#@!0G"
001022:  254000001352  jrst     1352            ;"5@  +J"
001023:  326100001020  jumpn    b, 1020         ;":Q  (0"
001024:  254000007242  jrst     7242            ;"5@  ZB"
001025:  326100001020  jumpn    b, 1020         ;":Q  (0"
001026:  200140012246  move     c, 12246        ;"0!@!2F"
001027:  202140012047  movem    c, 12047        ;"01@!0G"
001030:  201700000010  movei    16, lasuuo      ;"0/   ("
001031:  260740001203  pushj    q, 1203         ;"6'@ *#"
001032:  260740000646  pushj    q, 646          ;"6'@ &F"
001033:  606200000002  trnn     d, chnl         ;"PR   ""
001034:  254000001046  jrst     1046            ;"5@  (F"
001035:  326100001046  jumpn    b, 1046         ;":Q  (F"
001036:  405140000017  andi     c, q            ;"@I@  /"
001037:  132140000233  fsc      c, 233          ;"+1@ ";"
001040:  164140012047  fmpr     c, 12047        ;".A@!0G"
001041:  146140012046  fadrm    c, 12046        ;",Q@!0F"
001042:  200700012047  move     16, 12047       ;"0' !0G"
001043:  174700012351  fdvr     16, 12351       ;"/G !3I"
001044:  202700012047  movem    16, 12047       ;"07 !0G"
001045:  254000001032  jrst     1032            ;"5@  (:"
001046:  606200000004  trnn     d, hilin        ;"PR   $"
001047:  254000001052  jrst     1052            ;"5@  (J"
001050:  326100001052  jumpn    b, 1052         ;":Q  (J"
001051:  254000007242  jrst     7242            ;"5@  ZB"
001052:  661400230000  tlo      ii, 230000      ;"V, 3  "
001053:  200700012046  move     16, 12046       ;"0' !0F"
001054:  202700012047  movem    16, 12047       ;"07 !0G"
001055:  263740000000  popj     q,              ;"6?@   "
001056:  332000000002  skipe    b               ;";0   ""
001057:  254000000752  jrst     752             ;"5@  'J"
001060:  602200002000  trne     d, %kmode       ;"P2  0 "
001061:  260740000646  pushj    q, 646          ;"6'@ &F"
001062:  402000012052  setzm    12052           ;"@0 !0J"
001063:  200240012334  move     e, 12334        ;"0"@!3<"
001064:  202240001126  movem    e, 1126         ;"02@ )6"
001065:  275140000040  subi     c, %order       ;"7I@  @"
001066:  136140001126  idpb     c, 1126         ;"+Q@ )6"
001067:  602200001000  trne     d, nfiles       ;"P2  ( "
001070:  260740001117  pushj    q, 1117         ;"6'@ )/"
001071:  275140000026  subi     c, comlen       ;"7I@  6"
001072:  602200000002  trne     d, chnl         ;"P2   ""
001073:  271140000007  addi     c, i            ;"7)@  '"
001074:  202140012045  movem    c, 12045        ;"01@!0E"
001075:  201700000006  movei    16, p           ;"0/   &"
001076:  260740000646  pushj    q, 646          ;"6'@ &F"
001077:  606200000006  trnn     d, p            ;"PR   &"
001100:  254000001271  jrst     1271            ;"5@  *Y"
001101:  326100001271  jumpn    b, 1271         ;":Q  *Y"
001102:  363700001076  sojle    16, 1076        ;">?  (^"
001103:  275140000040  subi     c, %order       ;"7I@  @"
001104:  136140001126  idpb     c, 1126         ;"+Q@ )6"
001105:  602200001000  trne     d, nfiles       ;"P2  ( "
001106:  260740001117  pushj    q, 1117         ;"6'@ )/"
001107:  275140000026  subi     c, comlen       ;"7I@  6"
001110:  602200000002  trne     d, chnl         ;"P2   ""
001111:  271140000007  addi     c, i            ;"7)@  '"
001112:  250140012045  exch     c, 12045        ;"5!@!0E"
001113:  221140000050  imuli    c, 50           ;"2)@  H"
001114:  273140012045  addb     c, 12045        ;"79@!0E"
001115:  202140012047  movem    c, 12047        ;"01@!0G"
001116:  254000001076  jrst     1076            ;"5@  (^"
001117:  306140000005  cain     c, lolin        ;"8Q@  %"
001120:  201140000075  movei    c, jobjda       ;"0)@  ]"
001121:  306140000004  cain     c, hilin        ;"8Q@  $"
001122:  201140000074  movei    c, jobddt       ;"0)@  \"
001123:  306140000016  cain     c, 16           ;"8Q@  ."
001124:  201140000073  movei    c, jobpc        ;"0)@  ["
001125:  263740000000  popj     q,              ;"6?@   "
001126:  140600012052  fad      j, 12052        ;",& !0J"
001127:  326100001424  jumpn    b, 1424         ;":Q  ,4"
001130:  201700000012  movei    16, l           ;"0/   *"
001131:  260740001203  pushj    q, 1203         ;"6'@ *#"
001132:  200140012457  move     c, 12457        ;"0!@!4O"
001133:  202140001004  movem    c, 1004         ;"01@ ($"
001134:  260740000646  pushj    q, 646          ;"6'@ &F"
001135:  602200000002  trne     d, chnl         ;"P2   ""
001136:  254000000773  jrst     773             ;"5@  '["
001137:  254000001024  jrst     1024            ;"5@  (4"
001140:  326100001206  jumpn    b, 1206         ;":Q  *&"
001141:  201500000005  movei    l, lolin        ;"0-   %"
001142:  201700000007  movei    16, i           ;"0/   '"
001143:  260740001203  pushj    q, 1203         ;"6'@ *#"
001144:  201700000000  movei    16, ufdc        ;"0/    " " <\0\0\0"
001145:  211452777764  movni    f, 777764(l)    ;"1,J__T"
001146:  260740000613  pushj    q, 613          ;"6'@ &+"
001147:  200340000003  move     i, c            ;"0#@  #"
001150:  260740000613  pushj    q, 613          ;"6'@ &+"
001151:  316140000007  camn     c, i            ;"9Q@  '"
001152:  254000001170  jrst     1170            ;"5@  )X"
001153:  137140012253  dpb      c, 12253        ;"+Y@!2K"
001154:  242151777771  lsh      c, 777771(f)    ;"41I__Y"
001155:  242711000000  lsh      16, (f)         ;"47)   " "(\\H\0\0"
001156:  434700000003  ior      16, c           ;"CG   #"
001157:  367500001150  sojg     l, 1150         ;">]  )H"
001160:  260740000613  pushj    q, 613          ;"6'@ &+"
001161:  312140000007  came     c, i            ;"91@  '"
001162:  254000001160  jrst     1160            ;"5@  )P"
001163:  242711777772  lsh      16, 777772(f)   ;"47)__Z"
001164:  202700012047  movem    16, 12047       ;"07 !0G"
001165:  661400200000  tlo      ii, %tty        ;"V, 0  "
001166:  263740000000  popj     q,              ;"6?@   "
001167:  242711000000  lsh      16, (f)         ;"47)   " "(\\H\0\0"
001170:  365500001167  sojge    l, 1167         ;">M  )W"
001171:  254000001163  jrst     1163            ;"5@  )S"
001172:  201500000006  movei    l, p            ;"0-   &"
001173:  201700000006  movei    16, p           ;"0/   &"
001174:  322100001143  jumpe    b, 1143         ;":1  )C"
001175:  661400214000  tlo      ii, 214000      ;"V, 1@ "
001176:  201700000005  movei    16, lolin       ;"0/   %"
001177:  260740001203  pushj    q, 1203         ;"6'@ *#"
001200:  402000012045  setzm    12045           ;"@0 !0E"
001201:  201700000007  movei    16, i           ;"0/   '"
001202:  254000001076  jrst     1076            ;"5@  (^"
001203:  607400000040  tlnn     ii, %order      ;"P\   @"
001204:  202700000441  movem    16, 441         ;"07  $A"
001205:  263740000000  popj     q,              ;"6?@   "
001206:  200440012114  move     f, 12114        ;"0$@!1,"
001207:  402000000442  setzm    442             ;"@0  $B"
001210:  251440000501  blt      f, 501          ;"5,@ %!"
001211:  200440012312  move     f, 12312        ;"0$@!3*"
001212:  051340002126  setlin   2126            ;"%+@ 16"
001213:  201700000230  movei    16, 230         ;"0/  "8"
001214:  260740000613  pushj    q, 613          ;"6'@ &+"
001215:  200340000003  move     i, c            ;"0#@  #"
001216:  201500000042  movei    l, joberr       ;"0-   B"
001217:  136500000011  idpb     l, f            ;"+U   )"
001220:  136340000011  idpb     i, f            ;"+S@  )"
001221:  201500000005  movei    l, lolin        ;"0-   %"
001222:  260740000613  pushj    q, 613          ;"6'@ &+"
001223:  316140000007  camn     c, i            ;"9Q@  '"
001224:  254000001241  jrst     1241            ;"5@  *A"
001225:  326500001236  jumpn    l, 1236         ;":U  *>"
001226:  136340000011  idpb     i, f            ;"+S@  )"
001227:  201500000076  movei    l, 76           ;"0-   ^"
001230:  136500000011  idpb     l, f            ;"+U   )"
001231:  201500000042  movei    l, joberr       ;"0-   B"
001232:  136500000011  idpb     l, f            ;"+U   )"
001233:  136340000011  idpb     i, f            ;"+S@  )"
001234:  201500000005  movei    l, lolin        ;"0-   %"
001235:  275700000004  subi     16, hilin       ;"7O   $"
001236:  136140000011  idpb     c, f            ;"+Q@  )"
001237:  361700012212  sojl     16, 12212       ;">/ !2*"
001240:  364500001222  soja     l, 1222         ;">E  *2"
001241:  136340000011  idpb     i, f            ;"+S@  )"
001242:  201500000015  movei    l, ntpcw        ;"0-   -"
001243:  136500000011  idpb     l, f            ;"+U   )"
001244:  201500000012  movei    l, l            ;"0-   *"
001245:  136500000011  idpb     l, f            ;"+U   )"
001246:  200500012312  move     l, 12312        ;"0% !3*"
001247:  202500000502  movem    l, 502          ;"05  %""
001250:  051340002127  setlin   2127            ;"%+@ 17"
001251:  621400010000  tlz      ii, %ddels      ;"R, !  "
001252:  254000000732  jrst     732             ;"5@  ':"
001253:  261740000142  push     q, 142          ;"6/@ !B"
001254:  261740000016  push     q, 16           ;"6/@  ."
001255:  261740000007  push     q, i            ;"6/@  '"
001256:  261740000012  push     q, l            ;"6/@  *"
001257:  261740000013  push     q, k            ;"6/@  +"
001260:  205540000400  movsi    k, %tcore       ;"0M@ $ "
001261:  260740007606  pushj    q, 7606         ;"6'@ ^&"
001262:  260740000732  pushj    q, 732          ;"6'@ ':"
001263:  262740000013  pop      q, k            ;"67@  +"
001264:  262740000012  pop      q, l            ;"67@  *"
001265:  262740000007  pop      q, i            ;"67@  '"
001266:  262740000016  pop      q, 16           ;"67@  ."
001267:  262740000142  pop      q, 142          ;"67@ !B"
001270:  254000001363  jrst     1363            ;"5@  +S"
001271:  201700000001  movei    16, fncn        ;"0/   !"
001272:  260740001203  pushj    q, 1203         ;"6'@ *#"
001273:  306140000046  cain     c, alpha        ;"8Q@  F"
001274:  322100001253  jumpe    b, 1253         ;":1  *K"
001275:  603400004000  tlne     ii, %xtsrt      ;"P<  @ "
001276:  263740000000  popj     q,              ;"6?@   "
001277:  550340000214  hrrz     i, 214          ;"M#@ ","
001300:  201700000045  movei    16, jobblt      ;"0/   E"
001301:  316700012045  camn     16, 12045       ;"9W !0E"
001302:  254000001347  jrst     1347            ;"5@  +G"
001303:  607400000040  tlnn     ii, %order      ;"P\   @"
001304:  260740006534  pushj    q, 6534         ;"6'@ U<"
001305:  201700000007  movei    16, i           ;"0/   '"
001306:  200340012045  move     i, 12045        ;"0#@!0E"
001307:  312356000527  came     i, 527(16)      ;"93N %7"
001310:  365700001307  sojge    16, 1307        ;">O  +'"
001311:  321700001314  jumpl    16, 1314        ;":/  +,"
001312:  200716000537  move     16, 537(16)     ;"0'. %?"
001313:  254000001346  jrst     1346            ;"5@  +F"
001314:  335700000142  skipge   16, 142         ;";O  !B"
001315:  254000001421  jrst     1421            ;"5@  ,1"
001316:  200356000001  move     i, fncn(16)     ;"0#N  !"
001317:  202340012051  movem    i, 12051        ;"03@!0I"
001320:  205440200000  movsi    f, %tty         ;"0L@0  "
001321:  574500000116  hlre     l, jobsym       ;"OE  !."
001322:  240500777777  ash      l, 777777       ;"4% ___"
001323:  274700012501  sub      16, 12501       ;"7G !5!"
001324:  345500001421  aojge    l, 1421         ;"<M  ,1"
001325:  325700001327  jumpge   16, 1327        ;":O  +7"
001326:  260740001367  pushj    q, 1367         ;"6'@ +W"
001327:  612456000000  tdne     f, (16)         ;"Q4N   " "bRp\0\0"
001330:  254000001323  jrst     1323            ;"5@  +3"
001331:  135340012326  ldb      i, 12326        ;"+K@!36"
001332:  306340000003  cain     i, colm         ;"8S@  #"
001333:  254000001400  jrst     1400            ;"5@  , "
001334:  322340001376  jumpe    i, 1376         ;":3@ +^"
001335:  135340012322  ldb      i, 12322        ;"+K@!32"
001336:  312340012045  came     i, 12045        ;"93@!0E"
001337:  254000001323  jrst     1323            ;"5@  +3"
001340:  375340000525  sosge    i, 525          ;"?K@ %5"
001341:  201340000007  movei    i, i            ;"0+@  '"
001342:  202340000525  movem    i, 525          ;"03@ %5"
001343:  200440012045  move     f, 12045        ;"0$@!0E"
001344:  202447000527  movem    f, 527(i)       ;"04G %7"
001345:  202707000537  movem    16, 537(i)      ;"07' %?"
001346:  200356000001  move     i, fncn(16)     ;"0#N  !"
001347:  202340012047  movem    i, 12047        ;"03@!0G"
001350:  202700012050  movem    16, 12050       ;"07 !0H"
001351:  661400310000  tlo      ii, 310000      ;"V, 9  "
001352:  306140000056  cain     c, 56           ;"8Q@  N"
001353:  302100000001  caie     b, fncn         ;"81   !"
001354:  263740000000  popj     q,              ;"6?@   "
001355:  621400010000  tlz      ii, %ddels      ;"R, !  "
001356:  402000000441  setzm    441             ;"@0  $A"
001357:  264000007772  jsr      7772            ;"6@  _Z"
001360:  254000012377  jrst     12377           ;"5@ !3_"
001361:  254000000762  jrst     762             ;"5@  'R"
001362:  263740000000  popj     q,              ;"6?@   "
001363:  476000000527  setom    527             ;"GP  %7"
001364:  200340012263  move     i, 12263        ;"0#@!2S"
001365:  251340000576  blt      i, 576          ;"5+@ %^"
001366:  263740000000  popj     q,              ;"6?@   "
001367:  574340000116  hlre     i, jobsym       ;"OC@ !."
001370:  213000000007  movns    ufdc, i         ;"18   '"
001371:  201707777776  movei    16, 777776(i)   ;"0/'__^"
001372:  270700000116  add      16, jobsym      ;"7'  !."
001373:  504700000007  hrl      16, i           ;"HG   '"
001374:  350000007125  aos      7125            ;"=   Y5"
001375:  263740000000  popj     q,              ;"6?@   "
001376:  661440100000  tlo      f, %szsrt       ;"V,@(  "
001377:  254000001323  jrst     1323            ;"5@  +3"
001400:  200356000001  move     i, fncn(16)     ;"0#N  !"
001401:  315340012051  camge    i, 12051        ;"9K@!0I"
001402:  254000012300  jrst     12300           ;"5@ !3 "
001403:  205340040000  movsi    i, %fast        ;"0K@$  "
001404:  274700012501  sub      16, 12501       ;"7G !5!"
001405:  345500001421  aojge    l, 1421         ;"<M  ,1"
001406:  325700001410  jumpge   16, 1410        ;":O  ,("
001407:  260740001367  pushj    q, 1367         ;"6'@ +W"
001410:  616356000000  tdnn     i, (16)         ;"QSN   " "cNp\0\0"
001411:  254000001404  jrst     1404            ;"5@  ,$"
001412:  135340012326  ldb      i, 12326        ;"+K@!36"
001413:  306340000003  cain     i, colm         ;"8S@  #"
001414:  254000001400  jrst     1400            ;"5@  , "
001415:  135340012322  ldb      i, 12322        ;"+K@!32"
001416:  312340012045  came     i, 12045        ;"93@!0E"
001417:  254000001403  jrst     1403            ;"5@  ,#"
001420:  254000001340  jrst     1340            ;"5@  +@"
001421:  260740002314  pushj    q, 2314         ;"6'@ 3,"
001422:  665400150000  tloa     ii, 150000      ;"VL -  "
001423:  661400310000  tlo      ii, 310000      ;"V, 9  "
001424:  263740000000  popj     q,              ;"6?@   "
001425:  261740000006  push     q, p            ;"6/@  &"
001426:  261740000015  push     q, ntpcw        ;"6/@  -"
001427:  261740000010  push     q, ii           ;"6/@  ("
001430:  660400200000  tro      ii, %tty        ;"V$ 0  "
001431:  260740001573  pushj    q, 1573         ;"6'@ -["
001432:  607400000020  tlnn     ii, qpds        ;"P\   0"
001433:  607400002000  tlnn     ii, %kmode      ;"P\  0 "
001434:  254000007242  jrst     7242            ;"5@  ZB"
001435:  405700000077  andi     16, 77          ;"@O   _"
001436:  402000001514  setzm    1514            ;"@0  -,"
001437:  402000001511  setzm    1511            ;"@0  -)"
001440:  322700001515  jumpe    16, 1515        ;":7  --"
001441:  212700001511  movnm    16, 1511        ;"17  -)"
001442:  607400000040  tlnn     ii, %order      ;"P\   @"
001443:  137700012274  dpb      16, 12274       ;"+_ !2\"
001444:  201240000044  movei    e, jobpdl       ;"0*@  D"
001445:  202240001512  movem    e, 1512         ;"02@ -*"
001446:  201240000001  movei    e, fncn         ;"0*@  !"
001447:  242256000000  lsh      e, (16)         ;"42N   " "(Jp\0\0"
001450:  275240000001  subi     e, fncn         ;"7J@  !"
001451:  202240001513  movem    e, 1513         ;"02@ -+"
001452:  260740001573  pushj    q, 1573         ;"6'@ -["
001453:  603400002000  tlne     ii, %kmode      ;"P<  0 "
001454:  254000007242  jrst     7242            ;"5@  ZB"
001455:  302140000054  caie     c, 54           ;"81@  L"
001456:  254000001472  jrst     1472            ;"5@  ,Z"
001457:  260740001573  pushj    q, 1573         ;"6'@ -["
001460:  607400002000  tlnn     ii, %kmode      ;"P\  0 "
001461:  254000001472  jrst     1472            ;"5@  ,Z"
001462:  603400000020  tlne     ii, qpds        ;"P<   0"
001463:  254000007242  jrst     7242            ;"5@  ZB"
001464:  200240001511  move     e, 1511         ;"0"@ -)"
001465:  273240001512  addb     e, 1512         ;"7:@ -*"
001466:  404700001513  and      16, 1513        ;"@G  -+"
001467:  242705000000  lsh      16, (e)         ;"47%   " "(\\(\0\0"
001470:  436700001514  iorm     16, 1514        ;"CW  -,"
001471:  254000001452  jrst     1452            ;"5@  ,J"
001472:  262740000015  pop      q, ntpcw        ;"67@  -"
001473:  404640001510  and      ntpcw, 1510     ;"@F@ -("
001474:  420400001510  andcm    ii, 1510        ;"B$  -("
001475:  434400000015  ior      ii, ntpcw       ;"CD   -"
001476:  200640001514  move     ntpcw, 1514     ;"0&@ -,"
001477:  202640012047  movem    ntpcw, 12047    ;"06@!0G"
001500:  262740000015  pop      q, ntpcw        ;"67@  -"
001501:  262740000006  pop      q, p            ;"67@  &"
001502:  661400210000  tlo      ii, 210000      ;"V, 1  "
001503:  210700001511  movn     16, 1511        ;"1'  -)"
001504:  242700000006  lsh      16, p           ;"47   &"
001505:  660700000011  tro      16, f           ;"V'   )"
001506:  202700000441  movem    16, 441         ;"07  $A"
001507:  263740000000  popj     q,              ;"6?@   "
001510:  002762300000                           ;" 7R8  "
001511:  000000000000                           ;"      "
001512:  000000000000                           ;"      "
001513:  000000000000                           ;"      "
001514:  000000000000                           ;"      "
001515:  331240010524  skipl    e, 10524        ;";*@!%4"
001516:  450240000000  setca    e,              ;"E"@   " "J\n\0\0\0"
001517:  202240001513  movem    e, 1513         ;"02@ -+"
001520:  260740001573  pushj    q, 1573         ;"6'@ -["
001521:  603400002000  tlne     ii, %kmode      ;"P<  0 "
001522:  254000007242  jrst     7242            ;"5@  ZB"
001523:  302140000054  caie     c, 54           ;"81@  L"
001524:  254000001472  jrst     1472            ;"5@  ,Z"
001525:  260740001573  pushj    q, 1573         ;"6'@ -["
001526:  607400002000  tlnn     ii, %kmode      ;"P\  0 "
001527:  254000001472  jrst     1472            ;"5@  ,Z"
001530:  603400000020  tlne     ii, qpds        ;"P<   0"
001531:  254000007242  jrst     7242            ;"5@  ZB"
001532:  201240000044  movei    e, jobpdl       ;"0*@  D"
001533:  201300000000  movei    p, ufdc         ;"0+    " " ,\0\0\0"
001534:  336640001513  skipn    ntpcw, 1513     ;";V@ -+"
001535:  254000001520  jrst     1520            ;"5@  -0"
001536:  321640001542  jumpl    ntpcw, 1542     ;":.@ -B"
001537:  275240000001  subi     e, fncn         ;"7J@  !"
001540:  242640000001  lsh      ntpcw, a        ;"46@  !"
001541:  325640001537  jumpge   ntpcw, 1537     ;":N@ -?"
001542:  271300000001  addi     p, fncn         ;"7+   !"
001543:  242640000001  lsh      ntpcw, a        ;"46@  !"
001544:  321640001542  jumpl    ntpcw, 1542     ;":.@ -B"
001545:  200640000005  move     ntpcw, e        ;"0&@  %"
dirlen:
001546:  241300777772  rot      p, 777772       ;"4+ __Z"
001547:  246240777772  lshc     e, 777772       ;"4R@__Z"
001550:  271300001514  addi     p, 1514         ;"7+  -,"
001551:  136700000006  idpb     16, p           ;"+W   &"
001552:  241640777772  rot      ntpcw, 777772   ;"4.@__Z"
001553:  201700000000  movei    16, ufdc        ;"0/    " " <\0\0\0"
001554:  434640012242  ior      ntpcw, 12242    ;"CF@!2B"
001555:  462000001513  setcmm   1513            ;"F0  -+"
001556:  137700000015  dpb      16, ntpcw       ;"+_   -"
001557:  254000001520  jrst     1520            ;"5@  -0"
001560:  260740000732  pushj    q, 732          ;"6'@ ':"
001561:  603400100000  tlne     ii, %szsrt      ;"P< (  "
001562:  607400040000  tlnn     ii, %fast       ;"P\ $  "
001563:  263740000000  popj     q,              ;"6?@   "
001564:  261740000010  push     q, ii           ;"6/@  ("
001565:  260740000732  pushj    q, 732          ;"6'@ ':"
001566:  607400300000  tlnn     ii, 300000      ;"P\ 8  "
001567:  606200004000  trnn     d, %xtsrt       ;"PR  @ "
001570:  254000007237  jrst     7237            ;"5@  Z?"
001571:  262740000010  pop      q, ii           ;"67@  ("
001572:  263740000000  popj     q,              ;"6?@   "
001573:  621400002542  tlz      ii, 2542        ;"R,  5B"
001574:  620400100000  trz      ii, %szsrt      ;"R$ (  "
001575:  623400000200  tlze     ii, %nook       ;"R<  " "
001576:  263740000000  popj     q,              ;"6?@   "
001577:  260740001560  pushj    q, 1560         ;"6'@ -P"
001600:  607400300000  tlnn     ii, 300000      ;"P\ 8  "
001601:  254000001755  jrst     1755            ;"5@  /M"
001602:  603400100000  tlne     ii, %szsrt      ;"P< (  "
001603:  661400002420  tlo      ii, 2420        ;"V,  40"
001604:  603400040000  tlne     ii, %fast       ;"P< $  "
001605:  263740000000  popj     q,              ;"6?@   "
001606:  621400000020  tlz      ii, qpds        ;"R,   0"
001607:  661400000040  tlo      ii, %order      ;"V,   @"
001610:  200300012047  move     p, 12047        ;"0# !0G"
001611:  260740001560  pushj    q, 1560         ;"6'@ -P"
001612:  603400300000  tlne     ii, 300000      ;"P< 8  "
001613:  254000002002  jrst     2002            ;"5@  0""
001614:  602200000020  trne     d, qpds         ;"P2   0"
001615:  254000001630  jrst     1630            ;"5@  .8"
001616:  306140000054  cain     c, 54           ;"8Q@  L"
001617:  254000001767  jrst     1767            ;"5@  /W"
001620:  264000001750  jsr      1750            ;"6@  /H"
001621:  254000001611  jrst     1611            ;"5@  .)"
001622:  661400000100  tlo      ii, %displ      ;"V,  ! "
001623:  260740002034  pushj    q, 2034         ;"6'@ 0<"
001624:  254000002002  jrst     2002            ;"5@  0""
001625:  661400002200  tlo      ii, 2200        ;"V,  2 "
001626:  200700000006  move     16, p           ;"0'   &"
001627:  263740000000  popj     q,              ;"6?@   "
001630:  621400000400  tlz      ii, %tcore      ;"R,  $ "
001631:  302140000057  caie     c, 57           ;"81@  O"
001632:  306140000052  cain     c, 52           ;"8Q@  J"
001633:  254000001744  jrst     1744            ;"5@  /D"
001634:  306140000055  cain     c, 55           ;"8Q@  M"
001635:  254000001641  jrst     1641            ;"5@  .A"
001636:  306140000040  cain     c, %order       ;"8Q@  @"
001637:  661400000100  tlo      ii, %displ      ;"V,  ! "
001640:  334640012265  skipa    ntpcw, 12265    ;";F@!2U"
001641:  200640012462  move     ntpcw, 12462    ;"0&@!4R"
001642:  260740001560  pushj    q, 1560         ;"6'@ -P"
001643:  607400200000  tlnn     ii, %tty        ;"P\ 0  "
001644:  254000001731  jrst     1731            ;"5@  /9"
001645:  623400000002  tlze     ii, chnl        ;"R<   ""
001646:  213000012047  movns    ufdc, 12047     ;"18 !0G"
001647:  603400000100  tlne     ii, %displ      ;"P<  ! "
001650:  553000012047  hrrzs    ufdc, 12047     ;"M8 !0G"
001651:  261740012047  push     q, 12047        ;"6/@!0G"
001652:  260740001560  pushj    q, 1560         ;"6'@ -P"
001653:  603400200000  tlne     ii, %tty        ;"P< 0  "
001654:  254000002002  jrst     2002            ;"5@  0""
001655:  606200000020  trnn     d, qpds         ;"PR   0"
001656:  254000001717  jrst     1717            ;"5@  //"
001657:  306140000052  cain     c, 52           ;"8Q@  J"
001660:  254000001666  jrst     1666            ;"5@  .V"
001661:  306140000057  cain     c, 57           ;"8Q@  O"
001662:  254000001667  jrst     1667            ;"5@  .W"
001663:  256000000015  xct      ntpcw           ;"5P   -"
001664:  274740012346  sub      q, 12346        ;"7G@!3F"
001665:  254000001634  jrst     1634            ;"5@  .<"
001666:  334440012413  skipa    f, 12413        ;";D@!4+"
001667:  200440012464  move     f, 12464        ;"0$@!4T"
001670:  261740000011  push     q, f            ;"6/@  )"
001671:  260740001560  pushj    q, 1560         ;"6'@ -P"
001672:  262740000011  pop      q, f            ;"67@  )"
001673:  607400200000  tlnn     ii, %tty        ;"P\ 0  "
001674:  254000001701  jrst     1701            ;"5@  /!"
001675:  200240012047  move     e, 12047        ;"0"@!0G"
001676:  250257000000  exch     e, (q)          ;"5"O   " "*\nx\0\0"
001677:  256000000011  xct      f               ;"5P   )"
001700:  254000001652  jrst     1652            ;"5@  .J"
001701:  260740002034  pushj    q, 2034         ;"6'@ 0<"
001702:  254000001675  jrst     1675            ;"5@  .]"
001703:  264000001750  jsr      1750            ;"6@  /H"
001704:  254000001670  jrst     1670            ;"5@  .X"
001705:  302140000040  caie     c, %order       ;"81@  @"
001706:  306140000053  cain     c, 53           ;"8Q@  K"
001707:  254000001670  jrst     1670            ;"5@  .X"
001710:  302140000055  caie     c, 55           ;"81@  M"
001711:  254000007242  jrst     7242            ;"5@  ZB"
001712:  260740001560  pushj    q, 1560         ;"6'@ -P"
001713:  607400200000  tlnn     ii, %tty        ;"P\ 0  "
001714:  254000007242  jrst     7242            ;"5@  ZB"
001715:  210240012047  movn     e, 12047        ;"1"@!0G"
001716:  254000001676  jrst     1676            ;"5@  .^"
001717:  306140000054  cain     c, 54           ;"8Q@  L"
001720:  254000002007  jrst     2007            ;"5@  0'"
001721:  264000001750  jsr      1750            ;"6@  /H"
001722:  254000001652  jrst     1652            ;"5@  .J"
001723:  256000000015  xct      ntpcw           ;"5P   -"
001724:  274740012346  sub      q, 12346        ;"7G@!3F"
001725:  661000000100  tlo      ufdc, %displ    ;"V(  ! "
001726:  260740002034  pushj    q, 2034         ;"6'@ 0<"
001727:  254000002002  jrst     2002            ;"5@  0""
001730:  254000001625  jrst     1625            ;"5@  .5"
001731:  260740002034  pushj    q, 2034         ;"6'@ 0<"
001732:  254000001645  jrst     1645            ;"5@  .E"
001733:  264000001750  jsr      1750            ;"6@  /H"
001734:  254000001642  jrst     1642            ;"5@  .B"
001735:  302140000040  caie     c, %order       ;"81@  @"
001736:  306140000053  cain     c, 53           ;"8Q@  K"
001737:  254000001642  jrst     1642            ;"5@  .B"
001740:  302140000055  caie     c, 55           ;"81@  M"
001741:  254000001625  jrst     1625            ;"5@  .5"
001742:  641400000002  tlc      ii, chnl        ;"T,   ""
001743:  254000001642  jrst     1642            ;"5@  .B"
001744:  200640012265  move     ntpcw, 12265    ;"0&@!2U"
001745:  201300000000  movei    p, ufdc         ;"0+    " " ,\0\0\0"
001746:  261740012047  push     q, 12047        ;"6/@!0G"
001747:  254000001657  jrst     1657            ;"5@  .O"
001750:  310000001622  cam      ufdc, 1622      ;"9   .2"
001751:  306140000100  cain     c, %displ       ;"8Q@ ! "
001752:  665300000020  tloa     p, qpds         ;"VK   0"
001753:  350000001750  aos      1750            ;"=   /H"
001754:  254020001750  jrst     @1750           ;"5@0 /H"
001755:  260740002034  pushj    q, 2034         ;"6'@ 0<"
001756:  254000001610  jrst     1610            ;"5@  .("
001757:  306140000040  cain     c, %order       ;"8Q@  @"
001760:  254000001573  jrst     1573            ;"5@  -["
001761:  302140000100  caie     c, %displ       ;"81@ ! "
001762:  254000012313  jrst     12313           ;"5@ !3+"
001763:  326100001424  jumpn    b, 1424         ;":Q  ,4"
001764:  205300000020  movsi    p, qpds         ;"0K   0"
001765:  661000000040  tlo      ufdc, %order    ;"V(   @"
001766:  254000001611  jrst     1611            ;"5@  .)"
001767:  602400200000  trne     ii, %tty        ;"P4 0  "
001770:  254000001625  jrst     1625            ;"5@  .5"
001771:  517000000006  hrlzs    ufdc, p         ;"IX   &"
001772:  661400000100  tlo      ii, %displ      ;"V,  ! "
001773:  260740001560  pushj    q, 1560         ;"6'@ -P"
001774:  607400200000  tlnn     ii, %tty        ;"P\ 0  "
001775:  254000002004  jrst     2004            ;"5@  0$"
001776:  602400100000  trne     ii, %szsrt      ;"P4 (  "
001777:  254000012207  jrst     12207           ;"5@ !2'"
%kmode:
002000:  242300000005  lsh      p, e            ;"43   %"
002001:  621300777000  tlz      p, 777000       ;"R+ _X "
002002:  200640012265  move     ntpcw, 12265    ;"0&@!2U"
002003:  254000001643  jrst     1643            ;"5@  .C"
002004:  306140000054  cain     c, 54           ;"8Q@  L"
002005:  254000001640  jrst     1640            ;"5@  .@"
002006:  254000001776  jrst     1776            ;"5@  /^"
002007:  602400200000  trne     ii, %tty        ;"P4 0  "
002010:  254000001723  jrst     1723            ;"5@  /3"
002011:  260740001560  pushj    q, 1560         ;"6'@ -P"
002012:  607400200000  tlnn     ii, %tty        ;"P\ 0  "
002013:  254000002026  jrst     2026            ;"5@  06"
002014:  200457000000  move     f, (q)          ;"0$O   "
002015:  602400100000  trne     ii, %szsrt      ;"P4 (  "
002016:  254000012204  jrst     12204           ;"5@ !2$"
002017:  405440000017  andi     f, q            ;"@L@  /"
002020:  242440000027  lsh      f, jobdpg       ;"44@  7"
002021:  202457000000  movem    f, (q)          ;"04O   " " Rx\0\0"
002022:  256000000015  xct      ntpcw           ;"5P   -"
002023:  274740012346  sub      q, 12346        ;"7G@!3F"
002024:  661400000100  tlo      ii, %displ      ;"V,  ! "
002025:  254000002002  jrst     2002            ;"5@  0""
002026:  302140000054  caie     c, 54           ;"81@  L"
002027:  254000002014  jrst     2014            ;"5@  0,"
002030:  256000000015  xct      ntpcw           ;"5P   -"
002031:  274740012346  sub      q, 12346        ;"7G@!3F"
002032:  517000000006  hrlzs    ufdc, p         ;"IX   &"
002033:  254000001637  jrst     1637            ;"5@  .?"
002034:  302140000050  caie     c, 50           ;"81@  H"
002035:  254000002057  jrst     2057            ;"5@  0O"
002036:  261740000006  push     q, p            ;"6/@  &"
002037:  261740000011  push     q, f            ;"6/@  )"
002040:  261740000015  push     q, ntpcw        ;"6/@  -"
002041:  260740001573  pushj    q, 1573         ;"6'@ -["
002042:  607400002000  tlnn     ii, %kmode      ;"P\  0 "
002043:  254000007242  jrst     7242            ;"5@  ZB"
002044:  261740000016  push     q, 16           ;"6/@  ."
002045:  260740001573  pushj    q, 1573         ;"6'@ -["
002046:  306140000051  cain     c, 51           ;"8Q@  I"
002047:  603400102400  tlne     ii, 102400      ;"P< (4 "
002050:  254000007242  jrst     7242            ;"5@  ZB"
002051:  262740012047  pop      q, 12047        ;"67@!0G"
002052:  207000012047  movss    ufdc, 12047     ;"0X !0G"
002053:  262740000015  pop      q, ntpcw        ;"67@  -"
002054:  262740000011  pop      q, f            ;"67@  )"
002055:  262740000006  pop      q, p            ;"67@  &"
002056:  665400202040  tloa     ii, 202040      ;"VL 00@"
002057:  350017000000  aos      (q)             ;"= /   "
002060:  263740000000  popj     q,              ;"6?@   "
002061:  000000007156                           ;"    YN"
002062:  332000000220  skipe    220             ;";0  "0"
002063:  254000002101  jrst     2101            ;"5@  1!"
002064:  202740000440  movem    q, 440          ;"07@ $@"
002065:  201740000421  movei    q, 421          ;"0/@ $1"
002066:  251740000437  blt      q, 437          ;"5/@ $?"
002067:  477700000220  setob    16, 220         ;"G_  "0"
002070:  051300000016  getlin   16              ;"%+   ."
002071:  202700002124  movem    16, 2124        ;"07  14"
002072:  661700000100  tlo      16, %displ      ;"V/  ! "
002073:  202700002127  movem    16, 2127        ;"07  17"
002074:  621700000100  tlz      16, %displ      ;"R/  ! "
002075:  202700002126  movem    16, 2126        ;"07  16"
002076:  661700000020  tlo      16, qpds        ;"V/   0"
002077:  202700002125  movem    16, 2125        ;"07  15"
002100:  051640012113  setact   12113           ;"%.@!1+"
002101:  205740000174  movsi    q, 174          ;"0O@ !\"
002102:  251740000017  blt      q, q            ;"5/@  /"
002103:  553000002061  hrrzs    ufdc, 2061      ;"M8  0Q"
002104:  254120002061  jrstf    @2061           ;"5A0 0Q"
002105:  310000011376  cam      ufdc, 11376     ;"9  !+^"
002106:  336000000220  skipn    220             ;";P  "0"
002107:  254020002105  jrst     @2105           ;"5@0 1%"
002110:  402000000220  setzm    220             ;"@0  "0"
002111:  051340002124  setlin   2124            ;"%+@ 14"
002112:  202740000213  movem    q, 213          ;"07@ "+"
002113:  201740000174  movei    q, 174          ;"0/@ !\"
002114:  251740000212  blt      q, 212          ;"5/@ "*"
002115:  200000011010  move     ufdc, $i        ;"0  !(("
002116:  603000004000  tlne     ufdc, %xtsrt    ;"P8  @ "
002117:  047000400005  eiotm                    ;"$X @ %"
002120:  205740000421  movsi    q, 421          ;"0O@ $1"
002121:  251740000017  blt      q, q            ;"5/@  /"
002122:  051640012112  setact   12112           ;"%.@!1*"
002123:  254020002105  jrst     @2105           ;"5@0 1%"
002124:  020020000040                           ;"" 0  @"
002125:  020020000040                           ;"" 0  @"
002126:  020020000040                           ;"" 0  @"
002127:  020120000040                           ;""!0  @"
002130:  202740000213  movem    q, 213          ;"07@ "+"
002131:  201740000174  movei    q, 174          ;"0/@ !\"
002132:  251740000212  blt      q, 212          ;"5/@ "*"
002133:  200740000213  move     q, 213          ;"0'@ "+"
002134:  263740000000  popj     q,              ;"6?@   "
002135:  010000007157  %ddels,,                 ;"!   YO"
002136:  254000002216  jrst     2216            ;"5@  2."
002137:  200740012103  move     q, 12103        ;"0'@!1#"
002140:  201340000140  movei    i, $bgddt       ;"0+@ !@"
002141:  306340000140  cain     i, $bgddt       ;"8S@ !@"
002142:  201340012502  movei    i, bp7          ;"0+@!5""
002143:  202340010421  movem    i, 10421        ;"03@!$1"
002144:  202340010420  movem    i, 10420        ;"03@!$0"
002145:  200340000116  move     i, jobsym       ;"0#@ !."
002146:  202340012076  movem    i, 12076        ;"03@!0^"
002147:  201347777760  movei    i, 777760(i)    ;"0+G__P"
002150:  311340000121  caml     i, jobff        ;"9+@ !1"
002151:  550340000121  hrrz     i, jobff        ;"M#@ !1"
002152:  306340012502  cain     i, bp7          ;"8S@!5""
002153:  201340000140  movei    i, $bgddt       ;"0+@ !@"
002154:  202340010424  movem    i, 10424        ;"03@!$4"
002155:  202340010423  movem    i, 10423        ;"03@!$3"
002156:  201340000106  movei    i, jobcn6       ;"0+@ !&"
002157:  202340007251  movem    i, 7251         ;"03@ ZI"
002160:  476000000217  setom    217             ;"GP  "/"
002161:  204600000172  movs     j, 172          ;"0F  !Z"
002162:  200340000014  move     i, j            ;"0#@  ,"
002163:  274600012346  sub      j, 12346        ;"7F !3F"
002164:  201500000027  movei    l, jobdpg       ;"0-   7"
002165:  402007000000  setzm    (i)             ;"@0'   " "@@8\0\0"
002166:  271340000001  addi     i, fncn         ;"7+@  !"
002167:  367500002165  sojg     l, 2165         ;">]  1U"
002170:  403400003266  setzb    ii, 3266        ;"@<  :V"
002171:  476000000215  setom    215             ;"GP  "-"
002172:  476000000214  setom    214             ;"GP  ","
002173:  402000000441  setzm    441             ;"@0  $A"
002174:  403140004375  setzb    c, 4375         ;"@9@ C]"
002175:  205540000400  movsi    k, %tcore       ;"0M@ $ "
002176:  564700000116  hlro     16, jobsym      ;"NG  !."
002177:  210700000016  movn     16, 16          ;"1'   ."
002200:  270700000116  add      16, jobsym      ;"7'  !."
002201:  200356777776  move     i, 777776(16)   ;"0#N__^"
002202:  312340012347  came     i, 12347        ;"93@!3G"
002203:  316340012345  camn     i, 12345        ;"9S@!3E"
002204:  254000002241  jrst     2241            ;"5@  2A"
002205:  554116777777  hlrz     b, 777777(16)   ;"MA.___"
002206:  322100002237  jumpe    b, 2237         ;":1  2?"
002207:  301100777772  cail     b, 777772       ;"8) __Z"
002210:  254000002237  jrst     2237            ;"5@  2?"
002211:  202340012045  movem    i, 12045        ;"03@!0E"
002212:  260740007512  pushj    q, 7512         ;"6'@ ]*"
002213:  205340254000  movsi    i, 254000       ;"0K@5@ "
002214:  502340002136  hllm     i, 2136         ;"H3@ 1>"
002215:  254020002135  jrst     @2135           ;"5@0 1="
002216:  200500000116  move     l, jobsym       ;"0%  !."
002217:  274500012076  sub      l, 12076        ;"7E !0^"
002220:  322520002135  jumpe    l, @2135        ;":50 1="
002221:  261740002135  push     q, 2135         ;"6/@ 1="
002222:  272500012076  addm     l, 12076        ;"75 !0^"
002223:  570700000012  hrre     16, l           ;"O'   *"
002224:  312700000012  came     16, l           ;"97   *"
002225:  254000007660  jrst     7660            ;"5@  ^P"
002226:  272500000142  addm     l, 142          ;"75  !B"
002227:  272500000141  addm     l, 141          ;"75  !A"
002230:  201700000010  movei    16, lasuuo      ;"0/   ("
002231:  332016000505  skipe    505(16)         ;";0. %%"
002232:  272516000505  addm     l, 505(16)      ;"75. %%"
002233:  332016000515  skipe    515(16)         ;";0. %-"
002234:  272516000515  addm     l, 515(16)      ;"75. %-"
002235:  365700002231  sojge    16, 2231        ;">O  29"
002236:  263740000000  popj     q,              ;"6?@   "
002237:  326140002241  jumpn    c, 2241         ;":Q@ 2A"
002240:  200140000007  move     c, i            ;"0!@  '"
002241:  574356777777  hlre     i, 777777(16)   ;"OCN___"
002242:  270700000007  add      16, i           ;"7'   '"
002243:  321340002201  jumpl    i, 2201         ;":+@ 2!"
002244:  336340000003  skipn    i, c            ;";S@  #"
002245:  200340012347  move     i, 12347        ;"0#@!3G"
002246:  254000002211  jrst     2211            ;"5@  2)"
002247:  000000416062                           ;"   APR"
002250:  000400006051  %tcore,,                 ;" $  PI"
002251:  001000515760  nfiles,,                 ;" ( IOP"
002252:  010000606460  %ddels,,                 ;"!  PTP"
002253:  010400606462                           ;"!$ PTR"
002254:  012000436471                           ;"!0 CTY"
002255:  112400546064                           ;")4 LPT"
002256:  120000004443                           ;"*   DC"
002257:  220400444342  imul     ii, 444342      ;"2$ DCB"
002260:  121000656443                           ;"*( UTC"
002261:  121400656463                           ;"*, UTS"
002262:  122000556443                           ;"*0 MTC"
002263:  122400556463                           ;"*4 MTS"
002264:  123000556455                           ;"*8 MTM"
002265:  130044436341                           ;"+ DCSA"
002266:  130444436342                           ;"+$DCSB"
002267:  131000445342                           ;"+( DKB"
002270:  134000664463  ildb     ufdc, 664463    ;"+@ VDS"
002271:  137000006053  dpb      ufdc, 6053      ;"+X  PK"
002272:  137400445154  dpb      ii, 445154      ;"+\ DIL"
002273:  140400006466  fad      ii, 6466        ;",$  TV"
002274:  143000004460  fadb     ufdc, 4460      ;",8  DP"
002275:  143400534244  fadb     ii, 534244      ;",< KBD"
002276:  144400446353  fadr     ii, 446353      ;",D DSK"
002277:  147000442121  fadrb    ufdc, 442121    ;",X D11"
002300:  147400432121  fadrb    ii, 432121      ;",\ C11"
002301:  150000605560  fsb      ufdc, 605560    ;"-  PMP"
002302:  150400514255  fsb      ii, 514255      ;"-$ IBM"
002303:  151000444444                           ;"-( DDD"
002304:  177400004163  fdvrb    ii, 4163        ;"/\  AS"
002305:  242400004144  lsh      ii, 4144        ;"44  AD"
002306:  244000704760  ashc     ufdc, 704760    ;"4@ XGP"
002307:  273060435453  addb     a, @435453      ;"78PCLK"
$iotab:
002310:  777777777777  conso    774, @777777(q) ;"______"
002311:  777777777777  conso    774, @777777(q) ;"______"
002312:  777777777777  conso    774, @777777(q) ;"______"
002313:  777777777777  conso    774, @777777(q) ;"______"
002314:  334340012052  skipa    i, 12052        ;";C@!0J"
002315:  242340777772  lsh      i, 777772       ;"43@__Z"
002316:  606340000077  trnn     i, 77           ;"PS@  _"
002317:  254000002315  jrst     2315            ;"5@  3-"
002320:  201500000045  movei    l, jobblt       ;"0-   E"
002321:  135440012456  ldb      f, 12456        ;"+L@!4N"
002322:  312440000007  came     f, i            ;"94@  '"
002323:  367500002321  sojg     l, 2321         ;">]  31"
002324:  322500001424  jumpe    l, 1424         ;":5  ,4"
002325:  135440012332  ldb      f, 12332        ;"+L@!3:"
002326:  242440000002  lsh      f, b            ;"44@  ""
002327:  202440012047  movem    f, 12047        ;"04@!0G"
002330:  350017000000  aos      (q)             ;"= /   "
002331:  263740000000  popj     q,              ;"6?@   "
002332:  000000000000                           ;"      "
002333:  004010043454                           ;" @($<L"
002334:  014000001224                           ;"!@  *4"
002335:  201004020101  movei    ufdc, 20101(d)  ;"0($"!!"
002336:  201004020001  movei    ufdc, 20001(d)  ;"0($" !"
002337:  201004020101  movei    ufdc, 20101(d)  ;"0($"!!"
002340:  201004020101  movei    ufdc, 20101(d)  ;"0($"!!"
002341:  064240000001  inbuf    e, a            ;"&B@  !"
002342:  114000001224                           ;")@  *4"
002343:  000000000000                           ;"      "
002344:  000000000000                           ;"      "
002345:  000000000001  a                        ;"     !"
002346:  600031503546  trn      ufdc, @503546(f);"P 9H=F"
002347:  201004020101  movei    ufdc, 20101(d)  ;"0($"!!"
002350:  202371320101  movem    i, @320101(f)   ;"03Y:!!"
002351:  000000000000                           ;"      "
002352:  000000000000                           ;"      "
002353:  004014143454                           ;" @,,<L"
002354:  422232242611  andcmm   d, @242611(l)   ;"B2:46)"
002355:  201004020101  movei    ufdc, 20101(d)  ;"0($"!!"
002356:  201004020101  movei    ufdc, 20101(d)  ;"0($"!!"
002357:  201004020101  movei    ufdc, 20101(d)  ;"0($"!!"
002360:  201004020101  movei    ufdc, 20101(d)  ;"0($"!!"
002361:  422232242611  andcmm   d, @242611(l)   ;"B2:46)"
002362:  064240000001  inbuf    e, a            ;"&B@  !"
002363:  000000000000                           ;"      "
002364:  201004020101  movei    ufdc, 20101(d)  ;"0($"!!"
002365:  201004020101  movei    ufdc, 20101(d)  ;"0($"!!"
002366:  201004020101  movei    ufdc, 20101(d)  ;"0($"!!"
002367:  201004020101  movei    ufdc, 20101(d)  ;"0($"!!"
002370:  201004020101  movei    ufdc, 20101(d)  ;"0($"!!"
002371:  201004020101  movei    ufdc, 20101(d)  ;"0($"!!"
002372:  201004020101  movei    ufdc, 20101(d)  ;"0($"!!"
002373:  201004020101  movei    ufdc, 20101(d)  ;"0($"!!"
002374:  201004020101  movei    ufdc, 20101(d)  ;"0($"!!"
002375:  004020103454                           ;" @0(<L"
002376:  202450540543  movem    f, 540543(ii)   ;"04HL%C"
002377:  301266420101  cail     e, @420101(p)   ;"8*VB!!"
002400:  201004020101  movei    ufdc, 20101(d)  ;"0($"!!"
002401:  201004020101  movei    ufdc, 20101(d)  ;"0($"!!"
002402:  201004020101  movei    ufdc, 20101(d)  ;"0($"!!"
002403:  522453220205  hllom    f, 220205(k)    ;"J4K2"%"
002404:  261326106425  push     p, @106425(p)   ;"6+6(T5"
002405:  000000000000                           ;"      "
002406:  201004020101  movei    ufdc, 20101(d)  ;"0($"!!"
002407:  201004020101  movei    ufdc, 20101(d)  ;"0($"!!"
002410:  201004020101  movei    ufdc, 20101(d)  ;"0($"!!"
002411:  201004020101  movei    ufdc, 20101(d)  ;"0($"!!"
002412:  201004020101  movei    ufdc, 20101(d)  ;"0($"!!"
002413:  201004020101  movei    ufdc, 20101(d)  ;"0($"!!"
002414:  201004020101  movei    ufdc, 20101(d)  ;"0($"!!"
002415:  201004020101  movei    ufdc, 20101(d)  ;"0($"!!"
002416:  201004020101  movei    ufdc, 20101(d)  ;"0($"!!"
002417:  004024043454                           ;" @4$<L"
002420:  202450540543  movem    f, 540543(ii)   ;"04HL%C"
002421:  301266520101  cail     e, @520101(p)   ;"8*VJ!!"
002422:  201004020101  movei    ufdc, 20101(d)  ;"0($"!!"
002423:  201004020101  movei    ufdc, 20101(d)  ;"0($"!!"
002424:  201004027063  movei    ufdc, 27063(d)  ;"0($"XS"
002425:  416031542501  setmm    @542501(f)      ;"AP9L5!"
002426:  411310651237  andcai   p, 651237(ii)   ;"A+(U*?"
002427:  466125332147  orcmm    b, @332147(e)   ;"FQ5;1G"
002430:  064240000001  inbuf    e, a            ;"&B@  !"
002431:  000000000000                           ;"      "
002432:  201004020101  movei    ufdc, 20101(d)  ;"0($"!!"
002433:  201004020101  movei    ufdc, 20101(d)  ;"0($"!!"
002434:  201004020101  movei    ufdc, 20101(d)  ;"0($"!!"
002435:  201004020101  movei    ufdc, 20101(d)  ;"0($"!!"
002436:  201004020101  movei    ufdc, 20101(d)  ;"0($"!!"
002437:  201004020101  movei    ufdc, 20101(d)  ;"0($"!!"
002440:  201004020101  movei    ufdc, 20101(d)  ;"0($"!!"
002441:  004030003454                           ;" @8 <L"
002442:  000000000000                           ;"      "
002443:  000000000000                           ;"      "
002444:  000000000000                           ;"      "
002445:  000000000000                           ;"      "
002446:  000000000000                           ;"      "
002447:  000000000000                           ;"      "
002450:  000000000000                           ;"      "
002451:  000000000000                           ;"      "
002452:  000000000000                           ;"      "
002453:  000000000000                           ;"      "
002454:  000000000000                           ;"      "
002455:  000000000000                           ;"      "
002456:  000000000000                           ;"      "
002457:  000000000000                           ;"      "
002460:  000000000000                           ;"      "
002461:  000000000000                           ;"      "
002462:  000000000000                           ;"      "
002463:  004030143454                           ;" @8,<L"
002464:  000000000000                           ;"      "
002465:  000000000000                           ;"      "
002466:  000000000000                           ;"      "
002467:  000000000000                           ;"      "
002470:  000000000000                           ;"      "
002471:  000000000000                           ;"      "
002472:  000000000000                           ;"      "
002473:  000000000000                           ;"      "
002474:  000000000000                           ;"      "
002475:  000000000000                           ;"      "
002476:  000000000000                           ;"      "
002477:  000000000000                           ;"      "
002500:  000000000000                           ;"      "
002501:  000000000000                           ;"      "
002502:  000000000000                           ;"      "
002503:  000000000000                           ;"      "
002504:  000000000000                           ;"      "
002505:  004034103454                           ;" @<(<L"
002506:  000000000000                           ;"      "
002507:  000000000000                           ;"      "
002510:  000000000000                           ;"      "
002511:  000000000000                           ;"      "
002512:  000000000000                           ;"      "
002513:  000000000000                           ;"      "
002514:  000000000000                           ;"      "
002515:  000000000000                           ;"      "
002516:  000000000000                           ;"      "
002517:  000000000000                           ;"      "
002520:  000000000000                           ;"      "
002521:  000000000000                           ;"      "
002522:  000000000000                           ;"      "
002523:  000000000000                           ;"      "
002524:  000000000000                           ;"      "
002525:  000000000000                           ;"      "
002526:  000000000000                           ;"      "
002527:  004040043454                           ;" @@$<L"
002530:  000000000000                           ;"      "
002531:  000000000000                           ;"      "
002532:  000000000000                           ;"      "
002533:  000000000000                           ;"      "
002534:  000000000000                           ;"      "
002535:  000000000000                           ;"      "
002536:  000000000000                           ;"      "
002537:  000000000000                           ;"      "
002540:  000000000000                           ;"      "
002541:  000000000000                           ;"      "
002542:  000000000000                           ;"      "
002543:  000000000000                           ;"      "
002544:  000000000000                           ;"      "
002545:  000000000000                           ;"      "
002546:  000000000000                           ;"      "
002547:  000000000000                           ;"      "
002550:  000000000000                           ;"      "
002551:  004044003454                           ;" @D <L"
002552:  000000000000                           ;"      "
002553:  000000000000                           ;"      "
002554:  000000000000                           ;"      "
002555:  000000000000                           ;"      "
002556:  000000000000                           ;"      "
002557:  000000000000                           ;"      "
002560:  000000000000                           ;"      "
002561:  000000000000                           ;"      "
002562:  000000000000                           ;"      "
002563:  000000000000                           ;"      "
002564:  000000000000                           ;"      "
002565:  000000000000                           ;"      "
002566:  000000000000                           ;"      "
002567:  000000000000                           ;"      "
002570:  000000000000                           ;"      "
002571:  000000000000                           ;"      "
002572:  000000000000                           ;"      "
002573:  004044143454                           ;" @D,<L"
002574:  000000000000                           ;"      "
002575:  000000000000                           ;"      "
002576:  000000000000                           ;"      "
002577:  000000000000                           ;"      "
002600:  000000000000                           ;"      "
002601:  000000000000                           ;"      "
002602:  000000000000                           ;"      "
002603:  000000000000                           ;"      "
002604:  000000000000                           ;"      "
002605:  000000000000                           ;"      "
002606:  000000000000                           ;"      "
002607:  000000000000                           ;"      "
002610:  000000000000                           ;"      "
002611:  000000000000                           ;"      "
002612:  000000000000                           ;"      "
002613:  000000000000                           ;"      "
002614:  000000000000                           ;"      "
002615:  004050103454                           ;" @H(<L"
002616:  000000000000                           ;"      "
002617:  000000000000                           ;"      "
002620:  000000000000                           ;"      "
002621:  000000000000                           ;"      "
002622:  000000000000                           ;"      "
002623:  000000000000                           ;"      "
002624:  000000000000                           ;"      "
002625:  000000000000                           ;"      "
002626:  000000000000                           ;"      "
002627:  000000000000                           ;"      "
002630:  000000000000                           ;"      "
002631:  000000000000                           ;"      "
002632:  000000000000                           ;"      "
002633:  000000000000                           ;"      "
002634:  000000000000                           ;"      "
002635:  000000000000                           ;"      "
002636:  000000000000                           ;"      "
002637:  004054043454                           ;" @L$<L"
002640:  000000000000                           ;"      "
002641:  000000000000                           ;"      "
002642:  000000000000                           ;"      "
002643:  000000000000                           ;"      "
002644:  000000000000                           ;"      "
002645:  000000000000                           ;"      "
002646:  000000000000                           ;"      "
002647:  000000000000                           ;"      "
002650:  000000000000                           ;"      "
002651:  000000000000                           ;"      "
002652:  000000000000                           ;"      "
002653:  000000000000                           ;"      "
002654:  000000000000                           ;"      "
002655:  000000000000                           ;"      "
002656:  000000000000                           ;"      "
002657:  000000000000                           ;"      "
002660:  000000000000                           ;"      "
002661:  004060003454                           ;" @P <L"
002662:  000000000000                           ;"      "
002663:  000000000000                           ;"      "
002664:  000000000000                           ;"      "
002665:  000000000000                           ;"      "
002666:  000000000000                           ;"      "
002667:  000000000000                           ;"      "
002670:  000000000000                           ;"      "
002671:  000000000000                           ;"      "
002672:  000000000000                           ;"      "
002673:  000000000000                           ;"      "
002674:  000000000000                           ;"      "
002675:  000000000000                           ;"      "
002676:  000000000000                           ;"      "
002677:  000000000000                           ;"      "
002700:  000000000000                           ;"      "
002701:  000000000000                           ;"      "
002702:  000000000000                           ;"      "
002703:  004060143454                           ;" @P,<L"
002704:  000000000000                           ;"      "
002705:  000000000000                           ;"      "
002706:  000000000000                           ;"      "
002707:  000000000000                           ;"      "
002710:  000000000000                           ;"      "
002711:  000000000000                           ;"      "
002712:  000000000000                           ;"      "
002713:  000000000000                           ;"      "
002714:  000000000000                           ;"      "
002715:  000000000000                           ;"      "
002716:  000000000000                           ;"      "
002717:  000000000000                           ;"      "
002720:  000000000000                           ;"      "
002721:  000000000000                           ;"      "
002722:  000000000000                           ;"      "
002723:  000000000000                           ;"      "
002724:  000000000000                           ;"      "
002725:  004064103454                           ;" @T(<L"
002726:  000000000000                           ;"      "
002727:  000000000000                           ;"      "
002730:  000000000000                           ;"      "
002731:  000000000000                           ;"      "
002732:  000000000000                           ;"      "
002733:  000000000000                           ;"      "
002734:  000000000000                           ;"      "
002735:  000000000000                           ;"      "
002736:  000000000000                           ;"      "
002737:  000000000000                           ;"      "
002740:  000000000000                           ;"      "
002741:  000000000000                           ;"      "
002742:  000000000000                           ;"      "
002743:  000000000000                           ;"      "
002744:  000000000000                           ;"      "
002745:  000000000000                           ;"      "
002746:  000000000000                           ;"      "
002747:  004070043454                           ;" @X$<L"
002750:  000000000000                           ;"      "
002751:  000000000000                           ;"      "
002752:  000000000000                           ;"      "
002753:  000000000000                           ;"      "
002754:  000000000000                           ;"      "
002755:  000000000000                           ;"      "
002756:  000000000000                           ;"      "
002757:  000000000000                           ;"      "
002760:  000000000000                           ;"      "
002761:  000000000000                           ;"      "
002762:  000000000000                           ;"      "
002763:  000000000000                           ;"      "
002764:  000000000000                           ;"      "
002765:  000000000000                           ;"      "
002766:  000000000000                           ;"      "
002767:  000000000000                           ;"      "
002770:  000000000000                           ;"      "
002771:  004074003454                           ;" @\ <L"
002772:  000000000000                           ;"      "
002773:  000000000000                           ;"      "
002774:  000000000000                           ;"      "
002775:  000000000000                           ;"      "
002776:  000000000000                           ;"      "
002777:  000000000000                           ;"      "
003000:  000000000000                           ;"      "
003001:  000000000000                           ;"      "
003002:  000000000000                           ;"      "
003003:  000000000000                           ;"      "
003004:  000000000000                           ;"      "
003005:  000000000000                           ;"      "
003006:  000000000000                           ;"      "
003007:  000000000000                           ;"      "
003010:  000000000000                           ;"      "
003011:  000000000000                           ;"      "
003012:  000000000000                           ;"      "
003013:  004074143454                           ;" @\,<L"
003014:  000000000000                           ;"      "
003015:  000000000000                           ;"      "
003016:  000000000000                           ;"      "
003017:  000000000000                           ;"      "
003020:  000000000000                           ;"      "
003021:  000000000000                           ;"      "
003022:  000000000000                           ;"      "
003023:  000000000000                           ;"      "
003024:  000000000000                           ;"      "
003025:  000000000000                           ;"      "
003026:  000000000000                           ;"      "
003027:  000000000000                           ;"      "
003030:  000000000000                           ;"      "
003031:  000000000000                           ;"      "
003032:  000000000000                           ;"      "
003033:  000000000000                           ;"      "
003034:  000000000000                           ;"      "
003035:  004100103454                           ;" A (<L"
003036:  000000000000                           ;"      "
003037:  000000000000                           ;"      "
003040:  000000000000                           ;"      "
003041:  000000000000                           ;"      "
003042:  000000000000                           ;"      "
003043:  000000000000                           ;"      "
003044:  000000000000                           ;"      "
003045:  000000000000                           ;"      "
003046:  000000000000                           ;"      "
003047:  000000000000                           ;"      "
003050:  000000000000                           ;"      "
003051:  000000000000                           ;"      "
003052:  000000000000                           ;"      "
003053:  000000000000                           ;"      "
003054:  000000000000                           ;"      "
003055:  000000000000                           ;"      "
003056:  000000000000                           ;"      "
003057:  004104043454                           ;" A$$<L"
003060:  000000000000                           ;"      "
003061:  000000000000                           ;"      "
003062:  000000000000                           ;"      "
003063:  000000000000                           ;"      "
003064:  000000000000                           ;"      "
003065:  000000000000                           ;"      "
003066:  000000000000                           ;"      "
003067:  000000000000                           ;"      "
003070:  000000000000                           ;"      "
003071:  000000000000                           ;"      "
003072:  000000000000                           ;"      "
003073:  000000000000                           ;"      "
003074:  000000000000                           ;"      "
003075:  000000000000                           ;"      "
003076:  000000000000                           ;"      "
003077:  000000000000                           ;"      "
003100:  000000000000                           ;"      "
003101:  004110003454                           ;" A( <L"
003102:  000000000000                           ;"      "
003103:  000000000000                           ;"      "
003104:  000000000000                           ;"      "
003105:  000000000000                           ;"      "
003106:  000000000000                           ;"      "
003107:  000000000000                           ;"      "
003110:  000000000000                           ;"      "
003111:  000000000000                           ;"      "
003112:  000000000000                           ;"      "
003113:  000000000000                           ;"      "
003114:  000000000000                           ;"      "
003115:  000000000000                           ;"      "
003116:  000000000000                           ;"      "
003117:  000000000000                           ;"      "
003120:  000000000000                           ;"      "
003121:  000000000000                           ;"      "
003122:  000000000000                           ;"      "
003123:  004110143454                           ;" A(,<L"
003124:  000000000000                           ;"      "
003125:  000000000000                           ;"      "
003126:  000000000000                           ;"      "
003127:  000000000000                           ;"      "
003130:  000000000000                           ;"      "
003131:  000000000000                           ;"      "
003132:  000000000000                           ;"      "
003133:  000000000000                           ;"      "
003134:  000000000000                           ;"      "
003135:  000000000000                           ;"      "
003136:  000000000000                           ;"      "
003137:  000000000000                           ;"      "
003140:  000000000000                           ;"      "
003141:  000000000000                           ;"      "
003142:  000000000000                           ;"      "
003143:  000000000000                           ;"      "
003144:  000000000000                           ;"      "
003145:  004114103454                           ;" A,(<L"
003146:  000000000000                           ;"      "
003147:  000000000000                           ;"      "
003150:  000000000000                           ;"      "
003151:  000000000000                           ;"      "
003152:  000000000000                           ;"      "
003153:  000000000000                           ;"      "
003154:  000000000000                           ;"      "
003155:  000000000000                           ;"      "
003156:  000000000000                           ;"      "
003157:  000000000000                           ;"      "
003160:  000000000000                           ;"      "
003161:  000000000000                           ;"      "
003162:  000000000000                           ;"      "
003163:  000000000000                           ;"      "
003164:  000000000000                           ;"      "
003165:  000000000000                           ;"      "
003166:  000000000000                           ;"      "
003167:  004120043454                           ;" A0$<L"
003170:  000000000000                           ;"      "
003171:  000000000000                           ;"      "
003172:  000000000000                           ;"      "
003173:  000000000000                           ;"      "
003174:  000000000000                           ;"      "
003175:  000000000000                           ;"      "
003176:  000000000000                           ;"      "
003177:  000000000000                           ;"      "
003200:  000000000000                           ;"      "
003201:  000000000000                           ;"      "
003202:  000000000000                           ;"      "
003203:  000000000000                           ;"      "
003204:  000000000000                           ;"      "
003205:  000000000000                           ;"      "
003206:  000000000000                           ;"      "
003207:  000000000000                           ;"      "
003210:  000000000000                           ;"      "
003211:  004124003454                           ;" A4 <L"
003212:  000000000000                           ;"      "
003213:  000000000000                           ;"      "
003214:  000000000000                           ;"      "
003215:  000000000000                           ;"      "
003216:  000000000000                           ;"      "
003217:  000000000000                           ;"      "
003220:  000000000000                           ;"      "
003221:  000000000000                           ;"      "
003222:  000000000000                           ;"      "
003223:  000000000000                           ;"      "
003224:  000000000000                           ;"      "
003225:  000000000000                           ;"      "
003226:  000000000000                           ;"      "
003227:  000000000000                           ;"      "
003230:  000000000000                           ;"      "
003231:  000000000000                           ;"      "
003232:  000000000000                           ;"      "
003233:  000000002333                           ;"    3;"
003234:  000000002342                           ;"    3B"
003235:  000000002353                           ;"    3K"
003236:  000000002375                           ;"    3]"
003237:  030000002417                           ;"#   4/"
003240:  000000002441                           ;"    4A"
003241:  400000002463  setz     ufdc, 2463      ;"@   4S"
003242:  400000002505  setz     ufdc, 2505      ;"@   5%"
003243:  400000002527  setz     ufdc, 2527      ;"@   57"
003244:  400000002551  setz     ufdc, 2551      ;"@   5I"
003245:  400000002573  setz     ufdc, 2573      ;"@   5["
003246:  400000002615  setz     ufdc, 2615      ;"@   6-"
003247:  400000002637  setz     ufdc, 2637      ;"@   6?"
003250:  000000002661                           ;"    6Q"
003251:  000000002703                           ;"    7#"
003252:  000000002725                           ;"    75"
003253:  000000002747                           ;"    7G"
003254:  000000002771                           ;"    7Y"
003255:  000000003013                           ;"    8+"
003256:  000000003035                           ;"    8="
003257:  000000003057                           ;"    8O"
003260:  000000003101                           ;"    9!"
003261:  000000003123                           ;"    93"
003262:  000000003145                           ;"    9E"
003263:  000000003167                           ;"    9W"
003264:  000000003211                           ;"    :)"
003265:  000000000000                           ;"      "
003266:  002252051555                           ;" 2J%-M"
003267:  000040037154  %order,,                 ;"  @#YL"
003270:  000040037155  %order,,                 ;"  @#YM"
003271:  000000000000                           ;"      "
003272:  000000000000                           ;"      "
003273:  000000000000                           ;"      "
003274:  000000000000                           ;"      "
003275:  000000000000                           ;"      "
003276:  000000000000                           ;"      "
003277:  000000000000                           ;"      "
003300:  000000000000                           ;"      "
003301:  000000000000                           ;"      "
003302:  000000000000                           ;"      "
003303:  000000000000                           ;"      "
003304:  000000000000                           ;"      "
003305:  000000000000                           ;"      "
003306:  000000000000                           ;"      "
003307:  000000000000                           ;"      "
003310:  000000000000                           ;"      "
003311:  000000000000                           ;"      "
003312:  000000000000                           ;"      "
003313:  000000000000                           ;"      "
003314:  000000000000                           ;"      "
003315:  000000000000                           ;"      "
003316:  000000000000                           ;"      "
003317:  620100777777  trz      b, 777777       ;"R! ___"
003320:  312100042174  came     b, 42174        ;"91 $1\"
003321:  000000000000                           ;"      "
003322:  000000000000                           ;"      "
003323:  000000000000                           ;"      "
003324:  000000000000                           ;"      "
003325:  000000000000                           ;"      "
003326:  000000000000                           ;"      "
003327:  000000000000                           ;"      "
003330:  000000000000                           ;"      "
003331:  000000000000                           ;"      "
003332:  000000000000                           ;"      "
003333:  000000000000                           ;"      "
003334:  000000000000                           ;"      "
003335:  000000000000                           ;"      "
003336:  000000000000                           ;"      "
003337:  000000000000                           ;"      "
003340:  000000000000                           ;"      "
003341:  000000000000                           ;"      "
003342:  000000000000                           ;"      "
003343:  000000000000                           ;"      "
003344:  000000000000                           ;"      "
003345:  000000000000                           ;"      "
003346:  000000003351                           ;"    ;I"
003347:  000000002424                           ;"    44"
003350:  000000002350                           ;"    3H"
003351:  000000002347                           ;"    3G"
003352:  000000000000                           ;"      "
003353:  000000000000                           ;"      "
003354:  000000000000                           ;"      "
003355:  000000000000                           ;"      "
003356:  000000000000                           ;"      "
003357:  000000000000                           ;"      "
003360:  000000000000                           ;"      "
003361:  000000000000                           ;"      "
003362:  000000000000                           ;"      "
003363:  000000000000                           ;"      "
003364:  000000000000                           ;"      "
003365:  000000000000                           ;"      "
003366:  000000000000                           ;"      "
003367:  000000000000                           ;"      "
003370:  000000000000                           ;"      "
003371:  000000000012  l                        ;"     *"
003372:  004010043454                           ;" @($<L"
003373:  014000001224                           ;"!@  *4"
003374:  201004020101  movei    ufdc, 20101(d)  ;"0($"!!"
003375:  201004020001  movei    ufdc, 20001(d)  ;"0($" !"
003376:  201004020101  movei    ufdc, 20101(d)  ;"0($"!!"
003377:  201004020101  movei    ufdc, 20101(d)  ;"0($"!!"
003400:  064240000001  inbuf    e, a            ;"&B@  !"
003401:  114000001224                           ;")@  *4"
003402:  004010053454                           ;" @(%<L"
003403:  014000001224                           ;"!@  *4"
003404:  201004020101  movei    ufdc, 20101(d)  ;"0($"!!"
003405:  201004020001  movei    ufdc, 20001(d)  ;"0($" !"
003406:  201004020101  movei    ufdc, 20101(d)  ;"0($"!!"
003407:  201004020101  movei    ufdc, 20101(d)  ;"0($"!!"
003410:  064240000001  inbuf    e, a            ;"&B@  !"
003411:  114000001224                           ;")@  *4"
003412:  000000000000                           ;"      "
003413:  466125332147  orcmm    b, @332147(e)   ;"FQ5;1G"
003414:  064240000001  inbuf    e, a            ;"&B@  !"
003415:  004010053454                           ;" @(%<L"
003416:  014000001224                           ;"!@  *4"
003417:  201004020101  movei    ufdc, 20101(d)  ;"0($"!!"
003420:  201004020001  movei    ufdc, 20001(d)  ;"0($" !"
003421:  201004020101  movei    ufdc, 20101(d)  ;"0($"!!"
003422:  202371320101  movem    i, @320101(f)   ;"03Y:!!"
003423:  064240000001  inbuf    e, a            ;"&B@  !"
003424:  114000001224                           ;")@  *4"
003425:  114000011224                           ;")@ !*4"
003426:  004024053454                           ;" @4%<L"
003427:  202450540543  movem    f, 540543(ii)   ;"04HL%C"
003430:  301266520101  cail     e, @520101(p)   ;"8*VJ!!"
003431:  201004020101  movei    ufdc, 20101(d)  ;"0($"!!"
003432:  201004020101  movei    ufdc, 20101(d)  ;"0($"!!"
003433:  201004027063  movei    ufdc, 27063(d)  ;"0($"XS"
003434:  416031542501  setmm    @542501(f)      ;"AP9L5!"
003435:  411310651237  andcai   p, 651237(ii)   ;"A+(U*?"
003436:  466125332147  orcmm    b, @332147(e)   ;"FQ5;1G"
003437:  064240000001  inbuf    e, a            ;"&B@  !"
003440:  000000000000                           ;"      "
003441:  000000000000                           ;"      "
003442:  201004020101  movei    ufdc, 20101(d)  ;"0($"!!"
003443:  201004020101  movei    ufdc, 20101(d)  ;"0($"!!"
003444:  522453220205  hllom    f, 220205(k)    ;"J4K2"%"
003445:  261326106425  push     p, @106425(p)   ;"6+6(T5"
003446:  004024053454                           ;" @4%<L"
003447:  202450540543  movem    f, 540543(ii)   ;"04HL%C"
003450:  301266520101  cail     e, @520101(p)   ;"8*VJ!!"
003451:  201004020101  movei    ufdc, 20101(d)  ;"0($"!!"
003452:  201004020101  movei    ufdc, 20101(d)  ;"0($"!!"
003453:  201004027063  movei    ufdc, 27063(d)  ;"0($"XS"
003454:  416031547101  setmm    @547101(f)      ;"AP9LY!"
003455:  411310651237  andcai   p, 651237(ii)   ;"A+(U*?"
003456:  466125332147  orcmm    b, @332147(e)   ;"FQ5;1G"
003457:  064240000001  inbuf    e, a            ;"&B@  !"
003460:  000000000000                           ;"      "
003461:  000000000000                           ;"      "
003462:  000000000000                           ;"      "
003463:  000000000000                           ;"      "
003464:  000000000000                           ;"      "
003465:  000000000000                           ;"      "
003466:  000000000000                           ;"      "
003467:  000000000000                           ;"      "
003470:  000000000000                           ;"      "
003471:  000000000000                           ;"      "
003472:  000000000000                           ;"      "
003473:  000000000000                           ;"      "
003474:  000000000000                           ;"      "
003475:  000000000000                           ;"      "
003476:  000000000000                           ;"      "
003477:  000000000000                           ;"      "
003500:  000000000000                           ;"      "
003501:  000000000000                           ;"      "
003502:  000000000000                           ;"      "
003503:  000000000000                           ;"      "
003504:  000000000000                           ;"      "
003505:  000000000000                           ;"      "
003506:  000000000000                           ;"      "
003507:  000000000000                           ;"      "
003510:  000000000000                           ;"      "
003511:  000000000000                           ;"      "
003512:  000000000000                           ;"      "
003513:  000000000000                           ;"      "
003514:  000000000000                           ;"      "
003515:  000000000000                           ;"      "
003516:  000000000000                           ;"      "
003517:  000000000000                           ;"      "
003520:  000000000000                           ;"      "
003521:  000000000000                           ;"      "
003522:  000000000000                           ;"      "
003523:  000000000000                           ;"      "
003524:  000000000000                           ;"      "
003525:  000000000000                           ;"      "
003526:  000000000000                           ;"      "
003527:  000000000000                           ;"      "
003530:  000000000000                           ;"      "
003531:  000000000000                           ;"      "
003532:  000000000000                           ;"      "
003533:  000000000000                           ;"      "
003534:  000000000000                           ;"      "
003535:  000000000000                           ;"      "
003536:  000000000000                           ;"      "
003537:  000000000000                           ;"      "
003540:  000000000000                           ;"      "
003541:  000000000000                           ;"      "
003542:  000000000000                           ;"      "
003543:  000000000000                           ;"      "
003544:  000000000000                           ;"      "
003545:  000000000000                           ;"      "
003546:  000000000000                           ;"      "
003547:  000000000000                           ;"      "
003550:  000000000000                           ;"      "
003551:  000000000000                           ;"      "
003552:  000000000000                           ;"      "
003553:  000000000000                           ;"      "
003554:  000000000000                           ;"      "
003555:  000000000000                           ;"      "
003556:  000000000000                           ;"      "
003557:  000000000000                           ;"      "
003560:  000000000000                           ;"      "
003561:  000000000000                           ;"      "
003562:  000000000000                           ;"      "
003563:  000000000000                           ;"      "
003564:  000000000000                           ;"      "
003565:  000000000000                           ;"      "
003566:  000000000000                           ;"      "
003567:  000000000000                           ;"      "
003570:  000000000000                           ;"      "
003571:  000000000000                           ;"      "
003572:  000000000000                           ;"      "
003573:  000000000000                           ;"      "
003574:  000000000000                           ;"      "
003575:  000000000000                           ;"      "
003576:  000000000000                           ;"      "
003577:  000000000000                           ;"      "
003600:  000000000000                           ;"      "
003601:  000000000000                           ;"      "
003602:  000000000000                           ;"      "
003603:  000000000000                           ;"      "
003604:  000000000000                           ;"      "
003605:  000000000000                           ;"      "
003606:  000000000000                           ;"      "
003607:  000000000000                           ;"      "
003610:  000000000000                           ;"      "
003611:  000000000000                           ;"      "
003612:  000000000000                           ;"      "
003613:  000000000000                           ;"      "
003614:  000000000000                           ;"      "
003615:  000000000000                           ;"      "
003616:  000000000000                           ;"      "
003617:  000000000000                           ;"      "
003620:  000000000000                           ;"      "
003621:  000000000000                           ;"      "
003622:  000000000000                           ;"      "
003623:  000000000000                           ;"      "
003624:  000000000000                           ;"      "
003625:  000000000000                           ;"      "
003626:  000000000000                           ;"      "
003627:  000000000000                           ;"      "
003630:  000000000000                           ;"      "
003631:  000000000000                           ;"      "
003632:  000000000000                           ;"      "
003633:  000000000000                           ;"      "
003634:  000000000000                           ;"      "
003635:  000000000000                           ;"      "
003636:  000000000000                           ;"      "
003637:  000000000000                           ;"      "
003640:  000000000000                           ;"      "
003641:  000000000000                           ;"      "
003642:  000000000000                           ;"      "
003643:  000000000000                           ;"      "
003644:  000000000000                           ;"      "
003645:  000000000000                           ;"      "
003646:  000000000000                           ;"      "
003647:  000000000000                           ;"      "
003650:  000000000000                           ;"      "
003651:  000000000000                           ;"      "
003652:  000000000000                           ;"      "
003653:  000000000000                           ;"      "
003654:  000000000000                           ;"      "
003655:  000000000000                           ;"      "
003656:  000000000000                           ;"      "
003657:  000000000000                           ;"      "
003660:  000000000000                           ;"      "
003661:  000000000000                           ;"      "
003662:  000000000000                           ;"      "
003663:  000000000000                           ;"      "
003664:  000000000000                           ;"      "
003665:  000000000000                           ;"      "
003666:  000000000000                           ;"      "
003667:  000000000000                           ;"      "
003670:  000000000000                           ;"      "
003671:  000000000000                           ;"      "
003672:  000000000000                           ;"      "
003673:  000000000000                           ;"      "
003674:  000000000000                           ;"      "
003675:  000000000000                           ;"      "
003676:  000000000000                           ;"      "
003677:  000000000000                           ;"      "
003700:  000000000000                           ;"      "
003701:  000000000000                           ;"      "
003702:  000000000000                           ;"      "
003703:  000000000000                           ;"      "
003704:  000000000000                           ;"      "
003705:  000000000000                           ;"      "
003706:  000000000000                           ;"      "
003707:  000000000000                           ;"      "
003710:  000000000000                           ;"      "
003711:  000000000000                           ;"      "
003712:  000000000000                           ;"      "
003713:  000000000000                           ;"      "
003714:  000000000000                           ;"      "
003715:  000000000000                           ;"      "
003716:  000000000000                           ;"      "
003717:  000000000000                           ;"      "
003720:  000000000000                           ;"      "
003721:  000000000000                           ;"      "
003722:  000000000000                           ;"      "
003723:  000000000000                           ;"      "
003724:  000000000000                           ;"      "
003725:  000000000000                           ;"      "
003726:  000000000000                           ;"      "
003727:  000000000000                           ;"      "
003730:  000000000000                           ;"      "
003731:  000000000000                           ;"      "
003732:  000000000000                           ;"      "
003733:  000000000000                           ;"      "
003734:  000000000000                           ;"      "
003735:  000000000000                           ;"      "
003736:  000000000000                           ;"      "
003737:  000000000000                           ;"      "
003740:  000000000000                           ;"      "
003741:  000000000000                           ;"      "
003742:  000000000000                           ;"      "
003743:  000000000000                           ;"      "
003744:  000000000000                           ;"      "
003745:  000000000000                           ;"      "
003746:  000000000000                           ;"      "
003747:  000000000000                           ;"      "
003750:  000000000000                           ;"      "
003751:  000000000000                           ;"      "
003752:  000000000000                           ;"      "
003753:  000000000000                           ;"      "
003754:  000000000000                           ;"      "
003755:  000000000000                           ;"      "
003756:  000000000000                           ;"      "
003757:  000000000000                           ;"      "
003760:  000000000000                           ;"      "
003761:  000000000000                           ;"      "
003762:  000000000000                           ;"      "
003763:  000000000000                           ;"      "
003764:  000000000000                           ;"      "
003765:  000000000000                           ;"      "
003766:  000000000000                           ;"      "
003767:  000000000000                           ;"      "
003770:  000000000000                           ;"      "
003771:  000000000000                           ;"      "
003772:  000000000000                           ;"      "
003773:  000000000000                           ;"      "
003774:  000000000000                           ;"      "
003775:  000000000000                           ;"      "
003776:  000000000000                           ;"      "
003777:  000000000000                           ;"      "
%xtsrt:
004000:  000000000000                           ;"      "
004001:  000000000000                           ;"      "
004002:  000000000000                           ;"      "
004003:  000000000000                           ;"      "
004004:  000000000000                           ;"      "
004005:  000000000000                           ;"      "
004006:  000000000000                           ;"      "
004007:  000000000000                           ;"      "
004010:  000000000000                           ;"      "
004011:  000000000000                           ;"      "
004012:  000000000000                           ;"      "
004013:  000000000000                           ;"      "
004014:  000000000000                           ;"      "
004015:  000000000000                           ;"      "
004016:  000000000000                           ;"      "
004017:  000000000000                           ;"      "
004020:  000000000000                           ;"      "
004021:  000000000000                           ;"      "
004022:  000000000000                           ;"      "
004023:  000000000000                           ;"      "
004024:  000000000000                           ;"      "
004025:  000000000000                           ;"      "
004026:  000000000000                           ;"      "
004027:  000000000000                           ;"      "
004030:  000000000000                           ;"      "
004031:  000000000000                           ;"      "
004032:  000000000000                           ;"      "
004033:  000000000000                           ;"      "
004034:  000000000000                           ;"      "
004035:  000000000000                           ;"      "
004036:  000000000000                           ;"      "
004037:  000000000000                           ;"      "
004040:  000000000000                           ;"      "
004041:  000000000000                           ;"      "
004042:  000000000000                           ;"      "
004043:  000000000000                           ;"      "
004044:  000000000000                           ;"      "
004045:  000000000000                           ;"      "
004046:  000000000000                           ;"      "
004047:  000000000000                           ;"      "
004050:  000000000000                           ;"      "
004051:  000000000000                           ;"      "
004052:  000000000000                           ;"      "
004053:  000000000000                           ;"      "
004054:  000000000000                           ;"      "
004055:  000000000000                           ;"      "
004056:  000000000000                           ;"      "
004057:  000000000000                           ;"      "
004060:  000000000000                           ;"      "
004061:  000000000000                           ;"      "
004062:  000000000000                           ;"      "
004063:  000000000000                           ;"      "
004064:  000000000000                           ;"      "
004065:  000000000000                           ;"      "
004066:  000000000000                           ;"      "
004067:  000000000000                           ;"      "
004070:  000000000000                           ;"      "
004071:  000000000000                           ;"      "
004072:  000000000000                           ;"      "
004073:  000000000000                           ;"      "
004074:  000000000000                           ;"      "
004075:  000000000000                           ;"      "
004076:  000000000000                           ;"      "
004077:  000000000000                           ;"      "
004100:  000000000000                           ;"      "
004101:  000000000000                           ;"      "
004102:  000000000000                           ;"      "
004103:  000000000000                           ;"      "
004104:  000000000000                           ;"      "
004105:  000000000000                           ;"      "
004106:  000000000000                           ;"      "
004107:  000000000000                           ;"      "
004110:  000000000000                           ;"      "
004111:  000000000000                           ;"      "
004112:  000000000000                           ;"      "
004113:  000000000000                           ;"      "
004114:  000000000000                           ;"      "
004115:  000000000000                           ;"      "
004116:  000000000000                           ;"      "
004117:  000000000000                           ;"      "
004120:  000000000000                           ;"      "
004121:  000000000000                           ;"      "
004122:  000000000000                           ;"      "
004123:  000000000000                           ;"      "
004124:  000000000000                           ;"      "
004125:  000000000000                           ;"      "
004126:  000000000000                           ;"      "
004127:  000000000000                           ;"      "
004130:  000000000000                           ;"      "
004131:  000000000000                           ;"      "
004132:  000000000000                           ;"      "
004133:  000000000000                           ;"      "
004134:  000000000000                           ;"      "
004135:  000000000000                           ;"      "
004136:  000000000000                           ;"      "
004137:  000000000000                           ;"      "
004140:  000000000000                           ;"      "
004141:  000000000000                           ;"      "
004142:  000000000000                           ;"      "
004143:  000000000000                           ;"      "
004144:  000000000000                           ;"      "
004145:  000000000000                           ;"      "
004146:  000000000000                           ;"      "
004147:  000000000000                           ;"      "
004150:  000000000000                           ;"      "
004151:  000000000000                           ;"      "
004152:  000000000000                           ;"      "
004153:  000000000000                           ;"      "
004154:  000000000000                           ;"      "
004155:  000000000000                           ;"      "
004156:  000000000000                           ;"      "
004157:  000000000000                           ;"      "
004160:  000000000000                           ;"      "
004161:  000000000000                           ;"      "
004162:  000000000000                           ;"      "
004163:  000000000000                           ;"      "
004164:  000000000000                           ;"      "
004165:  000000000000                           ;"      "
004166:  000000000000                           ;"      "
004167:  000000000000                           ;"      "
004170:  000000000000                           ;"      "
004171:  000000000000                           ;"      "
004172:  000000000000                           ;"      "
004173:  000000000000                           ;"      "
004174:  000000000000                           ;"      "
004175:  000000000000                           ;"      "
004176:  000000000000                           ;"      "
004177:  000000000000                           ;"      "
004200:  000000000000                           ;"      "
004201:  000000000000                           ;"      "
004202:  000000000000                           ;"      "
004203:  000000000000                           ;"      "
004204:  000000000000                           ;"      "
004205:  000000000000                           ;"      "
004206:  000000000000                           ;"      "
004207:  000000000000                           ;"      "
004210:  000000000000                           ;"      "
004211:  000000000000                           ;"      "
004212:  000000000000                           ;"      "
004213:  000000000000                           ;"      "
004214:  000000000000                           ;"      "
004215:  000000000000                           ;"      "
004216:  000000000000                           ;"      "
004217:  000000000000                           ;"      "
004220:  000000000000                           ;"      "
004221:  000000000000                           ;"      "
004222:  000000000000                           ;"      "
004223:  000000000000                           ;"      "
004224:  000000000000                           ;"      "
004225:  000000000000                           ;"      "
004226:  000000000000                           ;"      "
004227:  000000000000                           ;"      "
004230:  000000000000                           ;"      "
004231:  000000000000                           ;"      "
004232:  000000000000                           ;"      "
004233:  000000000000                           ;"      "
004234:  000000000000                           ;"      "
004235:  000000000000                           ;"      "
004236:  000000000000                           ;"      "
004237:  000000000000                           ;"      "
004240:  000000000000                           ;"      "
004241:  000000000000                           ;"      "
004242:  000000000000                           ;"      "
004243:  000000000000                           ;"      "
004244:  000000000000                           ;"      "
004245:  000000000000                           ;"      "
004246:  000000000000                           ;"      "
004247:  000000000000                           ;"      "
004250:  000000000000                           ;"      "
004251:  000000000000                           ;"      "
004252:  000000000000                           ;"      "
004253:  000000000000                           ;"      "
004254:  000000000000                           ;"      "
004255:  000000000000                           ;"      "
004256:  000000000000                           ;"      "
004257:  000000000000                           ;"      "
004260:  000000000000                           ;"      "
004261:  000000000000                           ;"      "
004262:  000000000000                           ;"      "
004263:  000000000000                           ;"      "
004264:  000000000000                           ;"      "
004265:  000000000000                           ;"      "
004266:  000000000000                           ;"      "
004267:  000000000000                           ;"      "
004270:  000000000000                           ;"      "
004271:  000000000000                           ;"      "
004272:  000000000000                           ;"      "
004273:  000000000000                           ;"      "
004274:  000000000000                           ;"      "
004275:  000000000000                           ;"      "
004276:  000000000000                           ;"      "
004277:  000000000000                           ;"      "
004300:  000000000000                           ;"      "
004301:  000000000000                           ;"      "
004302:  000000000000                           ;"      "
004303:  000000000000                           ;"      "
004304:  000000000000                           ;"      "
004305:  000000000000                           ;"      "
004306:  000000000000                           ;"      "
004307:  000000000000                           ;"      "
004310:  000000000000                           ;"      "
004311:  000000000000                           ;"      "
004312:  000000000000                           ;"      "
004313:  000000000000                           ;"      "
004314:  000000000000                           ;"      "
004315:  000000000000                           ;"      "
004316:  000000000000                           ;"      "
004317:  000000000000                           ;"      "
004320:  000000000000                           ;"      "
004321:  000000000000                           ;"      "
004322:  000000000000                           ;"      "
004323:  000000000000                           ;"      "
004324:  000000000000                           ;"      "
004325:  000000000000                           ;"      "
004326:  000000000000                           ;"      "
004327:  000000000000                           ;"      "
004330:  000000000000                           ;"      "
004331:  000000000000                           ;"      "
004332:  000000000000                           ;"      "
004333:  000000000000                           ;"      "
004334:  000000000000                           ;"      "
004335:  000000000000                           ;"      "
004336:  000000000000                           ;"      "
004337:  000000000000                           ;"      "
004340:  000000000000                           ;"      "
004341:  000000000000                           ;"      "
004342:  000000000000                           ;"      "
004343:  000000000000                           ;"      "
004344:  000000000000                           ;"      "
004345:  000000000000                           ;"      "
004346:  000000000000                           ;"      "
004347:  000000000000                           ;"      "
004350:  000000000000                           ;"      "
004351:  000000000000                           ;"      "
004352:  000000000000                           ;"      "
004353:  000000000000                           ;"      "
004354:  000000000000                           ;"      "
004355:  000000000000                           ;"      "
004356:  000000000000                           ;"      "
004357:  000000000000                           ;"      "
004360:  000000000000                           ;"      "
004361:  000000000000                           ;"      "
004362:  000000000000                           ;"      "
004363:  000000000000                           ;"      "
004364:  000000000000                           ;"      "
004365:  000000000000                           ;"      "
004366:  000000000000                           ;"      "
004367:  000000000000                           ;"      "
004370:  000000000000                           ;"      "
004371:  000000000000                           ;"      "
004372:  400000003372  setz     ufdc, 3372      ;"@   ;Z"
004373:  000000000021                           ;"     1"
004374:  000000000000                           ;"      "
004375:  000000000000                           ;"      "
004376:  202440000217  movem    f, 217          ;"04@ "/"
004377:  200500012450  move     l, 12450        ;"0% !4H"
004400:  603440100000  tlne     f, %szsrt       ;"P<@(  "
004401:  254000004414  jrst     4414            ;"5@  D,"
004402:  201440777300  movei    f, 777300       ;"0,@_[ "
004403:  202440000140  movem    f, $bgddt       ;"04@ !@"
004404:  201440002351  movei    f, 2351         ;"0,@ 3I"
004405:  202440003234  movem    f, 3234         ;"04@ :<"
004406:  201440002345  movei    f, 2345         ;"0,@ 3E"
004407:  202440003233  movem    f, 3233         ;"04@ :;"
004410:  200440012250  move     f, 12250        ;"0$@!2H"
004411:  265240004431  jsp      e, 4431         ;"6J@ D9"
004412:  274440012247  sub      f, 12247        ;"7D@!2G"
004413:  254000004411  jrst     4411            ;"5@  D)"
004414:  201440002342  movei    f, 2342         ;"0,@ 3B"
004415:  202440003234  movem    f, 3234         ;"04@ :<"
004416:  201440002333  movei    f, 2333         ;"0,@ 3;"
004417:  202440003233  movem    f, 3233         ;"04@ :;"
004420:  201440777400  movei    f, 777400       ;"0,@_\ "
004421:  202440000140  movem    f, $bgddt       ;"04@ !@"
004422:  660400001000  tro      ii, nfiles      ;"V$  ( "
004423:  201340000074  movei    i, jobddt       ;"0+@  \"
004424:  254000004427  jrst     4427            ;"5@  D7"
004425:  265240004431  jsp      e, 4431         ;"6J@ D9"
004426:  271340000014  addi     i, j            ;"7+@  ,"
004427:  260740004434  pushj    q, 4434         ;"6'@ D<"
004430:  254000004425  jrst     4425            ;"5@  D5"
004431:  202472000000  movem    f, @(l)         ;"04Z   " " SP\0\0"
004432:  253505000000  aobjn    l, (e)          ;"5=%   " "*t(\0\0"
004433:  263740000000  popj     q,              ;"6?@   "
004434:  200440012441  move     f, 12441        ;"0$@!4A"
004435:  137340012273  dpb      i, 12273        ;"+[@!2["
004436:  241340777774  rot      i, 777774       ;"4+@__\"
004437:  137340012412  dpb      i, 12412        ;"+[@!4*"
004440:  241340000004  rot      i, d            ;"4+@  $"
004441:  263740000000  popj     q,              ;"6?@   "
004442:  205700400000  movsi    16, 400000      ;"0O @  "
004443:  436700003235  iorm     16, 3235        ;"CW  :="
004444:  436700003233  iorm     16, 3233        ;"CW  :;"
004445:  204500000172  movs     l, 172          ;"0E  !Z"
004446:  436712003073  iorm     16, 3073(l)     ;"CW* 8["
004447:  253500004446  aobjn    l, 4446         ;"5=  DF"
004450:  607500000007  tlnn     l, i            ;"P]   '"
004451:  254000004446  jrst     4446            ;"5@  DF"
004452:  402000012075  setzm    12075           ;"@0 !0]"
004453:  702240003346  ppinfo   3346            ;"X2@ ;F"
004454:  205440100000  movsi    f, %szsrt       ;"0L@(  "
004455:  404440003350  and      f, 3350         ;"@D@ ;H"
004456:  312440000217  came     f, 217          ;"94@ "/"
004457:  260740004376  pushj    q, 4376         ;"6'@ C^"
004460:  200440003350  move     f, 3350         ;"0$@ ;H"
004461:  607440200000  tlnn     f, %tty         ;"P\@0  "
004462:  622400002000  trze     ii, %kmode      ;"R4  0 "
004463:  254000004442  jrst     4442            ;"5@  DB"
004464:  514440000140  hrlz     f, $bgddt       ;"ID@ !@"
004465:  541440003002  hrri     f, 3002         ;"L,@ 8""
004466:  316440003351  camn     f, 3351         ;"9T@ ;I"
004467:  254000004472  jrst     4472            ;"5@  DZ"
004470:  702140003002  dpysiz   3002            ;"X1@ 8""
004471:  702120000140  dpypos   @$bgddt         ;"X10 !@"
004472:  622400001000  trze     ii, nfiles      ;"R4  ( "
004473:  254000004477  jrst     4477            ;"5@  D_"
004474:  200440003266  move     f, 3266         ;"0$@ :V"
004475:  316440000142  camn     f, 142          ;"9T@ !B"
004476:  254000004517  jrst     4517            ;"5@  E/"
004477:  476000012075  setom    12075           ;"GP !0]"
004500:  205700400000  movsi    16, 400000      ;"0O @  "
004501:  436700003233  iorm     16, 3233        ;"CW  :;"
004502:  201440002353  movei    f, 2353         ;"0,@ 3K"
004503:  264000004762  jsr      4762            ;"6@  GR"
004504:  200240000141  move     e, 141          ;"0"@ !A"
004505:  200245000000  move     e, (e)          ;"0"E   " " \n(\0\0"
004506:  260740005434  pushj    q, 5434         ;"6'@ L<"
004507:  200340012272  move     i, 12272        ;"0#@!2Z"
004510:  271360003235  addi     i, @3235        ;"7+P :="
004511:  200240000142  move     e, 142          ;"0"@ !B"
004512:  200245000000  move     e, (e)          ;"0"E   " " \n(\0\0"
004513:  260740005434  pushj    q, 5434         ;"6'@ L<"
004514:  260740005051  pushj    q, 5051         ;"6'@ HI"
004515:  201340400000  movei    i, 400000       ;"0+@@  "
004516:  506340003235  hrlm     i, 3235         ;"HS@ :="
004517:  201500003346  movei    l, 3346         ;"0-  ;F"
004520:  202500003346  movem    l, 3346         ;"05  ;F"
004521:  204500000172  movs     l, 172          ;"0E  !Z"
004522:  202600000216  movem    j, 216          ;"06  "."
004523:  336452000000  skipn    f, (l)          ;";TJ   " "7RP\0\0"
004524:  254000004640  jrst     4640            ;"5@  F@"
004525:  550352003073  hrrz     i, 3073(l)      ;"M#J 8["
004526:  270340012330  add      i, 12330        ;"7#@!38"
004527:  202340012074  movem    i, 12074        ;"03@!0\"
004530:  402000012073  setzm    12073           ;"@0 !0["
004531:  607440000003  tlnn     f, colm         ;"P\@  #"
004532:  312452003124  came     f, 3124(l)      ;"94J 94"
004533:  254000004546  jrst     4546            ;"5@  EF"
004534:  553000000011  hrrzs    ufdc, f         ;"M8   )"
004535:  313440000044  camle    f, jobpdl       ;"9<@  D"
004536:  254000012466  jrst     12466           ;"5@ !4V"
004537:  305440000020  caige    f, qpds         ;"8L@  0"
004540:  271440000421  addi     f, 421          ;"7,@ $1"
004541:  200451000000  move     f, (f)          ;"0$I   "
004542:  316452003154  camn     f, 3154(l)      ;"9TJ 9L"
004543:  332000012075  skipe    12075           ;";0 !0]"
004544:  334000000000  skipa                    ;";@    " "7\0\0\0\0"
004545:  254000004610  jrst     4610            ;"5@  F("
004546:  476000012073  setom    12073           ;"GP !0["
004547:  202452003154  movem    f, 3154(l)      ;"04J 9L"
004550:  200452003073  move     f, 3073(l)      ;"0$J 8["
004551:  264000004762  jsr      4762            ;"6@  GR"
004552:  201700000040  movei    16, %order      ;"0/   @"
004553:  335012000000  skipge   (l)             ;";H*   " "7 P\0\0"
004554:  201700000052  movei    16, 52          ;"0/   J"
004555:  136700000007  idpb     16, i           ;"+W   '"
004556:  200712000000  move     16, (l)         ;"0'*   "
004557:  261740000012  push     q, l            ;"6/@  *"
004560:  603700000003  tlne     16, colm        ;"P?   #"
004561:  260740005065  pushj    q, 5065         ;"6'@ HU"
004562:  553000000016  hrrzs    ufdc, 16        ;"M8   ."
004563:  201440000040  movei    f, %order       ;"0,@  @"
004564:  260740005104  pushj    q, 5104         ;"6'@ I$"
004565:  200517000000  move     l, (q)          ;"0%/   "
004566:  200340012074  move     i, 12074        ;"0#@!0\"
004567:  200712000000  move     16, (l)         ;"0'*   "
004570:  603700000003  tlne     16, colm        ;"P?   #"
004571:  260740005065  pushj    q, 5065         ;"6'@ HU"
004572:  553000000016  hrrzs    ufdc, 16        ;"M8   ."
004573:  313700000044  camle    16, jobpdl      ;"9?   D"
004574:  254000012173  jrst     12173           ;"5@ !1["
004575:  200517000000  move     l, (q)          ;"0%/   "
004576:  305700000020  caige    16, qpds        ;"8O   0"
004577:  271700000421  addi     16, 421         ;"7/  $1"
004600:  200716000000  move     16, (16)        ;"0'.   "
004601:  554452000000  hlrz     f, (l)          ;"MDJ   "
004602:  620440400037  trz      f, 400037       ;"R$@@ ?"
004603:  260740005104  pushj    q, 5104         ;"6'@ I$"
004604:  260740005051  pushj    q, 5051         ;"6'@ HI"
004605:  262740000012  pop      q, l            ;"67@  *"
004606:  205700400000  movsi    16, 400000      ;"0O @  "
004607:  436712003073  iorm     16, 3073(l)     ;"CW* 8["
004610:  201700400000  movei    16, 400000      ;"0/ @  "
004611:  316500000014  camn     l, j            ;"9U   ,"
004612:  660700010000  tro      16, %ddels      ;"V' !  "
004613:  550452000000  hrrz     f, (l)          ;"M$J   "
004614:  316440000214  camn     f, 214          ;"9T@ ","
004615:  660700020000  tro      16, %rrufd      ;"V' "  "
004616:  316440000215  camn     f, 215          ;"9T@ "-"
004617:  660700040000  tro      16, %fast       ;"V' $  "
004620:  554452003073  hlrz     f, 3073(l)      ;"MDJ 8["
004621:  660440400000  tro      f, 400000       ;"V$@@  "
004622:  312440000016  came     f, 16           ;"94@  ."
004623:  506712003073  hrlm     16, 3073(l)     ;"HW* 8["
004624:  620700400000  trz      16, 400000      ;"R' @  "
004625:  242700777764  lsh      16, 777764      ;"47 __T"
004626:  200716012365  move     16, 12365(16)   ;"0'.!3U"
004627:  202720012074  movem    16, @12074      ;"070!0\"
004630:  331012003073  skipl    3073(l)         ;";(* 8["
004631:  254000004635  jrst     4635            ;"5@  F="
004632:  550700012074  hrrz     16, 12074       ;"M' !0\"
004633:  350440003346  aos      f, 3346         ;"=$@ ;F"
004634:  202711000000  movem    16, (f)         ;"07)   " " \\H\0\0"
004635:  253500004523  aobjn    l, 4523         ;"5=  E3"
004636:  607500000007  tlnn     l, i            ;"P]   '"
004637:  254000004523  jrst     4523            ;"5@  E3"
004640:  332000012075  skipe    12075           ;";0 !0]"
004641:  476000012073  setom    12073           ;"GP !0["
004642:  200440012442  move     f, 12442        ;"0$@!4B"
004643:  202440002337  movem    f, 2337         ;"04@ 3?"
004644:  202440002347  movem    f, 2347         ;"04@ 3G"
004645:  622400004000  trze     ii, %xtsrt      ;"R4  @ "
004646:  200440012311  move     f, 12311        ;"0$@!3)"
004647:  623400000001  tlze     ii, fncn        ;"R<   !"
004650:  200440012331  move     f, 12331        ;"0$@!39"
004651:  332000004375  skipe    4375            ;";0  C]"
004652:  200440004375  move     f, 4375         ;"0$@ C]"
004653:  623400000004  tlze     ii, hilin       ;"R<   $"
004654:  260740004737  pushj    q, 4737         ;"6'@ G?"
004655:  623400000010  tlze     ii, lasuuo      ;"R<   ("
004656:  200440012333  move     f, 12333        ;"0$@!3;"
004657:  403700004375  setzb    16, 4375        ;"@?  C]"
004660:  316440002340  camn     f, 2340         ;"9T@ 3@"
004661:  254000004671  jrst     4671            ;"5@  FY"
004662:  202440002350  movem    f, 2350         ;"04@ 3H"
004663:  202440002340  movem    f, 2340         ;"04@ 3@"
004664:  200700003346  move     16, 3346        ;"0'  ;F"
004665:  261700012344  push     16, 12344       ;"6/ !3D"
004666:  261700012342  push     16, 12342       ;"6/ !3B"
004667:  552700003346  hrrzm    16, 3346        ;"M7  ;F"
004670:  205700400000  movsi    16, 400000      ;"0O @  "
004671:  331000003233  skipl    3233            ;";(  :;"
004672:  502700003233  hllm     16, 3233        ;"H7  :;"
004673:  200440000012  move     f, l            ;"0$@  *"
004674:  550711003073  hrrz     16, 3073(f)     ;"M') 8["
004675:  261740000016  push     q, 16           ;"6/@  ."
004676:  402011003073  setzm    3073(f)         ;"@0) 8["
004677:  260740004773  pushj    q, 4773         ;"6'@ G["
004700:  262751003073  pop      q, 3073(f)      ;"67I 8["
004701:  200700012120  move     16, 12120       ;"0' !10"
004702:  251700003315  blt      16, 3315        ;"5/  ;-"
004703:  263740000000  popj     q,              ;"6?@   "
004704:  200500012442  move     l, 12442        ;"0% !4B"
004705:  316500002340  camn     l, 2340         ;"9U  3@"
004706:  263740000000  popj     q,              ;"6?@   "
004707:  336000000217  skipn    217             ;";P  "/"
004710:  254000004730  jrst     4730            ;"5@  G8"
004711:  202500002340  movem    l, 2340         ;"05  3@"
004712:  202500002337  movem    l, 2337         ;"05  3?"
004713:  200500012243  move     l, 12243        ;"0% !2C"
004714:  332000004374  skipe    4374            ;";0  C\"
004715:  703740012110  upgiot   q, 12110        ;"X?@!1("
004716:  251500003401  blt      l, 3401         ;"5-  <!"
004717:  200500012257  move     l, 12257        ;"0% !2O"
004720:  251500003411  blt      l, 3411         ;"5-  <)"
004721:  201500010000  movei    l, %ddels       ;"0- !  "
004722:  436500003402  iorm     l, 3402         ;"CU  <""
004723:  402000003412  setzm    3412            ;"@0  <*"
004724:  201500000021  movei    l, 21           ;"0-   1"
004725:  202500004373  movem    l, 4373         ;"05  C["
004726:  703740004372  upgiot   q, 4372         ;"X?@ CZ"
004727:  263740000000  popj     q,              ;"6?@   "
004730:  715000000017  pgsel    q               ;"YH   /"
004731:  202500002350  movem    l, 2350         ;"05  3H"
004732:  202500002340  movem    l, 2340         ;"05  3@"
004733:  714500003375  upgmvm   l, 3375         ;"YE  ;]"
004734:  202500002347  movem    l, 2347         ;"05  3G"
004735:  714500003374  upgmvm   l, 3374         ;"YE  ;\"
004736:  263740000000  popj     q,              ;"6?@   "
004737:  200700012252  move     16, 12252       ;"0' !2J"
004740:  202700002340  movem    16, 2340        ;"07  3@"
004741:  202700002350  movem    16, 2350        ;"07  3H"
004742:  336240012045  skipn    e, 12045        ;";R@!0E"
004743:  263740000000  popj     q,              ;"6?@   "
004744:  200340012477  move     i, 12477        ;"0#@!4_"
004745:  200440012340  move     f, 12340        ;"0$@!3@"
004746:  332000000217  skipe    217             ;";0  "/"
004747:  254000004752  jrst     4752            ;"5@  GJ"
004750:  200340012463  move     i, 12463        ;"0#@!4S"
004751:  200440012352  move     f, 12352        ;"0$@!3J"
004752:  202440012072  movem    f, 12072        ;"04@!0Z"
004753:  260740005434  pushj    q, 5434         ;"6'@ L<"
004754:  334700012337  skipa    16, 12337       ;";G !3?"
004755:  136700000007  idpb     16, i           ;"+W   '"
004756:  312340012072  came     i, 12072        ;"93@!0Z"
004757:  254000004755  jrst     4755            ;"5@  GM"
004760:  274740012346  sub      q, 12346        ;"7G@!3F"
004761:  254000004664  jrst     4664            ;"5@  FT"
004762:  310000004552  cam      ufdc, 4552      ;"9   EJ"
004763:  200340012442  move     i, 12442        ;"0#@!4B"
004764:  202351000001  movem    i, fncn(f)      ;"03I  !"
004765:  201351000002  movei    i, chnl(f)      ;"0+I  ""
004766:  505351000001  hrli     i, fncn(f)      ;"HKI  !"
004767:  251351000021  blt      i, 21(f)        ;"5+I  1"
004770:  201351000001  movei    i, fncn(f)      ;"0+I  !"
004771:  505340440700  hrli     i, 440700       ;"HK@D' "
004772:  254020004762  jrst     @4762           ;"5@0 GR"
004773:  336000000217  skipn    217             ;";P  "/"
004774:  332000012073  skipe    12073           ;";0 !0["
004775:  254000005007  jrst     5007            ;"5@  H'"
004776:  254000005007  jrst     5007            ;"5@  H'"
004777:  715000000017  pgsel    q               ;"YH   /"
005000:  201700003347  movei    16, 3347        ;"0/  ;G"
005001:  313700003346  camle    16, 3346        ;"9?  ;F"
005002:  263740000000  popj     q,              ;"6?@   "
005003:  200456000000  move     f, (16)         ;"0$N   "
005004:  200511000000  move     l, (f)          ;"0%)   "
005005:  714511000000  upgmvm   l, (f)          ;"YE)   "
005006:  344700005001  aoja     16, 5001        ;"<G  H!"
005007:  205700400000  movsi    16, 400000      ;"0O @  "
005010:  332000000217  skipe    217             ;";0  "/"
005011:  436700003234  iorm     16, 3234        ;"CW  :<"
005012:  403500000016  setzb    l, 16           ;"@=   ."
005013:  332000004374  skipe    4374            ;";0  C\"
005014:  703740012110  upgiot   q, 12110        ;"X?@!1("
005015:  260740005027  pushj    q, 5027         ;"6'@ H7"
005016:  205700400000  movsi    16, 400000      ;"0O @  "
005017:  332000000217  skipe    217             ;";0  "/"
005020:  260740005027  pushj    q, 5027         ;"6'@ H7"
005021:  402012003372  setzm    3372(l)         ;"@0* ;Z"
005022:  402012003373  setzm    3373(l)         ;"@0* ;["
005023:  202500004373  movem    l, 4373         ;"05  C["
005024:  350000004373  aos      4373            ;"=   C["
005025:  703740004372  upgiot   q, 4372         ;"X?@ CZ"
005026:  263740000000  popj     q,              ;"6?@   "
005027:  334240012443  skipa    e, 12443        ;";B@!4C"
005030:  322300001424  jumpe    p, 1424         ;":3  ,4"
005031:  200305000000  move     p, (e)          ;"0#%   " " \f(\0\0"
005032:  321300005036  jumpl    p, 5036         ;":+  H>"
005033:  336000000217  skipn    217             ;";P  "/"
005034:  327300005036  jumpg    p, 5036         ;":[  H>"
005035:  344240005030  aoja     e, 5030         ;"<B@ H8"
005036:  412705000000  andcam   16, (e)         ;"A7%   " "B\\(\0\0"
005037:  336546000000  skipn    k, (p)          ;";UF   " "7V0\0\0"
005040:  344240005030  aoja     e, 5030         ;"<B@ H8"
005041:  322700005046  jumpe    16, 5046        ;":7  HF"
005042:  660540010000  tro      k, %ddels       ;"V%@!  "
005043:  254000005046  jrst     5046            ;"5@  HF"
005044:  336546000000  skipn    k, (p)          ;";UF   " "7V0\0\0"
005045:  344240005030  aoja     e, 5030         ;"<B@ H8"
005046:  202552003372  movem    k, 3372(l)      ;"05J ;Z"
005047:  271500000001  addi     l, fncn         ;"7-   !"
005050:  344300005044  aoja     p, 5044         ;"<C  HD"
005051:  336000000217  skipn    217             ;";P  "/"
005052:  254000005057  jrst     5057            ;"5@  HO"
005053:  201700000015  movei    16, ntpcw       ;"0/   -"
005054:  136700000007  idpb     16, i           ;"+W   '"
005055:  201700000012  movei    16, l           ;"0/   *"
005056:  136700000007  idpb     16, i           ;"+W   '"
005057:  634700000016  tdza     16, 16          ;"SG   ."
005060:  136700000007  idpb     16, i           ;"+W   '"
005061:  603340760000  tlne     i, 760000       ;"P;@^  "
005062:  254000005060  jrst     5060            ;"5@  HP"
005063:  402007000001  setzm    fncn(i)         ;"@0'  !"
005064:  263740000000  popj     q,              ;"6?@   "
005065:  204440000016  movs     f, 16           ;"0D@  ."
005066:  200716000000  move     16, (16)        ;"0'.   "
005067:  607700000003  tlnn     16, colm        ;"P_   #"
005070:  254000005074  jrst     5074            ;"5@  H\"
005071:  261740000011  push     q, f            ;"6/@  )"
005072:  260740005065  pushj    q, 5065         ;"6'@ HU"
005073:  262740000011  pop      q, f            ;"67@  )"
005074:  405440000003  andi     f, colm         ;"@L@  #"
005075:  553000000016  hrrzs    ufdc, 16        ;"M8   ."
005076:  313700000044  camle    16, jobpdl      ;"9?   D"
005077:  254000012223  jrst     12223           ;"5@ !23"
005100:  305700000020  caige    16, qpds        ;"8O   0"
005101:  271700000421  addi     16, 421         ;"7/  $1"
005102:  256011012167  xct      12167(f)        ;"5P)!1W"
005103:  263740000000  popj     q,              ;"6?@   "
005104:  322700005233  jumpe    16, 5233        ;":7  J;"
005105:  135500012251  ldb      l, 12251        ;"+M !2I"
005106:  242440777773  lsh      f, 777773       ;"44@__["
005107:  620400020000  trz      ii, %rrufd      ;"R$ "  "
005110:  622440000040  trze     f, %order       ;"R4@  @"
005111:  660400020000  tro      ii, %rrufd      ;"V$ "  "
005112:  405440000077  andi     f, 77           ;"@L@  _"
005113:  254031005114  jrst     @5114(f)        ;"5@9 I,"
005114:  263740000000  popj     q,              ;"6?@   "
005115:  000000005264                           ;"    JT"
005116:  000000005237                           ;"    J?"
005117:  000000005464                           ;"    LT"
005120:  000000005624                           ;"    N4"
005121:  000000005615                           ;"    N-"
005122:  000000005502                           ;"    M""
005123:  000000005532                           ;"    M:"
005124:  000000005661                           ;"    NQ"
005125:  000000006006                           ;"    P&"
005126:  000000005765                           ;"    OU"
005127:  000000005330                           ;"    K8"
005130:  000000005330                           ;"    K8"
005131:  000000005330                           ;"    K8"
005132:  000000005636                           ;"    N>"
005133:  000000005176                           ;"    I^"
005134:  000000005211                           ;"    J)"
005135:  000000005227                           ;"    J7"
005136:  336440010526  skipn    f, 10526        ;";T@!%6"
005137:  263740000000  popj     q,              ;"6?@   "
005140:  361500002330  sojl     l, 2330         ;">-  38"
005141:  557000000011  hlrzs    ufdc, f         ;"MX   )"
005142:  322440001424  jumpe    f, 1424         ;":4@ ,4"
005143:  332451000000  skipe    f, (f)          ;";4I   " "6RH\0\0"
005144:  254000005140  jrst     5140            ;"5@  I@"
005145:  263740000000  popj     q,              ;"6?@   "
005146:  505440777756  hrli     f, 777756       ;"HL@__N"
005147:  402000012071  setzm    12071           ;"@0 !0Y"
005150:  201300000000  movei    p, ufdc         ;"0+    " " ,\0\0\0"
005151:  402000012070  setzm    12070           ;"@0 !0X"
005152:  616700000012  tdnn     16, l           ;"QW   *"
005153:  254000005171  jrst     5171            ;"5@  IY"
005154:  336251000000  skipn    e, (f)          ;";RI   " "7JH\0\0"
005155:  254000012166  jrst     12166           ;"5@ !1V"
005156:  261740000005  push     q, e            ;"6/@  %"
005157:  201247777765  movei    e, 777765(i)    ;"0*G__U"
005160:  311240012067  caml     e, 12067        ;"9*@!0W"
005161:  476000012071  setom    12071           ;"GP !0Y"
005162:  262740000005  pop      q, e            ;"67@  %"
005163:  332000012071  skipe    12071           ;";0 !0Y"
005164:  254000012166  jrst     12166           ;"5@ !1V"
005165:  332000000006  skipe    p               ;";0   &"
005166:  136300000007  idpb     p, i            ;"+S   '"
005167:  260740005434  pushj    q, 5434         ;"6'@ L<"
005170:  201300000041  movei    p, job41        ;"0+   A"
005171:  242500777777  lsh      l, 777777       ;"45 ___"
005172:  253440005152  aobjn    f, 5152         ;"5<@ IJ"
005173:  332000012070  skipe    12070           ;";0 !0X"
005174:  254000012427  jrst     12427           ;"5@ !47"
005175:  263740000000  popj     q,              ;"6?@   "
005176:  260740005136  pushj    q, 5136         ;"6'@ I>"
005177:  254000005237  jrst     5237            ;"5@  J?"
005200:  552340012067  hrrzm    i, 12067        ;"M3@!0W"
005201:  205500400000  movsi    l, 400000       ;"0M @  "
005202:  260740005146  pushj    q, 5146         ;"6'@ IF"
005203:  322500012424  jumpe    l, 12424        ;":5 !44"
005204:  646300000015  trcn     p, ntpcw        ;"TS   -"
005205:  254000005202  jrst     5202            ;"5@  J""
005206:  136300000007  idpb     p, i            ;"+S   '"
005207:  136300000007  idpb     p, i            ;"+S   '"
005210:  254000005202  jrst     5202            ;"5@  J""
005211:  260740005136  pushj    q, 5136         ;"6'@ I>"
005212:  254000005264  jrst     5264            ;"5@  JT"
005213:  261740000011  push     q, f            ;"6/@  )"
005214:  552340012067  hrrzm    i, 12067        ;"M3@!0W"
005215:  261740000016  push     q, 16           ;"6/@  ."
005216:  513000000016  hllzs    ufdc, 16        ;"I8   ."
005217:  260740005264  pushj    q, 5264         ;"6'@ JT"
005220:  262740000016  pop      q, 16           ;"67@  ."
005221:  262740000011  pop      q, f            ;"67@  )"
005222:  201500400000  movei    l, 400000       ;"0- @  "
005223:  260740005146  pushj    q, 5146         ;"6'@ IF"
005224:  666300000060  tron     p, 60           ;"VS   P"
005225:  136300000007  idpb     p, i            ;"+S   '"
005226:  263740000000  popj     q,              ;"6?@   "
005227:  260740005136  pushj    q, 5136         ;"6'@ I>"
005230:  254000005264  jrst     5264            ;"5@  JT"
005231:  271440000022  addi     f, 22           ;"7,@  2"
005232:  254000005213  jrst     5213            ;"5@  J+"
005233:  201700000060  movei    16, 60          ;"0/   P"
005234:  136700000007  idpb     16, i           ;"+W   '"
005235:  263740000000  popj     q,              ;"6?@   "
005236:  000000000000                           ;"      "
005237:  402000005236  setzm    5236            ;"@0  J>"
005240:  201440000006  movei    f, p            ;"0,@  &"
005241:  201640000000  movei    ntpcw, ufdc     ;"0.@   " " :\0\0\0"
005242:  246640000003  lshc     ntpcw, c        ;"4V@  #"
005243:  326640005247  jumpn    ntpcw, 5247     ;":V@ JG"
005244:  367440005242  sojg     f, 5242         ;">\@ JB"
005245:  476000005236  setom    5236            ;"GP  J>"
005246:  254000005240  jrst     5240            ;"5@  J@"
005247:  435640000060  iori     ntpcw, 60       ;"CN@  P"
005250:  136640000007  idpb     ntpcw, i        ;"+V@  '"
005251:  363440005255  sojle    f, 5255         ;"><@ JM"
005252:  201640000000  movei    ntpcw, ufdc     ;"0.@   " " :\0\0\0"
005253:  246640000003  lshc     ntpcw, c        ;"4V@  #"
005254:  254000005247  jrst     5247            ;"5@  JG"
005255:  332000005236  skipe    5236            ;";0  J>"
005256:  263740000000  popj     q,              ;"6?@   "
005257:  476000005236  setom    5236            ;"GP  J>"
005260:  201640000040  movei    ntpcw, %order   ;"0.@  @"
005261:  136640000007  idpb     ntpcw, i        ;"+V@  '"
005262:  201440000006  movei    f, p            ;"0,@  &"
005263:  364540005252  soja     k, 5252         ;">E@ JJ"
005264:  647700777777  tlcn     16, 777777      ;"T_ ___"
005265:  254000012164  jrst     12164           ;"5@ !1T"
005266:  647700777777  tlcn     16, 777777      ;"T_ ___"
005267:  254000005464  jrst     5464            ;"5@  LT"
005270:  647700777000  tlcn     16, 777000      ;"T_ _X "
005271:  254000012162  jrst     12162           ;"5@ !1R"
005272:  647700777000  tlcn     16, 777000      ;"T_ _X "
005273:  254000005624  jrst     5624            ;"5@  N4"
005274:  200500000016  move     l, 16           ;"0%   ."
005275:  260740006041  pushj    q, 6041         ;"6'@ PA"
005276:  322240005514  jumpe    e, 5514         ;":2@ M,"
005277:  200300000005  move     p, e            ;"0#   %"
005300:  260740005504  pushj    q, 5504         ;"6'@ M$"
005301:  201300000040  movei    p, %order       ;"0+   @"
005302:  136300000007  idpb     p, i            ;"+S   '"
005303:  622400040000  trze     ii, %fast       ;"R4 $  "
005304:  254000012154  jrst     12154           ;"5@ !1L"
005305:  135700012233  ldb      16, 12233       ;"+O !2;"
005306:  322700005312  jumpe    16, 5312        ;":7  K*"
005307:  260740005420  pushj    q, 5420         ;"6'@ L0"
005310:  201700000054  movei    16, 54          ;"0/   L"
005311:  136700000007  idpb     16, i           ;"+W   '"
005312:  201700000100  movei    16, %displ      ;"0/  ! "
005313:  603500000020  tlne     l, qpds         ;"P=   0"
005314:  136700000007  idpb     16, i           ;"+W   '"
005315:  550700000012  hrrz     16, l           ;"M'   *"
005316:  322700005320  jumpe    16, 5320        ;":7  K0"
005317:  260740005346  pushj    q, 5346         ;"6'@ KF"
005320:  135700012277  ldb      16, 12277       ;"+O !2_"
005321:  322700005327  jumpe    16, 5327        ;":7  K7"
005322:  201640000050  movei    ntpcw, 50       ;"0.@  H"
005323:  136640000007  idpb     ntpcw, i        ;"+V@  '"
005324:  260740005420  pushj    q, 5420         ;"6'@ L0"
005325:  201700000051  movei    16, 51          ;"0/   I"
005326:  136700000007  idpb     16, i           ;"+W   '"
005327:  263740000000  popj     q,              ;"6?@   "
005330:  261740000011  push     q, f            ;"6/@  )"
005331:  261740000016  push     q, 16           ;"6/@  ."
005332:  513000000016  hllzs    ufdc, 16        ;"I8   ."
005333:  260740005264  pushj    q, 5264         ;"6'@ JT"
005334:  262740000016  pop      q, 16           ;"67@  ."
005335:  200457000000  move     f, (q)          ;"0$O   "
005336:  200511012273  move     l, 12273(f)     ;"0%)!2["
005337:  136500000007  idpb     l, i            ;"+U   '"
005340:  256011012440  xct      12440(f)        ;"5P)!4@"
005341:  260771012072  pushj    q, @12072(f)    ;"6'Y!0Z"
005342:  262740000011  pop      q, f            ;"67@  )"
005343:  200511012270  move     l, 12270(f)     ;"0%)!2X"
005344:  136500000007  idpb     l, i            ;"+U   '"
005345:  263740000000  popj     q,              ;"6?@   "
005346:  305700000140  caige    16, $bgddt      ;"8O  !@"
005347:  254000005420  jrst     5420            ;"5@  L0"
005350:  200540000007  move     k, i            ;"0%@  '"
005351:  202700005417  movem    16, 5417        ;"07  L/"
005352:  260740006732  pushj    q, 6732         ;"6'@ W:"
005353:  200340000013  move     i, k            ;"0#@  +"
005354:  214240007134  movm     e, 7134         ;"1B@ Y<"
005355:  322240005402  jumpe    e, 5402         ;":2@ L""
005356:  214440007135  movm     f, 7135         ;"1D@ Y="
005357:  201640000777  movei    ntpcw, 777      ;"0.@ '_"
005360:  406640005413  andm     ntpcw, $c       ;"@V@ L+"
005361:  406640005414  andm     ntpcw, 5414     ;"@V@ L,"
005362:  313440005413  camle    f, $c           ;"9<@ L+"
005363:  254000005400  jrst     5400            ;"5@  L "
005364:  313240005414  camle    e, 5414         ;"9:@ L,"
005365:  254000005374  jrst     5374            ;"5@  K\"
005366:  200700005416  move     16, 5416        ;"0'  L."
005367:  220700000011  imul     16, f           ;"2'   )"
005370:  240700777772  ash      16, 777772      ;"4' __Z"
005371:  274700000005  sub      16, e           ;"7G   %"
005372:  274700005415  sub      16, 5415        ;"7G  L-"
005373:  327700005402  jumpg    16, 5402        ;":_  L""
005374:  201640000053  movei    ntpcw, 53       ;"0.@  K"
005375:  200700007126  move     16, 7126        ;"0'  Y6"
005376:  200240007127  move     e, 7127         ;"0"@ Y7"
005377:  254000005406  jrst     5406            ;"5@  L&"
005400:  313240005414  camle    e, 5414         ;"9:@ L,"
005401:  254000005460  jrst     5460            ;"5@  LP"
005402:  201640000055  movei    ntpcw, 55       ;"0.@  M"
005403:  200440000005  move     f, e            ;"0$@  %"
005404:  200700007131  move     16, 7131        ;"0'  Y9"
005405:  200240007132  move     e, 7132         ;"0"@ Y:"
005406:  260740005427  pushj    q, 5427         ;"6'@ L7"
005407:  322440001424  jumpe    f, 1424         ;":4@ ,4"
005410:  200700000011  move     16, f           ;"0'   )"
005411:  136640000007  idpb     ntpcw, i        ;"+V@  '"
005412:  254000005464  jrst     5464            ;"5@  LT"
$c:
005413:  000000000077                           ;"     _"
005414:  000000000077                           ;"     _"
005415:  000000000010  ii                       ;"     ("
005416:  000000000040  %order                   ;"     @"
005417:  000000042174                           ;"   $1\"
005420:  202340000005  movem    i, e            ;"03@  %"
005421:  260740006732  pushj    q, 6732         ;"6'@ W:"
005422:  200340000005  move     i, e            ;"0#@  %"
005423:  332000007134  skipe    7134            ;";0  Y<"
005424:  254000005464  jrst     5464            ;"5@  LT"
005425:  200700007131  move     16, 7131        ;"0'  Y9"
005426:  200240007132  move     e, 7132         ;"0"@ Y:"
005427:  322240005433  jumpe    e, 5433         ;":2@ L;"
005430:  260740005434  pushj    q, 5434         ;"6'@ L<"
005431:  201240000046  movei    e, alpha        ;"0*@  F"
005432:  136240000007  idpb     e, i            ;"+R@  '"
005433:  200240000016  move     e, 16           ;"0"@  ."
005434:  621240740000  tlz      e, 740000       ;"R*@\  "
005435:  231240000050  idivi    e, 50           ;"3*@  H"
005436:  271300000057  addi     p, 57           ;"7+   O"
005437:  305300000072  caige    p, jobhcu       ;"8K   Z"
005440:  254000005452  jrst     5452            ;"5@  LJ"
005441:  271300000007  addi     p, i            ;"7+   '"
005442:  307300000132  caig     p, jobfdv       ;"8[  !:"
005443:  254000005452  jrst     5452            ;"5@  LJ"
005444:  306300000133  cain     p, jobcor       ;"8S  !;"
005445:  201300000056  movei    p, 56           ;"0+   N"
005446:  306300000134  cain     p, 134          ;"8S  !<"
005447:  201300000044  movei    p, jobpdl       ;"0+   D"
005450:  306300000135  cain     p, 135          ;"8S  !="
005451:  201300000045  movei    p, jobblt       ;"0+   E"
005452:  322240005456  jumpe    e, 5456         ;":2@ LN"
005453:  506317000000  hrlm     p, (q)          ;"HS/   " "QLx\0\0"
005454:  260740005434  pushj    q, 5434         ;"6'@ L<"
005455:  554317000000  hlrz     p, (q)          ;"MC/   " "[\fx\0\0"
005456:  136300000007  idpb     p, i            ;"+S   '"
005457:  263740000000  popj     q,              ;"6?@   "
005460:  460640005417  setcm    ntpcw, 5417     ;"F&@ L/"
005461:  602640774000  trne     ntpcw, 774000   ;"P6@_@ "
005462:  641640777777  tlc      ntpcw, 777777   ;"T.@___"
005463:  644640777777  trca     ntpcw, 777777   ;"TF@___"
005464:  200640000016  move     ntpcw, 16       ;"0&@  ."
005465:  321640005476  jumpl    ntpcw, 5476     ;":.@ L^"
005466:  231640000010  idivi    ntpcw, lasuuo   ;"3.@  ("
005467:  322640005473  jumpe    ntpcw, 5473     ;":6@ L["
005470:  506717000000  hrlm     16, (q)         ;"HW/   " "Q\\x\0\0"
005471:  260740005466  pushj    q, 5466         ;"6'@ LV"
005472:  554717000000  hlrz     16, (q)         ;"MG/   "
005473:  435700000060  iori     16, 60          ;"CO   P"
005474:  136700000007  idpb     16, i           ;"+W   '"
005475:  263740000000  popj     q,              ;"6?@   "
005476:  201700000055  movei    16, 55          ;"0/   M"
005477:  136700000007  idpb     16, i           ;"+W   '"
005500:  217000000015  movms    ufdc, ntpcw     ;"1X   -"
005501:  254000005466  jrst     5466            ;"5@  LV"
005502:  205240040000  movsi    e, %fast        ;"0J@$  "
005503:  334300000016  skipa    p, 16           ;";C   ."
005504:  201240000000  movei    e, ufdc         ;"0*@   " " *\0\0\0"
005505:  242240777771  lsh      e, 777771       ;"42@__Y"
005506:  246240000006  lshc     e, p            ;"4R@  &"
005507:  322240005512  jumpe    e, 5512         ;":2@ M*"
005510:  271240000040  addi     e, %order       ;"7*@  @"
005511:  136240000007  idpb     e, i            ;"+R@  '"
005512:  326300005505  jumpn    p, 5505         ;":S  M%"
005513:  263740000000  popj     q,              ;"6?@   "
005514:  200700000012  move     16, l           ;"0'   *"
005515:  200540000007  move     k, i            ;"0%@  '"
005516:  260740006732  pushj    q, 6732         ;"6'@ W:"
005517:  200340000013  move     i, k            ;"0#@  +"
005520:  332300007134  skipe    p, 7134         ;";3  Y<"
005521:  334300007135  skipa    p, 7135         ;";C  Y="
005522:  334240007131  skipa    e, 7131         ;";B@ Y9"
005523:  200240007126  move     e, 7126         ;"0"@ Y6"
005524:  200700000012  move     16, l           ;"0'   *"
005525:  603300777000  tlne     p, 777000       ;"P; _X "
005526:  254000005624  jrst     5624            ;"5@  N4"
005527:  200500000006  move     l, p            ;"0%   &"
005530:  260740005434  pushj    q, 5434         ;"6'@ L<"
005531:  254000005301  jrst     5301            ;"5@  K!"
005532:  616700012256  tdnn     16, 12256       ;"QW !2N"
005533:  242700000001  lsh      16, a           ;"47   !"
005534:  261740000012  push     q, l            ;"6/@  *"
005535:  201300000005  movei    p, lolin        ;"0+   %"
005536:  201640000000  movei    ntpcw, ufdc     ;"0.@   " " :\0\0\0"
005537:  246640000007  lshc     ntpcw, i        ;"4V@  '"
005540:  322640005554  jumpe    ntpcw, 5554     ;":6@ ML"
005541:  306640000012  cain     ntpcw, l        ;"8V@  *"
005542:  254000005573  jrst     5573            ;"5@  M["
005543:  306640000015  cain     ntpcw, ntpcw    ;"8V@  -"
005544:  254000005572  jrst     5572            ;"5@  MZ"
005545:  306640000011  cain     ntpcw, f        ;"8V@  )"
005546:  254000005570  jrst     5570            ;"5@  MX"
005547:  306640000177  cain     ntpcw, 177      ;"8V@ !_"
005550:  254000005563  jrst     5563            ;"5@  MS"
005551:  306640000175  cain     ntpcw, 175      ;"8V@ !]"
005552:  254000005567  jrst     5567            ;"5@  MW"
005553:  136640000007  idpb     ntpcw, i        ;"+V@  '"
005554:  367300005536  sojg     p, 5536         ;">[  M>"
005555:  325700005560  jumpge   16, 5560        ;":O  MP"
005556:  201640000100  movei    ntpcw, %displ   ;"0.@ ! "
005557:  136640000007  idpb     ntpcw, i        ;"+V@  '"
005560:  262740000012  pop      q, l            ;"67@  *"
005561:  263740000000  popj     q,              ;"6?@   "
005562:  000000000000                           ;"      "
005563:  332000000217  skipe    217             ;";0  "/"
005564:  254000005612  jrst     5612            ;"5@  N*"
005565:  201500000134  movei    l, 134          ;"0-  !<"
005566:  254000005553  jrst     5553            ;"5@  MK"
005567:  334500012254  skipa    l, 12254        ;";E !2L"
005570:  200500012325  move     l, 12325        ;"0% !35"
005571:  254000005574  jrst     5574            ;"5@  M\"
005572:  334500012131  skipa    l, 12131        ;";E !19"
005573:  200500012104  move     l, 12104        ;"0% !1$"
005574:  332000000217  skipe    217             ;";0  "/"
005575:  254000005612  jrst     5612            ;"5@  N*"
005576:  634640000015  tdza     ntpcw, ntpcw    ;"SF@  -"
005577:  136640000007  idpb     ntpcw, i        ;"+V@  '"
005600:  603340760000  tlne     i, 760000       ;"P;@^  "
005601:  254000005577  jrst     5577            ;"5@  M_"
005602:  202507000002  movem    l, chnl(i)      ;"05'  ""
005603:  201500000446  movei    l, 446          ;"0-  $F"
005604:  202507000001  movem    l, fncn(i)      ;"05'  !"
005605:  201500001046  movei    l, 1046         ;"0-  (F"
005606:  202507000003  movem    l, colm(i)      ;"05'  #"
005607:  271340000003  addi     i, colm         ;"7+@  #"
005610:  505340000700  hrli     i, 700          ;"HK@ ' "
005611:  254000005554  jrst     5554            ;"5@  ML"
005612:  201500000177  movei    l, 177          ;"0-  !_"
005613:  136500000007  idpb     l, i            ;"+U   '"
005614:  254000005553  jrst     5553            ;"5@  MK"
005615:  200240000016  move     e, 16           ;"0"@  ."
005616:  135700012222  ldb      16, 12222       ;"+O !22"
005617:  242700000002  lsh      16, b           ;"47   ""
005620:  260740005464  pushj    q, 5464         ;"6'@ LT"
005621:  201700000040  movei    16, %order      ;"0/   @"
005622:  136700000007  idpb     16, i           ;"+W   '"
005623:  254000005434  jrst     5434            ;"5@  L<"
005624:  200500000016  move     l, 16           ;"0%   ."
005625:  557000000016  hlrzs    ufdc, 16        ;"MX   ."
005626:  322700012147  jumpe    16, 12147       ;":7 !1G"
005627:  260740005346  pushj    q, 5346         ;"6'@ KF"
005630:  201700000054  movei    16, 54          ;"0/   L"
005631:  136700000007  idpb     16, i           ;"+W   '"
005632:  136700000007  idpb     16, i           ;"+W   '"
005633:  550700000012  hrrz     16, l           ;"M'   *"
005634:  322700005233  jumpe    16, 5233        ;":7  J;"
005635:  254000005346  jrst     5346            ;"5@  KF"
005636:  261740000016  push     q, 16           ;"6/@  ."
005637:  200300012361  move     p, 12361        ;"0# !3Q"
005640:  260740005504  pushj    q, 5504         ;"6'@ M$"
005641:  201700000040  movei    16, %order      ;"0/   @"
005642:  136700000007  idpb     16, i           ;"+W   '"
005643:  135700012375  ldb      16, 12375       ;"+O !3]"
005644:  260740005767  pushj    q, 5767         ;"6'@ OW"
005645:  200517000000  move     l, (q)          ;"0%/   "
005646:  621500777740  tlz      l, 777740       ;"R- __@"
005647:  260740005310  pushj    q, 5310         ;"6'@ K("
005650:  135700012376  ldb      16, 12376       ;"+O !3^"
005651:  274740012346  sub      q, 12346        ;"7G@!3F"
005652:  306700000044  cain     16, jobpdl      ;"8W   D"
005653:  254000001424  jrst     1424            ;"5@  ,4"
005654:  201440000054  movei    f, 54           ;"0,@  L"
005655:  136440000007  idpb     f, i            ;"+T@  '"
005656:  275700000043  subi     16, jobenb      ;"7O   C"
005657:  217000000016  movms    ufdc, 16        ;"1X   ."
005660:  254000005767  jrst     5767            ;"5@  OW"
005661:  321700005665  jumpl    16, 5665        ;":/  NU"
005662:  607700000400  tlnn     16, %tcore      ;"P_  $ "
005663:  254000005765  jrst     5765            ;"5@  OU"
005664:  254000005673  jrst     5673            ;"5@  N["
005665:  214500000016  movm     l, 16           ;"1E   ."
005666:  607500000400  tlnn     l, %tcore       ;"P]  $ "
005667:  254000005765  jrst     5765            ;"5@  OU"
005670:  217000000016  movms    ufdc, 16        ;"1X   ."
005671:  201500000055  movei    l, 55           ;"0-   M"
005672:  136500000007  idpb     l, i            ;"+U   '"
005673:  202200005722  movem    d, 5722         ;"02  O2"
005674:  200200000016  move     d, 16           ;"0"   ."
005675:  403240000006  setzb    e, p            ;"@:@  &"
005676:  315200005757  camge    d, 5757         ;"9J  OO"
005677:  254000005723  jrst     5723            ;"5@  O3"
005700:  311200005745  caml     d, 5745         ;"9*  OE"
005701:  344240005723  aoja     e, 5723         ;"<B@ O3"
005702:  225200000400  muli     d, %tcore       ;"2J  $ "
005703:  244244777535  ashc     e, 777535(d)    ;"4BD_]="
005704:  200700000005  move     16, e           ;"0'   %"
005705:  201440000000  movei    f, ufdc         ;"0,@   " " 2\0\0\0"
005706:  260740005767  pushj    q, 5767         ;"6'@ OW"
005707:  201700000056  movei    16, 56          ;"0/   N"
005710:  136700000007  idpb     16, i           ;"+W   '"
005711:  275440000010  subi     f, lasuuo       ;"7L@  ("
005712:  200240000006  move     e, p            ;"0"@  &"
005713:  225240000012  muli     e, l            ;"2J@  *"
005714:  200700000005  move     16, e           ;"0'   %"
005715:  260740006003  pushj    q, 6003         ;"6'@ P#"
005716:  332000000006  skipe    p               ;";0   &"
005717:  341440005712  aojl     f, 5712         ;"<,@ O*"
005720:  200200005722  move     d, 5722         ;"0"  O2"
005721:  263740000000  popj     q,              ;"6?@   "
005722:  000000000000                           ;"      "
005723:  211300000006  movni    p, p            ;"1+   &"
005724:  201500000000  movei    l, ufdc         ;"0-    " " 4\0\0\0"
005725:  240500000001  ash      l, a            ;"4%   !"
005726:  256005005760  xct      5760(e)         ;"5P% OP"
005727:  254000005732  jrst     5732            ;"5@  O:"
005730:  164225005761  fmpr     d, @5761(e)     ;".B5 OQ"
005731:  435500000001  iori     l, fncn         ;"CM   !"
005732:  346300005725  aojn     p, 5725         ;"<S  O5"
005733:  261745005763  push     q, 5763(e)      ;"6/E OS"
005734:  260740005702  pushj    q, 5702         ;"6'@ O""
005735:  262740000011  pop      q, f            ;"67@  )"
005736:  201240000105  movei    e, pds          ;"0*@ !%"
005737:  136240000007  idpb     e, i            ;"+R@  '"
005740:  136440000007  idpb     f, i            ;"+T@  '"
005741:  200700000012  move     16, l           ;"0'   *"
005742:  254000005767  jrst     5767            ;"5@  OW"
005743:  353473426555  aosle    f, @426555(k)   ;"=<[BUM"
005744:  266434157116  jsa      ii, @157116(j)  ;"6T<-Y." "-Qa^'"
005745:  233575360400  idivb    k, @360400(ntpcw);"3=]>$ " "&wka\0"
005746:  216470400000  movmm    f, @400000(ii)  ;"1TX@  " "#SD\0\0"
005747:  207620000000  movss    j, @ufdc        ;"0^0   " "!y\0\0\0"
005750:  204500000000  movs     l, ufdc         ;"0E    "
005751:  201400000000  movei    ii, ufdc        ;"0,    " " 0\0\0\0"
005752:  026637304365                           ;""V?8CU"
005753:  113715126246                           ;")?-*RF"
005754:  146527461671  fadrm    l, @461671(i)   ;",U7F.Y"
005755:  163643334273  fmpb     ntpcw, 334273(c);".>C;B["
005756:  172507534122  fdvm     l, 534122(i)    ;"/5'KA2"
005757:  175631463146  fdvri    j, @463146(f)   ;"/N9F9F"
005760:  313206005760  camle    d, 5760(p)      ;"9:& OP"
005761:  315206005751  camge    d, 5751(p)      ;"9J& OI"
005762:  000006005760  p,,                      ;"  & OP"
005763:  000000000055                           ;"     M"
005764:  000000000053                           ;"     K"
005765:  201640000075  movei    ntpcw, jobjda   ;"0.@  ]"
005766:  136640000007  idpb     ntpcw, i        ;"+V@  '"
005767:  336640000016  skipn    ntpcw, 16       ;";V@  ."
005770:  254000005233  jrst     5233            ;"5@  J;"
005771:  325640005775  jumpge   ntpcw, 5775     ;":N@ O]"
005772:  201700000055  movei    16, 55          ;"0/   M"
005773:  136700000007  idpb     16, i           ;"+W   '"
005774:  217000000015  movms    ufdc, ntpcw     ;"1X   -"
005775:  231640000012  idivi    ntpcw, l        ;"3.@  *"
005776:  271440000001  addi     f, fncn         ;"7,@  !"
005777:  322640006003  jumpe    ntpcw, 6003     ;":6@ P#"
006000:  506717000000  hrlm     16, (q)         ;"HW/   " "Q\\x\0\0"
006001:  260740005775  pushj    q, 5775         ;"6'@ O]"
006002:  554717000000  hlrz     16, (q)         ;"MG/   "
006003:  271700000060  addi     16, 60          ;"7/   P"
006004:  136700000007  idpb     16, i           ;"+W   '"
006005:  263740000000  popj     q,              ;"6?@   "
006006:  200440000012  move     f, l            ;"0$@  *"
006007:  200300000016  move     p, 16           ;"0#   ."
006010:  201500000001  movei    l, fncn         ;"0-   !"
006011:  322440006023  jumpe    f, 6023         ;":4@ P3"
006012:  201240000000  movei    e, ufdc         ;"0*@   " " *\0\0\0"
006013:  246251000000  lshc     e, (f)          ;"4RI   " ")JH\0\0"
006014:  242511000000  lsh      l, (f)          ;"45)   " "(TH\0\0"
006015:  200700000005  move     16, e           ;"0'   %"
006016:  260740005464  pushj    q, 5464         ;"6'@ LT"
006017:  322500001424  jumpe    l, 1424         ;":5  ,4"
006020:  201700000054  movei    16, 54          ;"0/   L"
006021:  136700000007  idpb     16, i           ;"+W   '"
006022:  254000006012  jrst     6012            ;"5@  P*"
006023:  331440010524  skipl    f, 10524        ;";,@!%4"
006024:  450440000000  setca    f,              ;"E$@   "
006025:  201240000000  movei    e, ufdc         ;"0*@   " " *\0\0\0"
006026:  246240000001  lshc     e, a            ;"4R@  !"
006027:  242500000001  lsh      l, a            ;"45   !"
006030:  242440000001  lsh      f, a            ;"44@  !"
006031:  322500006033  jumpe    l, 6033         ;":5  P;"
006032:  321440006026  jumpl    f, 6026         ;":,@ P6"
006033:  200700000005  move     16, e           ;"0'   %"
006034:  260740005464  pushj    q, 5464         ;"6'@ LT"
006035:  322500001424  jumpe    l, 1424         ;":5  ,4"
006036:  201700000054  movei    16, 54          ;"0/   L"
006037:  136700000007  idpb     16, i           ;"+W   '"
006040:  254000006024  jrst     6024            ;"5@  P4"
006041:  403640000005  setzb    ntpcw, e        ;"@>@  %"
006042:  202700007137  movem    16, 7137        ;"07  Y?"
006043:  246640000003  lshc     ntpcw, c        ;"4V@  #"
006044:  254035006045  jrst     @6045(ntpcw)    ;"5@= PE"
006045:  000000006150                           ;"    QH"
006046:  000000006140                           ;"    Q@"
006047:  000000006134                           ;"    Q<"
006050:  000000006055                           ;"    PM"
006051:  000000006076                           ;"    P^"
006052:  000000006110                           ;"    Q("
006053:  000000006117                           ;"    Q/"
006054:  000000006202                           ;"    R""
006055:  201640000000  movei    ntpcw, ufdc     ;"0.@   " " :\0\0\0"
006056:  246640000003  lshc     ntpcw, c        ;"4V@  #"
006057:  271640006242  addi     ntpcw, 6242     ;"7.@ RB"
006060:  200315000000  move     p, (ntpcw)      ;"0#-   " " \fh\0\0"
006061:  135640012244  ldb      ntpcw, 12244    ;"+N@!2D"
006062:  221640000006  imuli    ntpcw, p        ;"2.@  &"
006063:  246255000000  lshc     e, (ntpcw)      ;"4RM   " ")Jh\0\0"
006064:  213000000015  movns    ufdc, ntpcw     ;"18   -"
006065:  242315777775  lsh      p, 777775(ntpcw);"43-__]"
006066:  137300012130  dpb      p, 12130        ;"+[ !18"
006067:  350000006071  aos      6071            ;"=   PY"
006070:  201640000000  movei    ntpcw, ufdc     ;"0.@   " " :\0\0\0"
006071:  246640000001  lshc     ntpcw, a        ;"4V@  !"
006072:  405300000774  andi     p, 774          ;"@K  '\"
006073:  322300006146  jumpe    p, 6146         ;":3  QF"
006074:  271646006242  addi     ntpcw, 6242(p)  ;"7.F RB" ".:0\fQ"
006075:  254000006060  jrst     6060            ;"5@  PP"
006076:  201640000000  movei    ntpcw, ufdc     ;"0.@   " " :\0\0\0"
006077:  246640000004  lshc     ntpcw, d        ;"4V@  $"
006100:  200315006262  move     p, 6262(ntpcw)  ;"0#- RR" " \fh\fY"
006101:  135640012244  ldb      ntpcw, 12244    ;"+N@!2D"
006102:  221640000006  imuli    ntpcw, p        ;"2.@  &"
006103:  246255000000  lshc     e, (ntpcw)      ;"4RM   " ")Jh\0\0"
006104:  201640000000  movei    ntpcw, ufdc     ;"0.@   " " :\0\0\0"
006105:  246640000002  lshc     ntpcw, b        ;"4V@  ""
006106:  271640006302  addi     ntpcw, 6302     ;"7.@ S""
006107:  254000006060  jrst     6060            ;"5@  PP"
006110:  643700240000  tlce     16, 240000      ;"T? 4  "
006111:  643700240000  tlce     16, 240000      ;"T? 4  "
006112:  641700240000  tlc      16, 240000      ;"T/ 4  "
006113:  201640000000  movei    ntpcw, ufdc     ;"0.@   " " :\0\0\0"
006114:  246640000002  lshc     ntpcw, b        ;"4V@  ""
006115:  271640006312  addi     ntpcw, 6312     ;"7.@ S*"
006116:  254000006060  jrst     6060            ;"5@  PP"
006117:  643700500000  tlce     16, 500000      ;"T? H  "
006120:  643700500000  tlce     16, 500000      ;"T? H  "
006121:  643700500000  tlce     16, 500000      ;"T? H  "
006122:  643700210000  tlce     16, 210000      ;"T? 1  "
006123:  643700210000  tlce     16, 210000      ;"T? 1  "
006124:  643700210000  tlce     16, 210000      ;"T? 1  "
006125:  643700050000  tlce     16, 50000       ;"T? %  "
006126:  643700050000  tlce     16, 50000       ;"T? %  "
006127:  643700050000  tlce     16, 50000       ;"T? %  "
006130:  201640000000  movei    ntpcw, ufdc     ;"0.@   " " :\0\0\0"
006131:  246640000002  lshc     ntpcw, b        ;"4V@  ""
006132:  271640006322  addi     ntpcw, 6322     ;"7.@ S2"
006133:  254000006060  jrst     6060            ;"5@  PP"
006134:  201640000000  movei    ntpcw, ufdc     ;"0.@   " " :\0\0\0"
006135:  246640000004  lshc     ntpcw, d        ;"4V@  $"
006136:  271640006336  addi     ntpcw, 6336     ;"7.@ S>"
006137:  254000006060  jrst     6060            ;"5@  PP"
006140:  201640000000  movei    ntpcw, ufdc     ;"0.@   " " :\0\0\0"
006141:  246640000004  lshc     ntpcw, d        ;"4V@  $"
006142:  305640000006  caige    ntpcw, p        ;"8N@  &"
006143:  254000006146  jrst     6146            ;"5@  QF"
006144:  271640006412  addi     ntpcw, 6412     ;"7.@ T*"
006145:  254000006060  jrst     6060            ;"5@  PP"
006146:  200700007137  move     16, 7137        ;"0'  Y?"
006147:  263740000000  popj     q,              ;"6?@   "
006150:  246640000006  lshc     ntpcw, p        ;"4V@  &"
006151:  305640000040  caige    ntpcw, %order   ;"8N@  @"
006152:  263740000000  popj     q,              ;"6?@   "
006153:  306640000047  cain     ntpcw, 47       ;"8V@  G"
006154:  254000006167  jrst     6167            ;"5@  QW"
006155:  200700007137  move     16, 7137        ;"0'  Y?"
006156:  510240000016  hllz     e, 16           ;"I"@  ."
006157:  621240000037  tlz      e, jobd17       ;"R*@  ?"
006160:  047240400074  callit   lolin,          ;"$Z@@ \"
006161:  326240006177  jumpn    e, 6177         ;":R@ Q_"
006162:  510240000016  hllz     e, 16           ;"I"@  ."
006163:  621240000777  tlz      e, 777          ;"R*@ '_"
006164:  661240000001  tlo      e, fncn         ;"V*@  !"
006165:  047240400074  callit   lolin,          ;"$Z@@ \"
006166:  263740000000  popj     q,              ;"6?@   "
006167:  200700007137  move     16, 7137        ;"0'  Y?"
006170:  603700000037  tlne     16, jobd17      ;"P?   ?"
006171:  254000006162  jrst     6162            ;"5@  QR"
006172:  200240000016  move     e, 16           ;"0"@  ."
006173:  621240000777  tlz      e, 777          ;"R*@ '_"
006174:  047240400074  callit   lolin,          ;"$Z@@ \"
006175:  322240006162  jumpe    e, 6162         ;":2@ QR"
006176:  624500777777  trza     l, 777777       ;"RE ___"
006177:  621500000740  tlz      l, 740          ;"R-  '@"
006200:  263740000000  popj     q,              ;"6?@   "
$io:
006201:  000000000000                           ;"      "
006202:  200700007137  move     16, 7137        ;"0'  Y?"
006203:  336000006201  skipn    $io             ;";P  R!"
006204:  254000006155  jrst     6155            ;"5@  QM"
006205:  135640012232  ldb      ntpcw, 12232    ;"+N@!2:"
006206:  200255006232  move     e, 6232(ntpcw)  ;"0"M R:" " \nh\fM"
006207:  135640012452  ldb      ntpcw, 12452    ;"+N@!4J"
006210:  201300000045  movei    p, jobblt       ;"0+   E"
006211:  135700012405  ldb      16, 12405       ;"+O !4%"
006212:  302715000000  caie     16, (ntpcw)     ;"87-   " "0\\h\0\0"
006213:  367300006211  sojg     p, 6211         ;">[  R)"
006214:  322300006226  jumpe    p, 6226         ;":3  R6"
006215:  505646000000  hrli     ntpcw, (p)      ;"HNF   " "Q:0\0\0"
006216:  135700012231  ldb      16, 12231       ;"+O !29"
006217:  312700006201  came     16, $io         ;"97  R!"
006220:  326700006213  jumpn    16, 6213        ;":W  R+"
006221:  332700000006  skipe    16, p           ;";7   &"
006222:  200706002246  move     16, 2246(p)     ;"0'& 2F"
006223:  621700777700  tlz      16, 777700      ;"R/ __ "
006224:  660400040000  tro      ii, %fast       ;"V$ $  "
006225:  263740000000  popj     q,              ;"6?@   "
006226:  331000006201  skipl    $io             ;";(  R!"
006227:  254000006155  jrst     6155            ;"5@  QM"
006230:  554300000015  hlrz     p, ntpcw        ;"MC   -"
006231:  254000006221  jrst     6221            ;"5@  R1"
006232:  000042545351  joberr,,                 ;"  BLKI"
006233:  004441644151                           ;" DATAI"
006234:  000042545357  joberr,,                 ;"  BLKO"
006235:  004441644157                           ;" DATAO"
006236:  000043575657  jobenb,,                 ;"  CONO"
006237:  000043575651  jobenb,,                 ;"  CONI"
006240:  004357566372                           ;" CONSZ"
006241:  004357566357                           ;" CONSO"
006242:  434151000123  ior      c, jobexm(f)    ;"CAI !3"
006243:  434155000123  ior      c, jobexm(ntpcw);"CAM !3"
006244:  526555600124  hrlom    k, 600124(ntpcw);"JUMP!4"
006245:  635351600124  tsza     i, 600124(f)    ;"SKIP!4"
006246:  415752000123                           ;"AOJ !3"
006247:  415763000123                           ;"AOS !3"
006250:  635752000123  tsza     q, jobexm(l)    ;"SOJ !3"
006251:  635763000123  tsza     q, @jobexm(c)   ;"SOS !3"
006252:  410000000000  andca    ufdc, ufdc      ;"A     " "B\0\0\0\0"
006253:  540000000001  hrr      ufdc, a         ;"L    !"
006254:  450000000001  setca    ufdc, a         ;"E    !"
006255:  544500000002  hlr      l, b            ;"LE   ""
006256:  410000000001  andca    ufdc, a         ;"A    !"
006257:  474500000002  seto     l, b            ;"GE   ""
006260:  560000000001  hrro     ufdc, a         ;"N    !"
006261:  470000000001  orcb     ufdc, a         ;"G    !"
006262:  634564720004  tdza     k, @720004(d)   ;"SETZ $"
006263:  415644000003                           ;"AND  #"
006264:  415644434105                           ;"ANDCA%"
006265:  634564550004  tdza     k, @550004(d)   ;"SETM $"
006266:  415644435505                           ;"ANDCM%"
006267:  634564410004  tdza     k, @410004(d)   ;"SETA $"
006270:  705762000003  uoutbf   q, @colm(b)     ;"XOR  #"
006271:  576200000002  hlrem    d, b            ;"OR   ""
006272:  415644434205                           ;"ANDCB%"
006273:  456166000003  orcam    c, @colm(p)     ;"EQV  #"
006274:  634564434105  tdza     k, @434105(d)   ;"SETCA%"
006275:  576243410004  hlrem    e, 410004(c)    ;"ORCA $"
006276:  634564435505  tdza     k, @435505(d)   ;"SETCM%"
006277:  576243550004  hlrem    e, 550004(c)    ;"ORCM $"
006300:  576243420004  hlrem    e, 420004(c)    ;"ORCB $"
006301:  634564570004  tdza     k, @570004(d)   ;"SETO $"
006302:  410000000000  andca    ufdc, ufdc      ;"A     " "B\0\0\0\0"
006303:  510000000001  hllz     ufdc, a         ;"I    !"
006304:  550000000001  hrrz     ufdc, a         ;"M    !"
006305:  420000000001  andcm    ufdc, a         ;"B    !"
006306:  410000000000  andca    ufdc, ufdc      ;"A     " "B\0\0\0\0"
006307:  510000000001  hllz     ufdc, a         ;"I    !"
006310:  550000000001  hrrz     ufdc, a         ;"M    !"
006311:  630000000001  tdz      ufdc, a         ;"S    !"
006312:  505454000553  hrli     f, 553(j)       ;"HLL %K"
006313:  506254000553  hrlm     e, 553(j)       ;"HRL %K"
006314:  506262000553  hrlm     e, @553(b)      ;"HRR %K"
006315:  505462000553  hrli     f, @553(b)      ;"HLR %K"
006316:  410000000450  andca    ufdc, 450       ;"A   $H"
006317:  570000000451  hrre     ufdc, 451       ;"O   $I"
006320:  720000000451  intmsk   ufdc, 451       ;"Z   $I"
006321:  450000000451  setca    ufdc, 451       ;"E   $I"
006322:  646200000652  trcn     d, 652          ;"TR  &J"
006323:  645400000652  tlca     ii, 652         ;"TL  &J"
006324:  644400000652  trca     ii, 652         ;"TD  &J"
006325:  646300000652  trcn     p, 652          ;"TS  &J"
006326:  560000000711  hrro     ufdc, 711       ;"N   ')"
006327:  720000000711  intmsk   ufdc, 711       ;"Z   ')"
006330:  430000000711  xor      ufdc, 711       ;"C   ')"
006331:  570000000711  hrre     ufdc, 711       ;"O   ')"
006332:  410000000000  andca    ufdc, ufdc      ;"A     " "B\0\0\0\0"
006333:  410000000001  andca    ufdc, a         ;"A    !"
006334:  450000000001  setca    ufdc, a         ;"E    !"
006335:  560000000001  hrro     ufdc, a         ;"N    !"
006336:  555766450454  hlrzi    q, @450454(p)   ;"MOVE$L"
006337:  555766630454  hlrzi    q, @630454(p)   ;"MOVS$L"
006340:  555766560454  hlrzi    q, @560454(p)   ;"MOVN$L"
006341:  555766550454  hlrzi    q, @550454(p)   ;"MOVM$L"
006342:  515565540414  hrlzi    k, @540414(e)   ;"IMUL$,"
006343:  556554000413  hlrzm    k, 413(j)       ;"MUL $+"
006344:  514451660414  hrlz     f, 660414(f)    ;"IDIV$,"
006345:  445166000413  eqvi     c, @413(p)      ;"DIV $+"
006346:  410000001150  andca    ufdc, 1150      ;"A   )H"
006347:  410000001210  andca    ufdc, 1210      ;"A   *("
006350:  410000001240  andca    ufdc, 1240      ;"A   *@"
006351:  410000001410  andca    ufdc, 1410      ;"A   ,("
006352:  600000001451  trn      ufdc, 1451      ;"P   ,I"
006353:  520000001511  hllo     ufdc, 1511      ;"J   -)"
006354:  414444000413  setm     f, 413(d)       ;"ADD $+"
006355:  636542000413  tdzn     k, 413(b)       ;"SUB $+"
006356:  416350000003  setmm    i, colm(ii)     ;"ASH  #"
006357:  625764000003  tlza     q, @colm(d)     ;"ROT  #"
006360:  546350000003  hlrm     i, colm(ii)     ;"LSH  #"
006361:  524646570004  hrlo     ntpcw, 570004(p);"JFFO $"
006362:  416350430004  setmm    i, 430004(ii)   ;"ASHC $"
006363:  625764430004  tlza     q, @430004(d)   ;"ROTC $"
006364:  546350430004  hlrm     i, 430004(ii)   ;"LSHC $"
006365:  465170000003  orcmi    c, @colm(ii)    ;"FIX  #"
006366:  410000001300  andca    ufdc, 1300      ;"A   + "
006367:  415742001343                           ;"AOB +C"
006370:  000000000000                           ;"      "
006371:  000000000000                           ;"      "
006372:  457043500004  orcab    a, 500004(c)    ;"EXCH $"
006373:  425464000003  setai    f, @colm(d)     ;"BLT  #"
006374:  000000000000                           ;"      "
006375:  000000000000                           ;"      "
006376:  526000000002  hrlom    ufdc, b         ;"JP   ""
006377:  525600000002  hrloi    j, chnl         ;"JN   ""
006400:  000000000000                           ;"      "
006401:  000000000000                           ;"      "
006402:  526263640004  hrlom    e, @640004(c)   ;"JRST $"
006403:  524643540004  hrlo     ntpcw, 540004(c);"JFCL $"
006404:  704364000003  uinbf    i, @colm(d)     ;"XCT  #"
006405:  200000000000  move     ufdc, ufdc      ;"0     " " \0\0\0\0"
006406:  656350520004  tdcn     i, 520004(ii)   ;"USHJ $"
006407:  656350000003  tdcn     i, colm(ii)     ;"USH  #"
006410:  576000000002  hlrem    ufdc, b         ;"OP   ""
006411:  576052000003  hlrem    a, colm(l)      ;"OPJ  #"
006412:  636200000002  tdzn     d, b            ;"SR   ""
006413:  636000000002  tdzn     ufdc, b         ;"SP   ""
006414:  634100000002  tdza     b, b            ;"SA   ""
006415:  624100000002  trza     b, chnl         ;"RA   ""
006416:  000000000000                           ;"      "
006417:  000000000000                           ;"      "
006420:  410000001710  andca    ufdc, 1710      ;"A   /("
006421:  410000001750  andca    ufdc, 1750      ;"A   /H"
006422:  464144002013  orcm     c, 2013(d)      ;"FAD 0+"
006423:  464144620414  orcm     c, 620414(d)    ;"FADR$,"
006424:  466342002013  orcmm    i, 2013(b)      ;"FSB 0+"
006425:  466342620414  orcmm    i, 620414(b)    ;"FSBR$,"
006426:  465560622013  orcmi    k, @622013      ;"FMPR0+"
006427:  465560620414  orcmi    k, @620414      ;"FMPR$,"
006430:  464466622013  orcm     f, @622013(p)   ;"FDVR0+"
006431:  464466620414  orcm     f, @620414(p)   ;"FDVR$,"
006432:  200000000000  move     ufdc, ufdc      ;"0     " " \0\0\0\0"
006433:  200000000000  move     ufdc, ufdc      ;"0     " " \0\0\0\0"
006434:  466343000003  orcmm    i, colm(c)      ;"FSC  #"
006435:  514260000003  hrlz     e, @c           ;"IBP  #"
006436:  515444420004  hrlzi    f, 420004(d)    ;"ILDB $"
006437:  544442000003  hlr      f, colm(b)      ;"LDB  #"
006440:  514460420004  hrlz     f, @420004      ;"IDPB $"
006441:  446042000003  eqvm     a, colm(b)      ;"DPB  #"
006442:  200000000000  move     ufdc, ufdc      ;"0     " " \0\0\0\0"
006443:  540000000001  hrr      ufdc, a         ;"L    !"
006444:  550000000001  hrrz     ufdc, a         ;"M    !"
006445:  420000000001  andcm    ufdc, a         ;"B    !"
006446:  552500006532  hrrzm    l, 6532         ;"M5  U:"
006447:  556500006533  hlrzm    l, 6533         ;"MU  U;"
006450:  556340006531  hlrzm    i, 6531         ;"MS@ U9"
006451:  515440000007  hrlzi    f, i            ;"IL@  '"
006452:  200320000011  move     p, @f           ;"0#0  )"
006453:  135500012244  ldb      l, 12244        ;"+M !2D"
006454:  221500000006  imuli    l, p            ;"2-   &"
006455:  246252000000  lshc     e, (l)          ;"4RJ   " ")JP\0\0"
006456:  246652000000  lshc     ntpcw, (l)      ;"4VJ   " ")ZP\0\0"
006457:  213000000012  movns    ufdc, l         ;"18   *"
006460:  316240000015  camn     e, ntpcw        ;"9R@  -"
006461:  254000006470  jrst     6470            ;"5@  TX"
006462:  246252000000  lshc     e, (l)          ;"4RJ   " ")JP\0\0"
006463:  246652000000  lshc     ntpcw, (l)      ;"4VJ   " ")ZP\0\0"
006464:  373000006531  sosle    6531            ;"?8  U9"
006465:  344440006452  aoja     f, 6452         ;"<D@ TJ"
006466:  350017000000  aos      (q)             ;"= /   "
006467:  263740000000  popj     q,              ;"6?@   "
006470:  261740000011  push     q, f            ;"6/@  )"
006471:  261740000007  push     q, i            ;"6/@  '"
006472:  261740000012  push     q, l            ;"6/@  *"
006473:  242312777775  lsh      p, 777775(l)    ;"43*__]"
006474:  200500006533  move     l, 6533         ;"0%  U;"
006475:  242520006532  lsh      l, @6532        ;"450 U:"
006476:  435511000000  iori     l, (f)          ;"CM)   " "G4H\0\0"
006477:  261740006533  push     q, 6533         ;"6/@ U;"
006500:  261740006532  push     q, 6532         ;"6/@ U:"
006501:  261740006531  push     q, 6531         ;"6/@ U9"
006502:  202500006533  movem    l, 6533         ;"05  U;"
006503:  135500012230  ldb      l, 12230        ;"+M !28"
006504:  271500000001  addi     l, fncn         ;"7-   !"
006505:  405300000774  andi     p, 774          ;"@K  '\"
006506:  336340000006  skipn    i, p            ;";S@  &"
006507:  254000006526  jrst     6526            ;"5@  U6"
006510:  271340006242  addi     i, 6242         ;"7+@ RB"
006511:  202500006532  movem    l, 6532         ;"05  U:"
006512:  201300000001  movei    p, fncn         ;"0+   !"
006513:  242312000000  lsh      p, (l)          ;"43*   " "(LP\0\0"
006514:  202300006531  movem    p, 6531         ;"03  U9"
006515:  260740006451  pushj    q, 6451         ;"6'@ TI"
006516:  254000006526  jrst     6526            ;"5@  U6"
006517:  262740006531  pop      q, 6531         ;"67@ U9"
006520:  262740006532  pop      q, 6532         ;"67@ U:"
006521:  262740006533  pop      q, 6533         ;"67@ U;"
006522:  262740000012  pop      q, l            ;"67@  *"
006523:  262740000007  pop      q, i            ;"67@  '"
006524:  262740000011  pop      q, f            ;"67@  )"
006525:  254000006462  jrst     6462            ;"5@  TR"
006526:  326700006517  jumpn    16, 6517        ;":W  U/"
006527:  274740012476  sub      q, 12476        ;"7G@!4^"
006530:  263740000000  popj     q,              ;"6?@   "
006531:  000000000000                           ;"      "
006532:  000000000004  d                        ;"     $"
006533:  000000000001  a                        ;"     !"
006534:  261740000006  push     q, p            ;"6/@  &"
006535:  261740000015  push     q, ntpcw        ;"6/@  -"
006536:  201240000000  movei    e, ufdc         ;"0*@   " " *\0\0\0"
006537:  200700012052  move     16, 12052       ;"0' !0J"
006540:  201640000000  movei    ntpcw, ufdc     ;"0.@   " " :\0\0\0"
006541:  246640000006  lshc     ntpcw, p        ;"4V@  &"
006542:  306640000050  cain     ntpcw, 50       ;"8V@  H"
006543:  254000006554  jrst     6554            ;"5@  UL"
006544:  306640000064  cain     ntpcw, 64       ;"8V@  T"
006545:  254000006557  jrst     6557            ;"5@  UO"
006546:  246640777772  lshc     ntpcw, 777772   ;"4V@__Z"
006547:  260740006562  pushj    q, 6562         ;"6'@ UR"
006550:  260740006716  pushj    q, 6716         ;"6'@ W."
006551:  262740000015  pop      q, ntpcw        ;"67@  -"
006552:  262740000006  pop      q, p            ;"67@  &"
006553:  263740000000  popj     q,              ;"6?@   "
006554:  246640777772  lshc     ntpcw, 777772   ;"4V@__Z"
006555:  260740006703  pushj    q, 6703         ;"6'@ W#"
006556:  254000006550  jrst     6550            ;"5@  UH"
006557:  246640777772  lshc     ntpcw, 777772   ;"4V@__Z"
006560:  260740006662  pushj    q, 6662         ;"6'@ VR"
006561:  254000006550  jrst     6550            ;"5@  UH"
006562:  201500006262  movei    l, 6262         ;"0-  RR"
006563:  201440000020  movei    f, qpds         ;"0,@  0"
006564:  200312000000  move     p, (l)          ;"0#*   " " \fP\0\0"
006565:  135340012244  ldb      i, 12244        ;"+K@!2D"
006566:  221340000006  imuli    i, p            ;"2+@  &"
006567:  246247000000  lshc     e, (i)          ;"4RG   " ")J8\0\0"
006570:  246647000000  lshc     ntpcw, (i)      ;"4VG   " ")Z8\0\0"
006571:  213000000007  movns    ufdc, i         ;"18   '"
006572:  316640000005  camn     ntpcw, e        ;"9V@  %"
006573:  254000006643  jrst     6643            ;"5@  VC"
006574:  246647000000  lshc     ntpcw, (i)      ;"4VG   " ")Z8\0\0"
006575:  246247000000  lshc     e, (i)          ;"4RG   " ")J8\0\0"
006576:  271500000001  addi     l, fncn         ;"7-   !"
006577:  367440006564  sojg     f, 6564         ;">\@ UT"
006600:  200500012115  move     l, 12115        ;"0% !1-"
006601:  200340012423  move     i, 12423        ;"0#@!43"
006602:  260740006446  pushj    q, 6446         ;"6'@ TF"
006603:  254000006640  jrst     6640            ;"5@  V@"
006604:  200500012343  move     l, 12343        ;"0% !3C"
006605:  200340012461  move     i, 12461        ;"0#@!4Q"
006606:  260740006446  pushj    q, 6446         ;"6'@ TF"
006607:  254000006640  jrst     6640            ;"5@  V@"
006610:  200500012350  move     l, 12350        ;"0% !3H"
006611:  200340012451  move     i, 12451        ;"0#@!4I"
006612:  260740006446  pushj    q, 6446         ;"6'@ TF"
006613:  254000006636  jrst     6636            ;"5@  V>"
006614:  201340000000  movei    i, ufdc         ;"0+@   " " .\0\0\0"
006615:  201500000010  movei    l, lasuuo       ;"0-   ("
006616:  264000012141  jsr      12141           ;"6@ !1A"
006617:  316647006232  camn     ntpcw, 6232(i)  ;"9VG R:" "3Z8\fM"
006620:  254000006624  jrst     6624            ;"5@  V4"
006621:  271340000001  addi     i, fncn         ;"7+@  !"
006622:  367500006617  sojg     l, 6617         ;">]  V/"
006623:  263740000000  popj     q,              ;"6?@   "
006624:  271340016000  addi     i, 16000        ;"7+@!P "
006625:  242340000027  lsh      i, jobdpg       ;"43@  7"
006626:  660400100000  tro      ii, %szsrt      ;"V$ (  "
006627:  202340012047  movem    i, 12047        ;"03@!0G"
006630:  262740000007  pop      q, i            ;"67@  '"
006631:  262740000015  pop      q, ntpcw        ;"67@  -"
006632:  262740000006  pop      q, p            ;"67@  &"
006633:  262740000007  pop      q, i            ;"67@  '"
006634:  661400310000  tlo      ii, 310000      ;"V, 9  "
006635:  263740000000  popj     q,              ;"6?@   "
006636:  201340000030  movei    i, 30           ;"0+@  8"
006637:  272340006533  addm     i, 6533         ;"73@ U;"
006640:  200340006533  move     i, 6533         ;"0#@ U;"
006641:  242340000033  lsh      i, 33           ;"43@  ;"
006642:  254000006627  jrst     6627            ;"5@  V7"
006643:  603700007700  tlne     16, 7700        ;"P?  _ "
006644:  254000006574  jrst     6574            ;"5@  U\"
006645:  275500006162  subi     l, 6162         ;"7M  QR"
006646:  207000000012  movss    ufdc, l         ;"0X   *"
006647:  541500000002  hrri     l, chnl         ;"L-   ""
006650:  261740000007  push     q, i            ;"6/@  '"
006651:  200340012475  move     i, 12475        ;"0#@!4]"
006652:  260740006446  pushj    q, 6446         ;"6'@ TF"
006653:  254000006660  jrst     6660            ;"5@  VP"
006654:  262740000007  pop      q, i            ;"67@  '"
006655:  246647000000  lshc     ntpcw, (i)      ;"4VG   " ")Z8\0\0"
006656:  201240000000  movei    e, ufdc         ;"0*@   " " *\0\0\0"
006657:  254000006600  jrst     6600            ;"5@  V "
006660:  262740000007  pop      q, i            ;"67@  '"
006661:  254000006640  jrst     6640            ;"5@  V@"
006662:  200240000015  move     e, ntpcw        ;"0"@  -"
006663:  200500012472  move     l, 12472        ;"0% !4Z"
006664:  200340012474  move     i, 12474        ;"0#@!4\"
006665:  260740006446  pushj    q, 6446         ;"6'@ TF"
006666:  254000006670  jrst     6670            ;"5@  VX"
006667:  263740000000  popj     q,              ;"6?@   "
006670:  200340006533  move     i, 6533         ;"0#@ U;"
006671:  642340000005  trce     i, lolin        ;"T3@  %"
006672:  642340000005  trce     i, lolin        ;"T3@  %"
006673:  642340000005  trce     i, lolin        ;"T3@  %"
006674:  642340000021  trce     i, 21           ;"T3@  1"
006675:  642340000021  trce     i, 21           ;"T3@  1"
006676:  642340000021  trce     i, 21           ;"T3@  1"
006677:  642340000050  trce     i, 50           ;"T3@  H"
006700:  642340000050  trce     i, 50           ;"T3@  H"
006701:  642340000050  trce     i, 50           ;"T3@  H"
006702:  254000006641  jrst     6641            ;"5@  VA"
006703:  200240000015  move     e, ntpcw        ;"0"@  -"
006704:  200500012336  move     l, 12336        ;"0% !3>"
006705:  200340012473  move     i, 12473        ;"0#@!4["
006706:  260740006446  pushj    q, 6446         ;"6'@ TF"
006707:  254000006711  jrst     6711            ;"5@  W)"
006710:  263740000000  popj     q,              ;"6?@   "
006711:  200340006533  move     i, 6533         ;"0#@ U;"
006712:  642340000024  trce     i, 24           ;"T3@  4"
006713:  642340000024  trce     i, 24           ;"T3@  4"
006714:  642340000024  trce     i, 24           ;"T3@  4"
006715:  254000006641  jrst     6641            ;"5@  VA"
006716:  603700000077  tlne     16, 77          ;"P?   _"
006717:  254000006722  jrst     6722            ;"5@  W2"
006720:  312700012364  came     16, 12364       ;"97 !3T"
006721:  263740000000  popj     q,              ;"6?@   "
006722:  200340000016  move     i, 16           ;"0#@  ."
006723:  047340400074  callit   i,              ;"$[@@ \"
006724:  326340006627  jumpn    i, 6627         ;":S@ V7"
006725:  263740000000  popj     q,              ;"6?@   "
006726:  271340000700  addi     i, 700          ;"7+@ ' "
006727:  254000006641  jrst     6641            ;"5@  VA"
006730:  271340000040  addi     i, %order       ;"7+@  @"
006731:  254000006641  jrst     6641            ;"5@  VA"
006732:  201640000007  movei    ntpcw, i        ;"0.@  '"
006733:  312715000547  came     16, 547(ntpcw)  ;"97- %G"
006734:  365640006733  sojge    ntpcw, 6733     ;">N@ W;"
006735:  321640006743  jumpl    ntpcw, 6743     ;":.@ WC"
006736:  402000007135  setzm    7135            ;"@0  Y="
006737:  201340007125  movei    i, 7125         ;"0+@ Y5"
006740:  261355000557  push     i, 557(ntpcw)   ;"6+M %O"
006741:  261355000567  push     i, 567(ntpcw)   ;"6+M %W"
006742:  254000007122  jrst     7122            ;"5@  Y2"
006743:  201340000141  movei    i, 141          ;"0+@ !A"
006744:  542340006770  hrrm     i, 6770         ;"L3@ WX"
006745:  200340012324  move     i, 12324        ;"0#@!34"
006746:  202340007134  movem    i, 7134         ;"03@ Y<"
006747:  525340377777  hrloi    i, 377777       ;"JK@?__"
006750:  202340007135  movem    i, 7135         ;"03@ Y="
006751:  402000007131  setzm    7131            ;"@0  Y9"
006752:  402000007126  setzm    7126            ;"@0  Y6"
006753:  476000007125  setom    7125            ;"GP  Y5"
006754:  476000007132  setom    7132            ;"GP  Y:"
006755:  476000007127  setom    7127            ;"GP  Y7"
006756:  606400020000  trnn     ii, %rrufd      ;"PT "  "
006757:  335640000142  skipge   ntpcw, 142      ;";N@ !B"
006760:  263740000000  popj     q,              ;"6?@   "
006761:  200355000001  move     i, fncn(ntpcw)  ;"0#M  !"
006762:  202340012051  movem    i, 12051        ;"03@!0I"
006763:  660400000001  tro      ii, fncn        ;"V$   !"
006764:  620400000002  trz      ii, chnl        ;"R$   ""
006765:  205440400000  movsi    f, 400000       ;"0L@@  "
006766:  274640012501  sub      ntpcw, 12501    ;"7F@!5!"
006767:  321640007071  jumpl    ntpcw, 7071     ;":.@ XY"
006770:  316640000142  camn     ntpcw, 142      ;"9V@ !B"
006771:  254000007077  jrst     7077            ;"5@  X_"
006772:  612455000000  tdne     f, (ntpcw)      ;"Q4M   " "bRh\0\0"
006773:  254000006766  jrst     6766            ;"5@  WV"
006774:  135340012460  ldb      i, 12460        ;"+K@!4P"
006775:  306340000003  cain     i, colm         ;"8S@  #"
006776:  254000007057  jrst     7057            ;"5@  XO"
006777:  322340007067  jumpe    i, 7067         ;":3@ XW"
007000:  200340000016  move     i, 16           ;"0#@  ."
007001:  274355000001  sub      i, fncn(ntpcw)  ;"7CM  !"
007002:  325340007025  jumpge   i, 7025         ;":K@ X5"
007003:  315340007134  camge    i, 7134         ;"9K@ Y<"
007004:  254000006766  jrst     6766            ;"5@  WV"
007005:  312340007134  came     i, 7134         ;"93@ Y<"
007006:  254000007012  jrst     7012            ;"5@  X*"
007007:  602400000001  trne     ii, fncn        ;"P4   !"
007010:  336000007132  skipn    7132            ;";P  Y:"
007011:  254000006766  jrst     6766            ;"5@  WV"
007012:  202340007134  movem    i, 7134         ;"03@ Y<"
007013:  200355000001  move     i, fncn(ntpcw)  ;"0#M  !"
007014:  202340007133  movem    i, 7133         ;"03@ Y;"
007015:  200355000000  move     i, (ntpcw)      ;"0#M   "
007016:  202340007131  movem    i, 7131         ;"03@ Y9"
007017:  402000007132  setzm    7132            ;"@0  Y:"
007020:  602400000001  trne     ii, fncn        ;"P4   !"
007021:  254000006766  jrst     6766            ;"5@  WV"
007022:  200340007136  move     i, 7136         ;"0#@ Y>"
007023:  202340007132  movem    i, 7132         ;"03@ Y:"
007024:  254000006766  jrst     6766            ;"5@  WV"
007025:  322340007050  jumpe    i, 7050         ;":3@ XH"
007026:  313340007135  camle    i, 7135         ;"9;@ Y="
007027:  254000006766  jrst     6766            ;"5@  WV"
007030:  312340007135  came     i, 7135         ;"93@ Y="
007031:  254000007035  jrst     7035            ;"5@  X="
007032:  602400000001  trne     ii, fncn        ;"P4   !"
007033:  336000007127  skipn    7127            ;";P  Y7"
007034:  254000006766  jrst     6766            ;"5@  WV"
007035:  202340007135  movem    i, 7135         ;"03@ Y="
007036:  200355000001  move     i, fncn(ntpcw)  ;"0#M  !"
007037:  202340007130  movem    i, 7130         ;"03@ Y8"
007040:  200355000000  move     i, (ntpcw)      ;"0#M   "
007041:  202340007126  movem    i, 7126         ;"03@ Y6"
007042:  402000007127  setzm    7127            ;"@0  Y7"
007043:  602400000001  trne     ii, fncn        ;"P4   !"
007044:  254000006766  jrst     6766            ;"5@  WV"
007045:  200340007136  move     i, 7136         ;"0#@ Y>"
007046:  202340007127  movem    i, 7127         ;"03@ Y7"
007047:  254000006766  jrst     6766            ;"5@  WV"
007050:  402000007134  setzm    7134            ;"@0  Y<"
007051:  200355000000  move     i, (ntpcw)      ;"0#M   "
007052:  202340007131  movem    i, 7131         ;"03@ Y9"
007053:  402000007132  setzm    7132            ;"@0  Y:"
007054:  602400000001  trne     ii, fncn        ;"P4   !"
007055:  254000007110  jrst     7110            ;"5@  Y("
007056:  254000007022  jrst     7022            ;"5@  X2"
007057:  200355000001  move     i, fncn(ntpcw)  ;"0#M  !"
007060:  660400000001  tro      ii, fncn        ;"V$   !"
007061:  315340012051  camge    i, 12051        ;"9K@!0I"
007062:  254000012355  jrst     12355           ;"5@ !3M"
007063:  620400000001  trz      ii, fncn        ;"R$   !"
007064:  200355000000  move     i, (ntpcw)      ;"0#M   "
007065:  202340007136  movem    i, 7136         ;"03@ Y>"
007066:  254000006766  jrst     6766            ;"5@  WV"
007067:  661440100000  tlo      f, %szsrt       ;"V,@(  "
007070:  254000006766  jrst     6766            ;"5@  WV"
007071:  333000007125  skiple   7125            ;";8  Y5"
007072:  254000007110  jrst     7110            ;"5@  Y("
007073:  250640000016  exch     ntpcw, 16       ;"5&@  ."
007074:  260740001367  pushj    q, 1367         ;"6'@ +W"
007075:  250640000016  exch     ntpcw, 16       ;"5&@  ."
007076:  254000006770  jrst     6770            ;"5@  WX"
007077:  662400000002  troe     ii, chnl        ;"V4   ""
007100:  254000007110  jrst     7110            ;"5@  Y("
007101:  316640000142  camn     ntpcw, 142      ;"9V@ !B"
007102:  254000007110  jrst     7110            ;"5@  Y("
007103:  201340000142  movei    i, 142          ;"0+@ !B"
007104:  542340006770  hrrm     i, 6770         ;"L3@ WX"
007105:  402000012051  setzm    12051           ;"@0 !0I"
007106:  402000007125  setzm    7125            ;"@0  Y5"
007107:  254000006765  jrst     6765            ;"5@  WU"
007110:  336000007126  skipn    7126            ;";P  Y6"
007111:  332000007135  skipe    7135            ;";0  Y="
007112:  254000007122  jrst     7122            ;"5@  Y2"
007113:  375640000526  sosge    ntpcw, 526      ;"?N@ %6"
007114:  201640000007  movei    ntpcw, i        ;"0.@  '"
007115:  202640000526  movem    ntpcw, 526      ;"06@ %6"
007116:  561340007130  hrroi    i, 7130         ;"N+@ Y8"
007117:  262355000547  pop      i, 547(ntpcw)   ;"63M %G"
007120:  262355000567  pop      i, 567(ntpcw)   ;"63M %W"
007121:  262355000557  pop      i, 557(ntpcw)   ;"63M %O"
007122:  620400000002  trz      ii, chnl        ;"R$   ""
007123:  620400000001  trz      ii, fncn        ;"R$   !"
007124:  263740000000  popj     q,              ;"6?@   "
007125:  000000000000                           ;"      "
007126:  100243173747                           ;"("C/?G"
007127:  000000000000                           ;"      "
007130:  000000042131  frome                    ;"   $19"
007131:  100430567315                           ;"($8N[-"
007132:  000000000000                           ;"      "
007133:  000000043731  rsyc4                    ;"   $?9"
007134:  777777776243  conso    774, @776243(q) ;"____RC"
007135:  000000000043  jobenb                   ;"     C"
007136:  000000000000                           ;"      "
007137:  312100042174  came     b, 42174        ;"91 $1\"
007140:  000000012053  $rptcn                   ;"   !0K"
007141:  000000000140  $bgddt                   ;"    !@"
007142:  000000012502  bp7                      ;"   !5""
007143:  000000005413  $c                       ;"    L+"
007144:  000000011010  $i                       ;"   !(("
007145:  000000010650  $1b                      ;"   !&H"
007146:  000000006201  $io                      ;"    R!"
007147:  000000010523  $m                       ;"   !%3"
007150:  000000011433  $rbp                     ;"   !,;"
007151:  000000011416  $sbp                     ;"   !,."
ddt:
007152:  402000012066  setzm    12066           ;"@0 !0V"
007153:  332000000220  skipe    220             ;";0  "0"
007154:  476000012066  setom    12066           ;"GP !0V"
007155:  264000002061  jsr      2061            ;"6@  0Q"
007156:  264000002135  jsr      2135            ;"6@  1="
007157:  404400012327  and      ii, 12327       ;"@D !37"
007160:  332000012066  skipe    12066           ;";0 !0V"
007161:  254000007167  jrst     7167            ;"5@  YW"
007162:  200700000130  move     16, jobopc      ;"0'  !8"
007163:  201456000000  movei    f, (16)         ;"0,N   " " 2p\0\0"
007164:  307440012502  caig     f, bp7          ;"8\@!5""
007165:  305440000140  caige    f, $bgddt       ;"8L@ !@"
007166:  202700011010  movem    16, $i          ;"07 !(("
007167:  660400000400  tro      ii, %tcore      ;"V$  $ "
007170:  254000011014  jrst     11014           ;"5@ !(,"
007171:  660400002000  tro      ii, %kmode      ;"V$  0 "
007172:  200740012103  move     q, 12103        ;"0'@!1#"
007173:  621400010200  tlz      ii, 10200       ;"R, !" "
007174:  620400200400  trz      ii, 200400      ;"R$ 0$ "
007175:  402000011706  setzm    11706           ;"@0 !/&"
007176:  402000011707  setzm    11707           ;"@0 !/'"
007177:  402000000441  setzm    441             ;"@0  $A"
007200:  402000000502  setzm    502             ;"@0  %""
007201:  051640012102  setact   12102           ;"%.@!1""
007202:  260740004452  pushj    q, 4452         ;"6'@ DJ"
007203:  051340002127  setlin   2127            ;"%+@ 17"
007204:  260740001573  pushj    q, 1573         ;"6'@ -["
007205:  260740004704  pushj    q, 4704         ;"6'@ G$"
007206:  603400002000  tlne     ii, %kmode      ;"P<  0 "
007207:  254000007230  jrst     7230            ;"5@  Z8"
007210:  201540000000  movei    k, ufdc         ;"0-@   " " 6\0\0\0"
007211:  201700000001  movei    16, fncn        ;"0/   !"
007212:  242702000000  lsh      16, (b)         ;"47"   "
007213:  200500007251  move     l, 7251         ;"0%  ZI"
007214:  135440012465  ldb      f, 12465        ;"+L@!4U"
007215:  316140000011  camn     c, f            ;"9Q@  )"
007216:  254000007221  jrst     7221            ;"5@  Z1"
007217:  365500007214  sojge    l, 7214         ;">M  Z,"
007220:  254000007242  jrst     7242            ;"5@  ZB"
007221:  554452007252  hlrz     f, 7252(l)      ;"MDJ ZJ"
007222:  404440000016  and      f, 16           ;"@D@  ."
007223:  322440007217  jumpe    f, 7217         ;":4@ Z/"
007224:  200452007252  move     f, 7252(l)      ;"0$J ZJ"
007225:  260751000000  pushj    q, (f)          ;"6'I   "
007226:  660400004000  tro      ii, %xtsrt      ;"V$  @ "
007227:  254000007177  jrst     7177            ;"5@  Y_"
007230:  202700012044  movem    16, 12044       ;"07 !0D"
007231:  200540000010  move     k, ii           ;"0%@  ("
007232:  260740001573  pushj    q, 1573         ;"6'@ -["
007233:  603400002000  tlne     ii, %kmode      ;"P<  0 "
007234:  254000007242  jrst     7242            ;"5@  ZB"
007235:  254000007211  jrst     7211            ;"5@  Z)"
007236:  402000012045  setzm    12045           ;"@0 !0E"
007237:  051440000000  clrbfi   ufdc            ;"%,@   " "\n2\0\0\0"
007240:  402000010522  setzm    10522           ;"@0 !%2"
007241:  665400000004  tloa     ii, hilin       ;"VL   $"
007242:  661400000010  tlo      ii, lasuuo      ;"V,   ("
007243:  254000007172  jrst     7172            ;"5@  YZ"
007244:  047000400102  unpure                   ;"$X @!""
007245:  334500012323  skipa    l, 12323        ;";E !33"
007246:  263740000000  popj     q,              ;"6?@   "
007247:  202500004375  movem    l, 4375         ;"05  C]"
007250:  254000007172  jrst     7172            ;"5@  YZ"
007251:  000000000106  jobcn6                   ;"    !&"
007252:  002322010016                           ;" 32! ."
007253:  002324010043                           ;" 34! C"
007254:  002630011710                           ;" 68!/("
007255:  162436007421  fmpm     ii, @7421(16)   ;".4> \1"
007256:  002316007510                           ;" 3. ]("
007257:  002456007506                           ;" 4N ]&"
007260:  002256007476                           ;" 2N \^"
007261:  002556007467                           ;" 5N \W"
007262:  002536007457                           ;" 5> \O"
007263:  002470011743                           ;" 4X!/C"
007264:  002222010340                           ;" 22!#@"
007265:  002224010334                           ;" 24!#<"
007266:  002610011602                           ;" 6(!.""
007267:  000741010370                           ;" 'A!#X"
007270:  000461010403                           ;" $Q!$#"
007271:  000462010405                           ;" $R!$%"
007272:  000441010414                           ;" $A!$,"
007273:  000442010416                           ;" $B!$."
007274:  000761010432                           ;" 'Q!$:"
007275:  000101010432                           ;" !!!$:"
007276:  002262010616                           ;" 2R!&."
007277:  002264010627                           ;" 2T!&7"
007300:  002644007667                           ;" 6D ^W"
007301:  002650007675                           ;" 6H ^]"
007302:  002642007642                           ;" 6B ^B"
007303:  002464011542                           ;" 4T!-B"
007304:  002562010437                           ;" 5R!$?"
007305:  002122010426                           ;" 12!$6"
007306:  002342010430                           ;" 3B!$8"
007307:  002761010565                           ;" 7Q!%U"
007310:  001641010574                           ;" .A!%\"
007311:  002116007453                           ;" 1. \K"
007312:  002036007442                           ;" 0> \B"
007313:  002042011111                           ;" 0B!))"
007314:  002044011140                           ;" 0D!)@"
007315:  002404011202                           ;" 4$!*""
007316:  002402011211                           ;" 4"!*)"
007317:  001642007512                           ;" .B ]*"
007320:  001142007567                           ;" )B ]W"
007321:  001722010370                           ;" /2!#X"
007322:  002002010274                           ;" 0"!"\"
007323:  002004010275                           ;" 0$!"]"
007324:  002010010321                           ;" 0(!#1"
007325:  002664010267                           ;" 6T!"W"
007326:  002662010266                           ;" 6R!"V"
007327:  002670010315                           ;" 6X!#-"
007330:  002722010271                           ;" 72!"Y"
007331:  002724010272                           ;" 74!"Z"
007332:  002730010317                           ;" 78!#/"
007333:  002124010054                           ;" 14! L"
007334:  000221010267                           ;" "1!"W"
007335:  001664010331                           ;" .T!#9"
007336:  001662010006                           ;" .R! &"
007337:  042216007421                           ;"$2. \1"
007340:  002516007433                           ;" 5. \;"
007341:  012076007421                           ;"!0^ \1"
007342:  022376007421                           ;""3^ \1"
007343:  102156007421                           ;"(1N \1"
007344:  002176011102                           ;" 1^!)""
007345:  002604011561                           ;" 6$!-Q"
007346:  002762010365                           ;" 7R!#U"
007347:  000337007677                           ;" #? ^_"
007350:  002602011565                           ;" 6"!-U"
007351:  002462011536                           ;" 4R!->"
007352:  001705010202                           ;" /%!"""
007353:  001745010221                           ;" /E!"1"
007354:  001712010237                           ;" /*!"?"
007355:  001752010251                           ;" /J!"I"
007356:  002717010012                           ;" 7/! *"
007357:  000257010013                           ;" "O! +"
007360:  001661007706                           ;" .Q _&"
007361:  000000000000                           ;"      "
007362:  000000000000                           ;"      "
007363:  000000000000                           ;"      "
007364:  000000000000                           ;"      "
007365:  000000000000                           ;"      "
007366:  000000000000                           ;"      "
007367:  000000000000                           ;"      "
007370:  000000000000                           ;"      "
007371:  000000000000                           ;"      "
007372:  000000000000                           ;"      "
007373:  000000000000                           ;"      "
007374:  000000000000                           ;"      "
007375:  000000000000                           ;"      "
007376:  000000000000                           ;"      "
007377:  000000000000                           ;"      "
007400:  000000000000                           ;"      "
007401:  000000000000                           ;"      "
007402:  000000000000                           ;"      "
007403:  000000000000                           ;"      "
007404:  000000000000                           ;"      "
007405:  000000000000                           ;"      "
007406:  000000000000                           ;"      "
007407:  000000000000                           ;"      "
007410:  000000000000                           ;"      "
007411:  000000000000                           ;"      "
007412:  000000000000                           ;"      "
007413:  000000000000                           ;"      "
007414:  000000000000                           ;"      "
007415:  000000000000                           ;"      "
007416:  000000000000                           ;"      "
007417:  000000000000                           ;"      "
007420:  000000000000                           ;"      "
007421:  135700012335  ldb      16, 12335       ;"+O !3="
007422:  242700000005  lsh      16, e           ;"47   %"
007423:  507000000016  hrls     ufdc, 16        ;"HX   ."
007424:  402000000441  setzm    441             ;"@0  $A"
007425:  135440012360  ldb      f, 12360        ;"+L@!3P"
007426:  256002007427  xct      7427(b)         ;"5P" \7"
007427:  263740000000  popj     q,              ;"6?@   "
007430:  137440012261  dpb      f, 12261        ;"+\@!2Q"
007431:  542700000173  hrrm     16, 173         ;"L7  !["
007432:  202700000173  movem    16, 173         ;"07  !["
007433:  603540002000  tlne     k, %kmode       ;"P=@ 0 "
007434:  334700012044  skipa    16, 12044       ;";G !0D"
007435:  201700000007  movei    16, i           ;"0/   '"
007436:  307700000007  caig     16, i           ;"8_   '"
007437:  307700000004  caig     16, hilin       ;"8_   $"
007440:  254000007242  jrst     7242            ;"5@  ZB"
007441:  254000007422  jrst     7422            ;"5@  \2"
007442:  200440000173  move     f, 173          ;"0$@ !["
007443:  505440002000  hrli     f, %kmode       ;"HL@ 0 "
007444:  660440002000  tro      f, %kmode       ;"V$@ 0 "
007445:  201700000001  movei    16, fncn        ;"0/   !"
007446:  256002007447  xct      7447(b)         ;"5P" \G"
007447:  263740000000  popj     q,              ;"6?@   "
007450:  137700012362  dpb      16, 12362       ;"+_ !3R"
007451:  542440000173  hrrm     f, 173          ;"L4@ !["
007452:  436440000173  iorm     f, 173          ;"CT@ !["
007453:  201700000500  movei    16, 500         ;"0/  % "
007454:  603540002000  tlne     k, %kmode       ;"P=@ 0 "
007455:  201700000140  movei    16, $bgddt      ;"0/  !@"
007456:  254000007423  jrst     7423            ;"5@  \3"
007457:  603540002000  tlne     k, %kmode       ;"P=@ 0 "
007460:  334700012044  skipa    16, 12044       ;";G !0D"
007461:  201700000007  movei    16, i           ;"0/   '"
007462:  307700000007  caig     16, i           ;"8_   '"
007463:  307700000004  caig     16, hilin       ;"8_   $"
007464:  254000007242  jrst     7242            ;"5@  ZB"
007465:  271700000006  addi     16, p           ;"7/   &"
007466:  254000007422  jrst     7422            ;"5@  \2"
007467:  607540002000  tlnn     k, %kmode       ;"P]@ 0 "
007470:  254000007242  jrst     7242            ;"5@  ZB"
007471:  200700012044  move     16, 12044       ;"0' !0D"
007472:  405700000077  andi     16, 77          ;"@O   _"
007473:  242700000013  lsh      16, k           ;"47   +"
007474:  271700000440  addi     16, 440         ;"7/  $@"
007475:  254000007423  jrst     7423            ;"5@  \3"
007476:  201440000740  movei    f, 740          ;"0,@ '@"
007477:  607540002000  tlnn     k, %kmode       ;"P]@ 0 "
007500:  634700000016  tdza     16, 16          ;"SG   ."
007501:  200700012044  move     16, 12044       ;"0' !0D"
007502:  405700000077  andi     16, 77          ;"@O   _"
007503:  242700000013  lsh      16, k           ;"47   +"
007504:  270700000011  add      16, f           ;"7'   )"
007505:  254000007423  jrst     7423            ;"5@  \3"
007506:  201440001040  movei    f, 1040         ;"0,@ (@"
007507:  254000007477  jrst     7477            ;"5@  \_"
007510:  201440001000  movei    f, nfiles       ;"0,@ ( "
007511:  254000007477  jrst     7477            ;"5@  \_"
007512:  260740001363  pushj    q, 1363         ;"6'@ +S"
007513:  607540000400  tlnn     k, %tcore       ;"P]@ $ "
007514:  254000007242  jrst     7242            ;"5@  ZB"
007515:  201500000000  movei    l, ufdc         ;"0-    " " 4\0\0\0"
007516:  402000007125  setzm    7125            ;"@0  Y5"
007517:  260740001367  pushj    q, 1367         ;"6'@ +W"
007520:  260740007533  pushj    q, 7533         ;"6'@ ];"
007521:  254000007237  jrst     7237            ;"5@  Z?"
007522:  202700000142  movem    16, 142         ;"07  !B"
007523:  202700000141  movem    16, 141         ;"07  !A"
007524:  200516000000  move     l, (16)         ;"0%.   "
007525:  202500012065  movem    l, 12065        ;"05 !0U"
007526:  201500000003  movei    l, colm         ;"0-   #"
007527:  260740007551  pushj    q, 7551         ;"6'@ ]I"
007530:  254000007571  jrst     7571            ;"5@  ]Y"
007531:  202700000142  movem    16, 142         ;"07  !B"
007532:  254000007571  jrst     7571            ;"5@  ]Y"
007533:  200356000000  move     i, (16)         ;"0#N   "
007534:  201500000000  movei    l, ufdc         ;"0-    " " 4\0\0\0"
007535:  316340012045  camn     i, 12045        ;"9S@!0E"
007536:  254000007557  jrst     7557            ;"5@  ]O"
007537:  574356000001  hlre     i, fncn(16)     ;"OCN  !"
007540:  322340007551  jumpe    i, 7551         ;":3@ ]I"
007541:  213000000007  movns    ufdc, i         ;"18   '"
007542:  507000000007  hrls     ufdc, i         ;"HX   '"
007543:  274700000007  sub      16, i           ;"7G   '"
007544:  254000007533  jrst     7533            ;"5@  ];"
007545:  135340012326  ldb      i, 12326        ;"+K@!36"
007546:  316340000012  camn     i, l            ;"9S@  *"
007547:  254000007554  jrst     7554            ;"5@  ]L"
007550:  322340001424  jumpe    i, 1424         ;":3@ ,4"
007551:  274700012501  sub      16, 12501       ;"7G !5!"
007552:  325700007545  jumpge   16, 7545        ;":O  ]E"
007553:  263740000000  popj     q,              ;"6?@   "
007554:  135340012322  ldb      i, 12322        ;"+K@!32"
007555:  312340012045  came     i, 12045        ;"93@!0E"
007556:  254000007551  jrst     7551            ;"5@  ]I"
007557:  350017000000  aos      (q)             ;"= /   "
007560:  263740000000  popj     q,              ;"6?@   "
007561:  310000007633  cam      ufdc, 7633      ;"9   ^;"
007562:  307340000017  caig     i, q            ;"8[@  /"
007563:  271340000421  addi     i, 421          ;"7+@ $1"
007564:  313340000044  camle    i, jobpdl       ;"9;@  D"
007565:  254000012123  jrst     12123           ;"5@ !13"
007566:  254020007561  jrst     @7561           ;"5@0 ]Q"
007567:  260740001363  pushj    q, 1363         ;"6'@ +S"
007570:  260740007606  pushj    q, 7606         ;"6'@ ^&"
007571:  201500000010  movei    l, lasuuo       ;"0-   ("
007572:  200340000142  move     i, 142          ;"0#@ !B"
007573:  312352000515  came     i, 515(l)       ;"93J %-"
007574:  365500007573  sojge    l, 7573         ;">M  ]["
007575:  325500007604  jumpge   l, 7604         ;":M  ^$"
007576:  375500000503  sosge    l, 503          ;"?M  %#"
007577:  201500000007  movei    l, i            ;"0-   '"
007600:  202500000503  movem    l, 503          ;"05  %#"
007601:  561340000142  hrroi    i, 142          ;"N+@ !B"
007602:  262352000515  pop      i, 515(l)       ;"63J %-"
007603:  262352000505  pop      i, 505(l)       ;"63J %%"
007604:  202500000504  movem    l, 504          ;"05  %$"
007605:  263740000000  popj     q,              ;"6?@   "
007606:  607540000400  tlnn     k, %tcore       ;"P]@ $ "
007607:  254000007242  jrst     7242            ;"5@  ZB"
007610:  201500000003  movei    l, colm         ;"0-   #"
007611:  200700000141  move     16, 141         ;"0'  !A"
007612:  260740007551  pushj    q, 7551         ;"6'@ ]I"
007613:  254000007237  jrst     7237            ;"5@  Z?"
007614:  202700000142  movem    16, 142         ;"07  !B"
007615:  200516000000  move     l, (16)         ;"0%.   "
007616:  202500012064  movem    l, 12064        ;"05 !0T"
007617:  263740000000  popj     q,              ;"6?@   "
007620:  603400001000  tlne     ii, nfiles      ;"P<  ( "
007621:  607540002000  tlnn     k, %kmode       ;"P]@ 0 "
007622:  254000012421  jrst     12421           ;"5@ !41"
007623:  332340000441  skipe    i, 441          ;";3@ $A"
007624:  137340012116  dpb      i, 12116        ;"+[@!1."
007625:  242340777772  lsh      i, 777772       ;"43@__Z"
007626:  322340007630  jumpe    i, 7630         ;":3@ ^8"
007627:  137340012101  dpb      i, 12101        ;"+[@!1!"
007630:  402000000441  setzm    441             ;"@0  $A"
007631:  550340000214  hrrz     i, 214          ;"M#@ ","
007632:  264000007561  jsr      7561            ;"6@  ]Q"
007633:  200700012044  move     16, 12044       ;"0' !0D"
007634:  307360000044  caig     i, @jobpdl      ;"8[P  D"
007635:  254000007640  jrst     7640            ;"5@  ^@"
007636:  335000000115  skipge   jobhrl          ;";H  !-"
007637:  260740007244  pushj    q, 7244         ;"6'@ ZD"
007640:  202707000000  movem    16, (i)         ;"07'   " " \\8\0\0"
007641:  263740000000  popj     q,              ;"6?@   "
007642:  603540002000  tlne     k, %kmode       ;"P=@ 0 "
007643:  334200012044  skipa    d, 12044        ;";B !0D"
007644:  201200000001  movei    d, fncn         ;"0*   !"
007645:  270200000504  add      d, 504          ;"7"  %$"
007646:  217000000004  movms    ufdc, d         ;"1X   $"
007647:  231200000010  idivi    d, lasuuo       ;"3*   ("
007650:  336345000505  skipn    i, 505(e)       ;";SE %%"
007651:  254000007242  jrst     7242            ;"5@  ZB"
007652:  202240000504  movem    e, 504          ;"02@ %$"
007653:  202340000141  movem    i, 141          ;"03@ !A"
007654:  200345000515  move     i, 515(e)       ;"0#E %-"
007655:  202340000142  movem    i, 142          ;"03@ !B"
007656:  660400001000  tro      ii, nfiles      ;"V$  ( "
007657:  263740000000  popj     q,              ;"6?@   "
007660:  205540000400  movsi    k, %tcore       ;"0M@ $ "
007661:  200500012065  move     l, 12065        ;"0% !0U"
007662:  202500012045  movem    l, 12045        ;"05 !0E"
007663:  260740007512  pushj    q, 7512         ;"6'@ ]*"
007664:  200500012064  move     l, 12064        ;"0% !0T"
007665:  621500740000  tlz      l, 740000       ;"R- \  "
007666:  260740007606  pushj    q, 7606         ;"6'@ ^&"
007667:  402000000505  setzm    505             ;"@0  %%"
007670:  200340012321  move     i, 12321        ;"0#@!31"
007671:  251340000524  blt      i, 524          ;"5+@ %4"
007672:  402000000504  setzm    504             ;"@0  %$"
007673:  402000000503  setzm    503             ;"@0  %#"
007674:  254000007571  jrst     7571            ;"5@  ]Y"
007675:  200240000503  move     e, 503          ;"0"@ %#"
007676:  254000007650  jrst     7650            ;"5@  ^H"
007677:  336340000502  skipn    i, 502          ;";S@ %""
007700:  254000007703  jrst     7703            ;"5@  _#"
007701:  202340010522  movem    i, 10522        ;"03@!%2"
007702:  254000007177  jrst     7177            ;"5@  Y_"
007703:  260740007620  pushj    q, 7620         ;"6'@ ^0"
007704:  547000000173  hlrs     ufdc, 173       ;"LX  !["
007705:  263740000000  popj     q,              ;"6?@   "
007706:  603540002000  tlne     k, %kmode       ;"P=@ 0 "
007707:  254000007715  jrst     7715            ;"5@  _-"
007710:  660540000001  tro      k, fncn         ;"V%@  !"
007711:  550354000000  hrrz     i, (j)          ;"M#L   "
007712:  264000007561  jsr      7561            ;"6@  ]Q"
007713:  200347000000  move     i, (i)          ;"0#G   "
007714:  202340012044  movem    i, 12044        ;"03@!0D"
007715:  201500000000  movei    l, ufdc         ;"0-    " " 4\0\0\0"
007716:  550340012044  hrrz     i, 12044        ;"M#@!0D"
007717:  264000007772  jsr      7772            ;"6@  _Z"
007720:  254000007763  jrst     7763            ;"5@  _S"
007721:  661400001000  tlo      ii, nfiles      ;"V,  ( "
007722:  253600007725  aobjn    j, 7725         ;"5>  _5"
007723:  603600000007  tlne     j, i            ;"P>   '"
007724:  204600000172  movs     j, 172          ;"0F  !Z"
007725:  331014000000  skipl    (j)             ;";(,   " "6 `\0\0"
007726:  254000007754  jrst     7754            ;"5@  _L"
007727:  325600012136  jumpge   j, 12136        ;":N !1>"
007730:  200340000014  move     i, j            ;"0#@  ,"
007731:  335007000001  skipge   fncn(i)         ;";H'  !"
007732:  253340007731  aobjn    i, 7731         ;"5;@ _9"
007733:  325340012136  jumpge   i, 12136        ;":K@!1>"
007734:  553000000007  hrrzs    ufdc, i         ;"M8   '"
007735:  200707000000  move     16, (i)         ;"0''   "
007736:  202707000001  movem    16, fncn(i)     ;"07'  !"
007737:  607700000020  tlnn     16, qpds        ;"P_   0"
007740:  254000007752  jrst     7752            ;"5@  _J"
007741:  204240000172  movs     e, 172          ;"0B@ !Z"
007742:  200305000000  move     p, (e)          ;"0#%   " " \f(\0\0"
007743:  607300000017  tlnn     p, q            ;"P[   /"
007744:  254000007747  jrst     7747            ;"5@  _G"
007745:  306346000000  cain     i, (p)          ;"8SF   " "1N0\0\0"
007746:  350005000000  aos      (e)             ;"= %   "
007747:  253240007742  aobjn    e, 7742         ;"5:@ _B"
007750:  607240000007  tlnn     e, i            ;"PZ@  '"
007751:  254000007742  jrst     7742            ;"5@  _B"
007752:  302354000000  caie     i, (j)          ;"83L   " "0N`\0\0"
007753:  364340007735  soja     i, 7735         ;">C@ _="
007754:  200340012044  move     i, 12044        ;"0#@!0D"
007755:  504340000173  hrl      i, 173          ;"HC@ !["
007756:  202354000000  movem    i, (j)          ;"03L   " " N`\0\0"
007757:  626540000001  trzn     k, fncn         ;"RU@  !"
007760:  552340000214  hrrzm    i, 214          ;"M3@ ","
007761:  436514000000  iorm     l, (j)          ;"CU,   " "GT`\0\0"
007762:  263740000000  popj     q,              ;"6?@   "
007763:  200600000011  move     j, f            ;"0&   )"
007764:  661400001000  tlo      ii, nfiles      ;"V,  ( "
007765:  436514000000  iorm     l, (j)          ;"CU,   " "GT`\0\0"
007766:  550354000000  hrrz     i, (j)          ;"M#L   "
007767:  626540000001  trzn     k, fncn         ;"RU@  !"
007770:  202340000214  movem    i, 214          ;"03@ ","
007771:  263740000000  popj     q,              ;"6?@   "
007772:  310000010061  cam      ufdc, 10061     ;"9  ! Q"
007773:  204440000172  movs     f, 172          ;"0D@ !Z"
007774:  336251000000  skipn    e, (f)          ;";RI   " "7JH\0\0"
007775:  254000010004  jrst     10004           ;"5@ ! $"
007776:  621240777760  tlz      e, 777760       ;"R*@__P"
007777:  316340000005  camn     i, e            ;"9S@  %"
%ddels:
010000:  254020007772  jrst     @7772           ;"5@0 _Z"
010001:  253440007774  aobjn    f, 7774         ;"5<@ _\"
010002:  607440000007  tlnn     f, i            ;"P\@  '"
010003:  254000007774  jrst     7774            ;"5@  _\"
010004:  350000007772  aos      7772            ;"=   _Z"
010005:  254020007772  jrst     @7772           ;"5@0 _Z"
010006:  205500400000  movsi    l, 400000       ;"0M @  "
010007:  603540777777  tlne     k, 777777       ;"P=@___"
010010:  254000007716  jrst     7716            ;"5@  _."
010011:  254000007761  jrst     7761            ;"5@  _Q"
010012:  334140012363  skipa    c, 12363        ;";A@!3S"
010013:  201140000076  movei    c, 76           ;"0)@  ^"
010014:  274740012346  sub      q, 12346        ;"7G@!3F"
010015:  254000007217  jrst     7217            ;"5@  Z/"
010016:  607540002000  tlnn     k, %kmode       ;"P]@ 0 "
010017:  254000007242  jrst     7242            ;"5@  ZB"
010020:  200500012255  move     l, 12255        ;"0% !2M"
010021:  250500000616  exch     l, 616          ;"5%  &."
010022:  260740000646  pushj    q, 646          ;"6'@ &F"
010023:  202500000616  movem    l, 616          ;"05  &."
010024:  242140000004  lsh      c, d            ;"41@  $"
010025:  660140000010  tro      c, lasuuo       ;"V!@  ("
010026:  505140010051  hrli     c, 10051        ;"HI@! I"
010027:  350500007251  aos      l, 7251         ;"=%  ZI"
010030:  307500000126  caig     l, jobcni       ;"8]  !6"
010031:  254000010035  jrst     10035           ;"5@ ! ="
010032:  051140012406  outstr   12406           ;"%)@!4&"
010033:  370000007251  sos      7251            ;"?   ZI"
010034:  254000007242  jrst     7242            ;"5@  ZB"
010035:  206152007252  movsm    c, 7252(l)      ;"0QJ ZJ"
010036:  200700012044  move     16, 12044       ;"0' !0D"
010037:  607700777777  tlnn     16, 777777      ;"P_ ___"
010040:  505700440700  hrli     16, 440700      ;"HO D' "
010041:  202712007273  movem    16, 7273(l)     ;"07* Z["
010042:  263740000000  popj     q,              ;"6?@   "
010043:  607540002000  tlnn     k, %kmode       ;"P]@ 0 "
010044:  254000007242  jrst     7242            ;"5@  ZB"
010045:  200700012044  move     16, 12044       ;"0' !0D"
010046:  607700777777  tlnn     16, 777777      ;"P_ ___"
010047:  505700440700  hrli     16, 440700      ;"HO D' "
010050:  334000000000  skipa                    ;";@    " "7\0\0\0\0"
010051:  200712007273  move     16, 7273(l)     ;"0'* Z["
010052:  202700010522  movem    16, 10522       ;"07 !%2"
010053:  254000007172  jrst     7172            ;"5@  YZ"
010054:  550340012044  hrrz     i, 12044        ;"M#@!0D"
010055:  607540002000  tlnn     k, %kmode       ;"P]@ 0 "
010056:  550340000214  hrrz     i, 214          ;"M#@ ","
010057:  264000007561  jsr      7561            ;"6@  ]Q"
010060:  264000007772  jsr      7772            ;"6@  _Z"
010061:  254000012134  jrst     12134           ;"5@ !1<"
010062:  550440000173  hrrz     f, 173          ;"M$@ !["
010063:  620440774037  trz      f, 774037       ;"R$@_@?"
010064:  200700000011  move     16, f           ;"0'   )"
010065:  242700777773  lsh      16, 777773      ;"47 __["
010066:  202700000441  movem    16, 441         ;"07  $A"
010067:  200707000000  move     16, (i)         ;"0''   "
010070:  200340012312  move     i, 12312        ;"0#@!3*"
010071:  202340010522  movem    i, 10522        ;"03@!%2"
010072:  201500000000  movei    l, ufdc         ;"0-    " " 4\0\0\0"
010073:  306440000300  cain     f, 300          ;"8T@ # "
010074:  201500000047  movei    l, 47           ;"0-   G"
010075:  306440000340  cain     f, 340          ;"8T@ #@"
010076:  201500000042  movei    l, joberr       ;"0-   B"
010077:  322500010147  jumpe    l, 10147        ;":5 !!G"
010100:  136500000007  idpb     l, i            ;"+U   '"
010101:  201240000002  movei    e, chnl         ;"0*@  ""
010102:  261740000012  push     q, l            ;"6/@  *"
010103:  302440000340  caie     f, 340          ;"84@ #@"
010104:  254000010146  jrst     10146           ;"5@ !!F"
010105:  200300000016  move     p, 16           ;"0#   ."
010106:  201700000000  movei    16, ufdc        ;"0/    " " <\0\0\0"
010107:  322300010131  jumpe    p, 10131        ;":3 !!9"
010110:  201240000000  movei    e, ufdc         ;"0*@   " " *\0\0\0"
010111:  246240000007  lshc     e, i            ;"4R@  '"
010112:  302240000015  caie     e, ntpcw        ;"82@  -"
010113:  306240000012  cain     e, l            ;"8R@  *"
010114:  254000010107  jrst     10107           ;"5@ !!'"
010115:  306240000175  cain     e, 175          ;"8R@ !]"
010116:  254000010107  jrst     10107           ;"5@ !!'"
010117:  306240000002  cain     e, chnl         ;"8R@  ""
010120:  660500000004  tro      l, hilin        ;"V%   $"
010121:  306240000003  cain     e, colm         ;"8R@  #"
010122:  660500000002  tro      l, chnl         ;"V%   ""
010123:  306240000006  cain     e, p            ;"8R@  &"
010124:  660500000001  tro      l, fncn         ;"V%   !"
010125:  242700000007  lsh      16, i           ;"47   '"
010126:  434700000005  ior      16, e           ;"CG   %"
010127:  254000010107  jrst     10107           ;"5@ !!'"
010130:  242700000007  lsh      16, i           ;"47   '"
010131:  322700010134  jumpe    16, 10134       ;":7 !!<"
010132:  607700376000  tlnn     16, 376000      ;"P_ ?P "
010133:  254000010130  jrst     10130           ;"5@ !!8"
010134:  242700000001  lsh      16, a           ;"47   !"
010135:  201240000000  movei    e, ufdc         ;"0*@   " " *\0\0\0"
010136:  606500000004  trnn     l, hilin        ;"PU   $"
010137:  201240000002  movei    e, chnl         ;"0*@  ""
010140:  606500000002  trnn     l, chnl         ;"PU   ""
010141:  201240000003  movei    e, colm         ;"0*@  #"
010142:  606500000001  trnn     l, fncn         ;"PU   !"
010143:  201240000006  movei    e, p            ;"0*@  &"
010144:  322240007242  jumpe    e, 7242         ;":2@ ZB"
010145:  202257000000  movem    e, (q)          ;"02O   " " Jx\0\0"
010146:  136240000007  idpb     e, i            ;"+R@  '"
010147:  260740005104  pushj    q, 5104         ;"6'@ I$"
010150:  550700000441  hrrz     16, 441         ;"M'  $A"
010151:  301700000006  cail     16, p           ;"8/   &"
010152:  303700000007  caile    16, i           ;"8?   '"
010153:  254000010156  jrst     10156           ;"5@ !!N"
010154:  262740000012  pop      q, l            ;"67@  *"
010155:  136500000007  idpb     l, i            ;"+U   '"
010156:  260740012414  pushj    q, 12414        ;"6'@!4,"
010157:  051340002125  setlin   2125            ;"%+@ 15"
010160:  051440000000  clrbfi   ufdc            ;"%,@   " "\n2\0\0\0"
010161:  711640012077  coni     jobpfi, 12077   ;"Y.@!0_"
010162:  051340002126  setlin   2126            ;"%+@ 16"
010163:  260740002130  pushj    q, 2130         ;"6'@ 18"
010164:  051600000012  inwait   l               ;"%.   *"
010165:  051340002127  setlin   2127            ;"%+@ 17"
010166:  200340012312  move     i, 12312        ;"0#@!3*"
010167:  254000010177  jrst     10177           ;"5@ !!_"
010170:  051000000003  inchrw   c               ;"%(   #"
010171:  306140000175  cain     c, 175          ;"8Q@ !]"
010172:  254000007172  jrst     7172            ;"5@  YZ"
010173:  302140000015  caie     c, ntpcw        ;"81@  -"
010174:  306140000012  cain     c, l            ;"8Q@  *"
010175:  254000010177  jrst     10177           ;"5@ !!_"
010176:  136140000007  idpb     c, i            ;"+Q@  '"
010177:  365500010170  sojge    l, 10170        ;">M !!X"
010200:  260740012414  pushj    q, 12414        ;"6'@!4,"
010201:  254000007200  jrst     7200            ;"5@  Z "
010202:  260740010305  pushj    q, 10305        ;"6'@!#%"
010203:  510454000000  hllz     f, (j)          ;"I$L   "
010204:  204500000014  movs     l, j            ;"0E   ,"
010205:  312500000172  came     l, 172          ;"95  !Z"
010206:  254000010216  jrst     10216           ;"5@ !"."
010207:  253600010207  aobjn    j, 10207        ;"5> !"'"
010210:  336014777777  skipn    777777(j)       ;";P,___"
010211:  364340012132  soja     i, 12132        ;">C@!1:"
010212:  331014000000  skipl    (j)             ;";(,   " "6 `\0\0"
010213:  254000010217  jrst     10217           ;"5@ !"/"
010214:  274600012346  sub      j, 12346        ;"7F !3F"
010215:  254000010212  jrst     10212           ;"5@ !"*"
010216:  274600012346  sub      j, 12346        ;"7F !3F"
010217:  274600012346  sub      j, 12346        ;"7F !3F"
010220:  364340010224  soja     i, 10224        ;">C@!"4"
010221:  260740010305  pushj    q, 10305        ;"6'@!#%"
010222:  510454000000  hllz     f, (j)          ;"I$L   "
010223:  271340000001  addi     i, fncn         ;"7+@  !"
010224:  606100000002  trnn     b, chnl         ;"PQ   ""
010225:  254000007714  jrst     7714            ;"5@  _,"
010226:  621440400037  tlz      f, 400037       ;"R,@@ ?"
010227:  261740000011  push     q, f            ;"6/@  )"
010230:  201540000004  movei    k, hilin        ;"0-@  $"
010231:  260740007714  pushj    q, 7714         ;"6'@ _,"
010232:  205440377777  movsi    f, 377777       ;"0L@?__"
010233:  412454000000  andcam   f, (j)          ;"A4L   " "BR`\0\0"
010234:  262740000011  pop      q, f            ;"67@  )"
010235:  436454000000  iorm     f, (j)          ;"CTL   " "GR`\0\0"
010236:  263740000000  popj     q,              ;"6?@   "
010237:  260740010305  pushj    q, 10305        ;"6'@!#%"
010240:  204454000000  movs     f, (j)          ;"0DL   "
010241:  661400001000  tlo      ii, nfiles      ;"V,  ( "
010242:  204340000172  movs     i, 172          ;"0C@ !Z"
010243:  316600000007  camn     j, i            ;"9V   '"
010244:  254000010247  jrst     10247           ;"5@ !"G"
010245:  274600012346  sub      j, 12346        ;"7F !3F"
010246:  254000010257  jrst     10257           ;"5@ !"O"
010247:  253600010247  aobjn    j, 10247        ;"5> !"G"
010250:  254000010257  jrst     10257           ;"5@ !"O"
010251:  260740010305  pushj    q, 10305        ;"6'@!#%"
010252:  204454000000  movs     f, (j)          ;"0DL   "
010253:  661400001000  tlo      ii, nfiles      ;"V,  ( "
010254:  253600010257  aobjn    j, 10257        ;"5> !"O"
010255:  603600000007  tlne     j, i            ;"P>   '"
010256:  204600000172  movs     j, 172          ;"0F  !Z"
010257:  550514000000  hrrz     l, (j)          ;"M%,   "
010260:  202500000214  movem    l, 214          ;"05  ","
010261:  606100000002  trnn     b, chnl         ;"PQ   ""
010262:  263740000000  popj     q,              ;"6?@   "
010263:  242440777773  lsh      f, 777773       ;"44@__["
010264:  137440012261  dpb      f, 12261        ;"+\@!2Q"
010265:  263740000000  popj     q,              ;"6?@   "
010266:  660540000001  tro      k, fncn         ;"V%@  !"
010267:  201240000000  movei    e, ufdc         ;"0*@   " " *\0\0\0"
010270:  254000010276  jrst     10276           ;"5@ !"^"
010271:  660540000001  tro      k, fncn         ;"V%@  !"
010272:  201240000001  movei    e, fncn         ;"0*@  !"
010273:  254000010276  jrst     10276           ;"5@ !"^"
010274:  660540000001  tro      k, fncn         ;"V%@  !"
010275:  201240000002  movei    e, chnl         ;"0*@  ""
010276:  260740010305  pushj    q, 10305        ;"6'@!#%"
010277:  550354000000  hrrz     i, (j)          ;"M#L   "
010300:  264000007561  jsr      7561            ;"6@  ]Q"
010301:  256005012444  xct      12444(e)        ;"5P%!4D"
010302:  306240000002  cain     e, chnl         ;"8R@  ""
010303:  260740011400  pushj    q, 11400        ;"6'@!, "
010304:  254000007714  jrst     7714            ;"5@  _,"
010305:  550340000214  hrrz     i, 214          ;"M#@ ","
010306:  607400001000  tlnn     ii, nfiles      ;"P\  ( "
010307:  263740000000  popj     q,              ;"6?@   "
010310:  607540002000  tlnn     k, %kmode       ;"P]@ 0 "
010311:  263740000000  popj     q,              ;"6?@   "
010312:  260740007620  pushj    q, 7620         ;"6'@ ^0"
010313:  200340000214  move     i, 214          ;"0#@ ","
010314:  263740000000  popj     q,              ;"6?@   "
010315:  201240000001  movei    e, fncn         ;"0*@  !"
010316:  254000010322  jrst     10322           ;"5@ !#2"
010317:  201240000002  movei    e, chnl         ;"0*@  ""
010320:  254000010322  jrst     10322           ;"5@ !#2"
010321:  201240000003  movei    e, colm         ;"0*@  #"
010322:  205440400020  movsi    f, 400020       ;"0L@@ 0"
010323:  436454000000  iorm     f, (j)          ;"CTL   " "GR`\0\0"
010324:  202600012044  movem    j, 12044        ;"06 !0D"
010325:  660240400000  tro      e, 400000       ;"V"@@  "
010326:  204500000005  movs     l, e            ;"0E   %"
010327:  660540000001  tro      k, fncn         ;"V%@  !"
010330:  254000007721  jrst     7721            ;"5@  _1"
010331:  205700400000  movsi    16, 400000      ;"0O @  "
010332:  412714000000  andcam   16, (j)         ;"A7,   " "B\\`\0\0"
010333:  254000004452  jrst     4452            ;"5@  DJ"
010334:  204600000172  movs     j, 172          ;"0F  !Z"
010335:  274600012346  sub      j, 12346        ;"7F !3F"
010336:  231400000001  idivi    ii, fncn        ;"3,   !"
010337:  254000010357  jrst     10357           ;"5@ !#O"
010340:  603540002000  tlne     k, %kmode       ;"P=@ 0 "
010341:  254000010344  jrst     10344           ;"5@ !#D"
010342:  210340000172  movn     i, 172          ;"1#@ !Z"
010343:  344340010345  aoja     i, 10345        ;"<C@!#E"
010344:  370340012044  sos      i, 12044        ;"?#@!0D"
010345:  553000000007  hrrzs    ufdc, i         ;"M8   '"
010346:  303340000024  caile    i, 24           ;"8;@  4"
010347:  254000007242  jrst     7242            ;"5@  ZB"
010350:  204700000014  movs     16, j           ;"0G   ,"
010351:  274700000172  sub      16, 172         ;"7G  !Z"
010352:  210440000007  movn     f, i            ;"1$@  '"
010353:  542440000172  hrrm     f, 172          ;"L4@ !Z"
010354:  274340000016  sub      i, 16           ;"7C@  ."
010355:  210440000007  movn     f, i            ;"1$@  '"
010356:  504600000011  hrl      j, f            ;"HF   )"
010357:  276600000011  subm     j, f            ;"7V   )"
010360:  402011000001  setzm    fncn(f)         ;"@0)  !"
010361:  505451000001  hrli     f, fncn(f)      ;"HLI  !"
010362:  271440000002  addi     f, chnl         ;"7,@  ""
010363:  251440000171  blt      f, 171          ;"5,@ !Y"
010364:  263740000000  popj     q,              ;"6?@   "
010365:  200340000215  move     i, 215          ;"0#@ "-"
010366:  254000007714  jrst     7714            ;"5@  _,"
010367:  000000000000                           ;"      "
010370:  201700010367  movei    16, 10367       ;"0/ !#W"
010371:  250700012044  exch     16, 12044       ;"5' !0D"
010372:  603540002000  tlne     k, %kmode       ;"P=@ 0 "
010373:  202700010367  movem    16, 10367       ;"07 !#W"
010374:  660540000001  tro      k, fncn         ;"V%@  !"
010375:  261740000173  push     q, 173          ;"6/@ !["
010376:  201700000100  movei    16, %displ      ;"0/  ! "
010377:  542700000173  hrrm     16, 173         ;"L7  !["
010400:  260740007715  pushj    q, 7715         ;"6'@ _-"
010401:  262740000173  pop      q, 173          ;"67@ !["
010402:  263740000000  popj     q,              ;"6?@   "
010403:  201340010421  movei    i, 10421        ;"0+@!$1"
010404:  254000010406  jrst     10406           ;"5@ !$&"
010405:  201340010420  movei    i, 10420        ;"0+@!$0"
010406:  607540002000  tlnn     k, %kmode       ;"P]@ 0 "
010407:  254000007242  jrst     7242            ;"5@  ZB"
010410:  200700012044  move     16, 12044       ;"0' !0D"
010411:  552707000000  hrrzm    16, (i)         ;"M7'   " "Z\\8\0\0"
010412:  552707000001  hrrzm    16, fncn(i)     ;"M7'  !"
010413:  263740000000  popj     q,              ;"6?@   "
010414:  201340010424  movei    i, 10424        ;"0+@!$4"
010415:  254000010406  jrst     10406           ;"5@ !$&"
010416:  201340010423  movei    i, 10423        ;"0+@!$3"
010417:  254000010406  jrst     10406           ;"5@ !$&"
010420:  000000012502  bp7                      ;"   !5""
010421:  000000012502  bp7                      ;"   !5""
010422:  000000000000                           ;"      "
010423:  000000047265  pat..                    ;"   $ZU"
010424:  000000047265  pat..                    ;"   $ZU"
010425:  000000000000                           ;"      "
010426:  201440000002  movei    f, chnl         ;"0,@  ""
010427:  254000010440  jrst     10440           ;"5@ !$@"
010430:  201440000001  movei    f, fncn         ;"0,@  !"
010431:  254000010440  jrst     10440           ;"5@ !$@"
010432:  626400400000  trzn     ii, 400000      ;"RT @  "
010433:  263740000000  popj     q,              ;"6?@   "
010434:  200700012060  move     16, 12060       ;"0' !0P"
010435:  200440012061  move     f, 12061        ;"0$@!0Q"
010436:  254000010445  jrst     10445           ;"5@ !$E"
010437:  201440000000  movei    f, ufdc         ;"0,@   " " 2\0\0\0"
010440:  200700010421  move     16, 10421       ;"0' !$1"
010441:  200340012044  move     i, 12044        ;"0#@!0D"
010442:  256011010527  xct      10527(f)        ;"5P)!%7"
010443:  254000007236  jrst     7236            ;"5@  Z>"
010444:  202340012063  movem    i, 12063        ;"03@!0S"
010445:  201340000001  movei    i, fncn         ;"0+@  !"
010446:  204500000172  movs     l, 172          ;"0E  !Z"
010447:  331012000000  skipl    (l)             ;";(*   " "6 P\0\0"
010450:  271340000001  addi     i, fncn         ;"7+@  !"
010451:  253500010447  aobjn    l, 10447        ;"5= !$G"
010452:  607500000007  tlnn     l, i            ;"P]   '"
010453:  254000010447  jrst     10447           ;"5@ !$G"
010454:  242340777777  lsh      i, 777777       ;"43@___"
010455:  322340007242  jumpe    i, 7242         ;":3@ ZB"
010456:  202340012062  movem    i, 12062        ;"03@!0R"
010457:  311700010424  caml     16, 10424       ;"9/ !$4"
010460:  254000010513  jrst     10513           ;"5@ !%+"
010461:  307700000017  caig     16, q           ;"8_   /"
010462:  334356000421  skipa    i, 421(16)      ;";CN $1"
010463:  200356000000  move     i, (16)         ;"0#N   "
010464:  256011010527  xct      10527(f)        ;"5P)!%7"
010465:  344700010457  aoja     16, 10457       ;"<G !$O"
010466:  430340012063  xor      i, 12063        ;"C#@!0S"
010467:  404371010532  and      i, @10532(f)    ;"@CY!%:"
010470:  256011010535  xct      10535(f)        ;"5P)!%="
010471:  344700010457  aoja     16, 10457       ;"<G !$O"
010472:  261740000016  push     q, 16           ;"6/@  ."
010473:  261740000011  push     q, f            ;"6/@  )"
010474:  202700012044  movem    16, 12044       ;"07 !0D"
010475:  403500000013  setzb    l, k            ;"@=   +"
010476:  260740007716  pushj    q, 7716         ;"6'@ _."
010477:  377000012062  sosg     12062           ;"?X !0R"
010500:  665400000001  tloa     ii, fncn        ;"VL   !"
010501:  260740004452  pushj    q, 4452         ;"6'@ DJ"
010502:  262740000011  pop      q, f            ;"67@  )"
010503:  262740000016  pop      q, 16           ;"67@  ."
010504:  333000012062  skiple   12062           ;";8 !0R"
010505:  344700010457  aoja     16, 10457       ;"<G !$O"
010506:  660400400000  tro      ii, 400000      ;"V$ @  "
010507:  202440012061  movem    f, 12061        ;"04@!0Q"
010510:  202700012060  movem    16, 12060       ;"07 !0P"
010511:  350000012060  aos      12060           ;"=  !0P"
010512:  263740000000  popj     q,              ;"6?@   "
010513:  200700010420  move     16, 10420       ;"0' !$0"
010514:  202700010421  movem    16, 10421       ;"07 !$1"
010515:  200700010423  move     16, 10423       ;"0' !$3"
010516:  202700010424  movem    16, 10424       ;"07 !$4"
010517:  620400400000  trz      ii, 400000      ;"R$ @  "
010520:  660400004000  tro      ii, %xtsrt      ;"V$  @ "
010521:  263740000000  popj     q,              ;"6?@   "
010522:  000000000000                           ;"      "
$m:
010523:  777777777777  conso    774, @777777(q) ;"______"
010524:  777777777777  conso    774, @777777(q) ;"______"
010525:  000000000000                           ;"      "
010526:  000000000000                           ;"      "
010527:  334000000000  skipa                    ;";@    " "7\0\0\0\0"
010530:  334000000000  skipa                    ;";@    " "7\0\0\0\0"
010531:  260740010540  pushj    q, 10540        ;"6'@!%@"
010532:  000000010523  $m                       ;"   !%3"
010533:  000000010523  $m                       ;"   !%3"
010534:  000000012341                           ;"   !3A"
010535:  322340010472  jumpe    i, 10472        ;":3@!$Z"
010536:  326340010472  jumpn    i, 10472        ;":S@!$Z"
010537:  322340010472  jumpe    i, 10472        ;":3@!$Z"
010540:  200500000007  move     l, i            ;"0%   '"
010541:  135240012264  ldb      e, 12264        ;"+J@!2T"
010542:  322240010544  jumpe    e, 10544        ;":2@!%D"
010543:  270505000421  add      l, 421(e)       ;"7%% $1"
010544:  553000000012  hrrzs    ufdc, l         ;"M8   *"
010545:  202500010561  movem    l, 10561        ;"05 !%Q"
010546:  607340000020  tlnn     i, qpds         ;"P[@  0"
010547:  254000010562  jrst     10562           ;"5@ !%R"
010550:  313500000044  camle    l, jobpdl       ;"9=   D"
010551:  254000012266  jrst     12266           ;"5@ !2V"
010552:  307500000017  caig     l, q            ;"8]   /"
010553:  271500000421  addi     l, 421          ;"7-  $1"
010554:  200352000000  move     i, (l)          ;"0#J   "
010555:  550500000007  hrrz     l, i            ;"M%   '"
010556:  312500010561  came     l, 10561        ;"95 !%Q"
010557:  254000010540  jrst     10540           ;"5@ !%@"
010560:  263740000000  popj     q,              ;"6?@   "
010561:  000000000000                           ;"      "
010562:  200340000012  move     i, l            ;"0#@  *"
010563:  350017000000  aos      (q)             ;"= /   "
010564:  263740000000  popj     q,              ;"6?@   "
010565:  260740001363  pushj    q, 1363         ;"6'@ +S"
010566:  261740012045  push     q, 12045        ;"6/@!0E"
010567:  260740001573  pushj    q, 1573         ;"6'@ -["
010570:  607400002000  tlnn     ii, %kmode      ;"P\  0 "
010571:  254000007242  jrst     7242            ;"5@  ZB"
010572:  262740012045  pop      q, 12045        ;"67@!0E"
010573:  254000010600  jrst     10600           ;"5@ !& "
010574:  260740001363  pushj    q, 1363         ;"6'@ +S"
010575:  607400001000  tlnn     ii, nfiles      ;"P\  ( "
010576:  254000007236  jrst     7236            ;"5@  Z>"
010577:  200700000214  move     16, 214         ;"0'  ","
010600:  202700012044  movem    16, 12044       ;"07 !0D"
010601:  260740010635  pushj    q, 10635        ;"6'@!&="
010602:  254000010613  jrst     10613           ;"5@ !&+"
010603:  210700012501  movn     16, 12501       ;"1' !5!"
010604:  273700000116  addb     16, jobsym      ;"7?  !."
010605:  205340000002  movsi    i, chnl         ;"0K@  ""
010606:  272340000142  addm     i, 142          ;"73@ !B"
010607:  272340000141  addm     i, 141          ;"73@ !A"
010610:  200340012045  move     i, 12045        ;"0#@!0E"
010611:  661340040000  tlo      i, %fast        ;"V+@$  "
010612:  202356000000  movem    i, (16)         ;"03N   " " Np\0\0"
010613:  200340012044  move     i, 12044        ;"0#@!0D"
010614:  202356000001  movem    i, fncn(16)     ;"03N  !"
010615:  254000007656  jrst     7656            ;"5@  ^N"
010616:  260740001363  pushj    q, 1363         ;"6'@ +S"
010617:  260740010633  pushj    q, 10633        ;"6'@!&;"
010620:  304000000000  caia                     ;"8@    " "1\0\0\0\0"
010621:  254000007237  jrst     7237            ;"5@  Z?"
010622:  200640012050  move     ntpcw, 12050    ;"0&@!0H"
010623:  205300400000  movsi    p, 400000       ;"0K @  "
010624:  436315000000  iorm     p, (ntpcw)      ;"CS-   " "GLh\0\0"
010625:  660400001000  tro      ii, nfiles      ;"V$  ( "
010626:  254000001363  jrst     1363            ;"5@  +S"
010627:  260740010616  pushj    q, 10616        ;"6'@!&."
010630:  200300012500  move     p, 12500        ;"0# !5 "
010631:  202315000000  movem    p, (ntpcw)      ;"03-   " " Lh\0\0"
010632:  263740000000  popj     q,              ;"6?@   "
010633:  603540000020  tlne     k, qpds         ;"P=@  0"
010634:  263740000000  popj     q,              ;"6?@   "
010635:  607540000400  tlnn     k, %tcore       ;"P]@ $ "
010636:  254000007242  jrst     7242            ;"5@  ZB"
010637:  621400040000  tlz      ii, %fast       ;"R, $  "
010640:  204640000010  movs     ntpcw, ii       ;"0F@  ("
010641:  260740001305  pushj    q, 1305         ;"6'@ +%"
010642:  621400010000  tlz      ii, %ddels      ;"R, !  "
010643:  405640010000  andi     ntpcw, %ddels   ;"@N@!  "
010644:  671400000015  tso      ii, ntpcw       ;"W,   -"
010645:  603400040000  tlne     ii, %fast       ;"P< $  "
010646:  350017000000  aos      (q)             ;"= /   "
010647:  263740000000  popj     q,              ;"6?@   "
$1b:
010650:  777777777777  conso    774, @777777(q) ;"______"
010651:  000000000000                           ;"      "
010652:  000000000000                           ;"      "
010653:  000000000000                           ;"      "
010654:  000000000000                           ;"      "
$2b:
010655:  777777777777  conso    774, @777777(q) ;"______"
010656:  000000000000                           ;"      "
010657:  000000000000                           ;"      "
010660:  000000000000                           ;"      "
010661:  000000000000                           ;"      "
$3b:
010662:  777777777777  conso    774, @777777(q) ;"______"
010663:  000000000000                           ;"      "
010664:  000000000000                           ;"      "
010665:  000000000000                           ;"      "
010666:  000000000000                           ;"      "
$4b:
010667:  777777777777  conso    774, @777777(q) ;"______"
010670:  000000000000                           ;"      "
010671:  000000000000                           ;"      "
010672:  000000000000                           ;"      "
010673:  000000000000                           ;"      "
$5b:
010674:  777777777777  conso    774, @777777(q) ;"______"
010675:  000000000000                           ;"      "
010676:  000000000000                           ;"      "
010677:  000000000000                           ;"      "
010700:  000000000000                           ;"      "
$6b:
010701:  777777777777  conso    774, @777777(q) ;"______"
010702:  000000000000                           ;"      "
010703:  000000000000                           ;"      "
010704:  000000000000                           ;"      "
010705:  000000000000                           ;"      "
$7b:
010706:  777777777777  conso    774, @777777(q) ;"______"
010707:  000000000000                           ;"      "
010710:  000000000000                           ;"      "
010711:  000000000000                           ;"      "
010712:  000000000000                           ;"      "
$10b:
010713:  777777777777  conso    774, @777777(q) ;"______"
010714:  000000000000                           ;"      "
010715:  000000000000                           ;"      "
010716:  000000000000                           ;"      "
010717:  000000000000                           ;"      "
$11b:
010720:  777777777777  conso    774, @777777(q) ;"______"
010721:  000000000000                           ;"      "
010722:  000000000000                           ;"      "
010723:  000000000000                           ;"      "
010724:  000000000000                           ;"      "
$12b:
010725:  777777777777  conso    774, @777777(q) ;"______"
010726:  000000000000                           ;"      "
010727:  000000000000                           ;"      "
010730:  000000000000                           ;"      "
010731:  000000000000                           ;"      "
$13b:
010732:  777777777777  conso    774, @777777(q) ;"______"
010733:  000000000000                           ;"      "
010734:  000000000000                           ;"      "
010735:  000000000000                           ;"      "
010736:  000000000000                           ;"      "
$14b:
010737:  777777777777  conso    774, @777777(q) ;"______"
010740:  000000000000                           ;"      "
010741:  000000000000                           ;"      "
010742:  000000000000                           ;"      "
010743:  000000000000                           ;"      "
$15b:
010744:  777777777777  conso    774, @777777(q) ;"______"
010745:  000000000000                           ;"      "
010746:  000000000000                           ;"      "
010747:  000000000000                           ;"      "
010750:  000000000000                           ;"      "
$16b:
010751:  777777777777  conso    774, @777777(q) ;"______"
010752:  000000000000                           ;"      "
010753:  000000000000                           ;"      "
010754:  000000000000                           ;"      "
010755:  000000000000                           ;"      "
$17b:
010756:  777777777777  conso    774, @777777(q) ;"______"
010757:  000000000000                           ;"      "
010760:  000000000000                           ;"      "
010761:  000000000000                           ;"      "
010762:  000000000000                           ;"      "
$20b:
010763:  777777777777  conso    774, @777777(q) ;"______"
010764:  000000000000                           ;"      "
010765:  000000000000                           ;"      "
010766:  000000000000                           ;"      "
010767:  000000000000                           ;"      "
010770:  310000011352  cam      ufdc, 11352     ;"9  !+J"
010771:  332000012057  skipe    12057           ;";0 !0O"
010772:  254020010770  jrst     @10770          ;"5@0!'X"
010773:  476000012057  setom    12057           ;"GP !0O"
010774:  201440010650  movei    f, $1b          ;"0,@!&H"
010775:  201300000020  movei    p, qpds         ;"0+   0"
010776:  335711000000  skipge   16, (f)         ;";O)   " "7<H\0\0"
010777:  254000011005  jrst     11005           ;"5@ !(%"
011000:  200500012260  move     l, 12260        ;"0% !2P"
011001:  307700000017  caig     16, q           ;"8_   /"
011002:  271700000421  addi     16, 421         ;"7/  $1"
011003:  250516000000  exch     l, (16)         ;"5%.   "
011004:  202511000004  movem    l, hilin(f)     ;"05)  $"
011005:  271440000005  addi     f, lolin        ;"7,@  %"
011006:  367300010776  sojg     p, 10776        ;">[ !'^"
011007:  254020010770  jrst     @10770          ;"5@0!'X"
$i:
011010:  000000011647                           ;"   !.G"
011011:  264000002061  jsr      2061            ;"6@  0Q"
011012:  264000002135  jsr      2135            ;"6@  1="
011013:  370000011010  sos      $i              ;"?  !(("
011014:  402000011220  setzm    11220           ;"@0 !*0"
011015:  264000011160  jsr      11160           ;"6@ !)P"
011016:  336440011220  skipn    f, 11220        ;";T@!*0"
011017:  254000011046  jrst     11046           ;"5@ !(F"
011020:  336711000002  skipn    16, chnl(f)     ;";W)  ""
011021:  254000011033  jrst     11033           ;"5@ !(;"
011022:  201500000000  movei    l, ufdc         ;"0-    " " 4\0\0\0"
011023:  264000002105  jsr      2105            ;"6@  1%"
011024:  256000000212  xct      212             ;"5P  "*"
011025:  350000000206  aos      206             ;"=   "&"
011026:  350000000206  aos      206             ;"=   "&"
011027:  264000002061  jsr      2061            ;"6@  0Q"
011030:  254012011031  jrst     11031(l)        ;"5@*!(9"
011031:  254000011216  jrst     11216           ;"5@ !*."
011032:  254000011036  jrst     11036           ;"5@ !(>"
011033:  373011000001  sosle    fncn(f)         ;"?8)  !"
011034:  254000011216  jrst     11216           ;"5@ !*."
011035:  402011000001  setzm    fncn(f)         ;"@0)  !"
011036:  336511000003  skipn    l, colm(f)      ;";U)  #"
011037:  254000011042  jrst     11042           ;"5@ !(B"
011040:  607500777777  tlnn     l, 777777       ;"P] ___"
011041:  505500440700  hrli     l, 440700       ;"HM D' "
011042:  202500010522  movem    l, 10522        ;"05 !%2"
011043:  200711000000  move     16, (f)         ;"0')   "
011044:  603700000040  tlne     16, %order      ;"P?   @"
011045:  476011000000  setom    (f)             ;"GP)   " "O@H\0\0"
011046:  336700011010  skipn    16, $i          ;";W !(("
011047:  664400004000  troa     ii, %xtsrt      ;"VD  @ "
011050:  665400000001  tloa     ii, fncn        ;"VL   !"
011051:  254000011062  jrst     11062           ;"5@ !(R"
011052:  260740011065  pushj    q, 11065        ;"6'@!(U"
011053:  336000011220  skipn    11220           ;";P !*0"
011054:  602400000400  trne     ii, %tcore      ;"P4  $ "
011055:  254000011062  jrst     11062           ;"5@ !(R"
011056:  350700011010  aos      16, $i          ;"=' !(("
011057:  260740011065  pushj    q, 11065        ;"6'@!(U"
011060:  370000012044  sos      12044           ;"?  !0D"
011061:  260740007716  pushj    q, 7716         ;"6'@ _."
011062:  626400000400  trzn     ii, %tcore      ;"RT  $ "
011063:  051440000000  clrbfi   ufdc            ;"%,@   " "\n2\0\0\0"
011064:  254000007171  jrst     7171            ;"5@  YY"
011065:  552700012044  hrrzm    16, 12044       ;"M7 !0D"
011066:  552700000215  hrrzm    16, 215         ;"M7  "-"
011067:  200500000016  move     l, 16           ;"0%   ."
011070:  274514000000  sub      l, (j)          ;"7E,   "
011071:  201512777776  movei    l, 777776(l)    ;"0-*__^"
011072:  326500011100  jumpn    l, 11100        ;":U !) "
011073:  370000012044  sos      12044           ;"?  !0D"
011074:  201500000000  movei    l, ufdc         ;"0-    " " 4\0\0\0"
011075:  201540000004  movei    k, hilin        ;"0-@  $"
011076:  260740007716  pushj    q, 7716         ;"6'@ _."
011077:  350000012044  aos      12044           ;"=  !0D"
011100:  403500000013  setzb    l, k            ;"@=   +"
011101:  254000007716  jrst     7716            ;"5@  _."
011102:  200700012044  move     16, 12044       ;"0' !0D"
011103:  607540002000  tlnn     k, %kmode       ;"P]@ 0 "
011104:  200700000120  move     16, jobsa       ;"0'  !0"
011105:  542700011010  hrrm     16, $i          ;"L7 !(("
011106:  264000010770  jsr      10770           ;"6@ !'X"
011107:  264000002105  jsr      2105            ;"6@  1%"
011110:  254120011010  jrstf    @$i             ;"5A0!(("
011111:  607540002000  tlnn     k, %kmode       ;"P]@ 0 "
011112:  254000007242  jrst     7242            ;"5@  ZB"
011113:  260740011140  pushj    q, 11140        ;"6'@!)@"
011114:  201440010650  movei    f, $1b          ;"0,@!&H"
011115:  201500000020  movei    l, qpds         ;"0-   0"
011116:  335011000000  skipge   (f)             ;";H)   " "7 H\0\0"
011117:  254000011123  jrst     11123           ;"5@ !)3"
011120:  271440000005  addi     f, lolin        ;"7,@  %"
011121:  367500011116  sojg     l, 11116        ;">] !)."
011122:  254000007242  jrst     7242            ;"5@  ZB"
011123:  550700012044  hrrz     16, 12044       ;"M' !0D"
011124:  307720000044  caig     16, @jobpdl     ;"8_0  D"
011125:  254000011133  jrst     11133           ;"5@ !);"
011126:  301700400000  cail     16, 400000      ;"8/ @  "
011127:  303720000115  caile    16, @jobhrl     ;"8?0 !-"
011130:  254000007242  jrst     7242            ;"5@  ZB"
011131:  335000000115  skipge   jobhrl          ;";H  !-"
011132:  260740007244  pushj    q, 7244         ;"6'@ ZD"
011133:  202711000000  movem    16, (f)         ;"07)   " " \\H\0\0"
011134:  402011000001  setzm    fncn(f)         ;"@0)  !"
011135:  402011000003  setzm    colm(f)         ;"@0)  #"
011136:  402011000002  setzm    chnl(f)         ;"@0)  ""
011137:  263740000000  popj     q,              ;"6?@   "
011140:  550700012044  hrrz     16, 12044       ;"M' !0D"
011141:  201500010650  movei    l, $1b          ;"0- !&H"
011142:  201440000020  movei    f, qpds         ;"0,@  0"
011143:  607540002000  tlnn     k, %kmode       ;"P]@ 0 "
011144:  254000011154  jrst     11154           ;"5@ !)L"
011145:  316712000000  camn     16, (l)         ;"9W*   " "3\\P\0\0"
011146:  254000011152  jrst     11152           ;"5@ !)J"
011147:  271500000005  addi     l, lolin        ;"7-   %"
011150:  367440011145  sojg     f, 11145        ;">\@!)E"
011151:  263740000000  popj     q,              ;"6?@   "
011152:  476012000000  setom    (l)             ;"GP*   " "O@P\0\0"
011153:  263740000000  popj     q,              ;"6?@   "
011154:  476012000000  setom    (l)             ;"GP*   " "O@P\0\0"
011155:  271500000005  addi     l, lolin        ;"7-   %"
011156:  367440011154  sojg     f, 11154        ;">\@!)L"
011157:  263740000000  popj     q,              ;"6?@   "
011160:  310000011016  cam      ufdc, 11016     ;"9  !(."
011161:  336000012057  skipn    12057           ;";P !0O"
011162:  254020011160  jrst     @11160          ;"5@0!)P"
011163:  402000012057  setzm    12057           ;"@0 !0O"
011164:  201440010650  movei    f, $1b          ;"0,@!&H"
011165:  201300000020  movei    p, qpds         ;"0+   0"
011166:  200511000004  move     l, hilin(f)     ;"0%)  $"
011167:  335711000000  skipge   16, (f)         ;";O)   " "7<H\0\0"
011170:  254000011177  jrst     11177           ;"5@ !)_"
011171:  405700777777  andi     16, 777777      ;"@O ___"
011172:  306720011010  cain     16, @$i         ;"8W0!(("
011173:  202440011220  movem    f, 11220        ;"04@!*0"
011174:  307700000017  caig     16, q           ;"8_   /"
011175:  271700000421  addi     16, 421         ;"7/  $1"
011176:  202516000000  movem    l, (16)         ;"05.   " " Tp\0\0"
011177:  271440000005  addi     f, lolin        ;"7,@  %"
011200:  367300011166  sojg     p, 11166        ;">[ !)V"
011201:  254020011160  jrst     @11160          ;"5@0!)P"
011202:  550354000000  hrrz     i, (j)          ;"M#L   "
011203:  202340012044  movem    i, 12044        ;"03@!0D"
011204:  661540002000  tlo      k, %kmode       ;"V-@ 0 "
011205:  260740011111  pushj    q, 11111        ;"6'@!))"
011206:  205700000040  movsi    16, %order      ;"0O   @"
011207:  436711000000  iorm     16, (f)         ;"CW)   " "G\\H\0\0"
011210:  254000011216  jrst     11216           ;"5@ !*."
011211:  336440011220  skipn    f, 11220        ;";T@!*0"
011212:  254000011106  jrst     11106           ;"5@ !)&"
011213:  200700012044  move     16, 12044       ;"0' !0D"
011214:  603540002000  tlne     k, %kmode       ;"P=@ 0 "
011215:  552711000001  hrrzm    16, fncn(f)     ;"M7)  !"
011216:  260740011221  pushj    q, 11221        ;"6'@!*1"
011217:  254000011106  jrst     11106           ;"5@ !)&"
011220:  000000000000                           ;"      "
011221:  550440011010  hrrz     f, $i           ;"M$@!(("
011222:  307440000017  caig     f, q            ;"8\@  /"
011223:  271440000421  addi     f, 421          ;"7,@ $1"
011224:  202440012056  movem    f, 12056        ;"04@!0N"
011225:  200460012056  move     f, @12056       ;"0$P!0N"
011226:  260740011377  pushj    q, 11377        ;"6'@!+_"
011227:  315440012245  camge    f, 12245        ;"9L@!2E"
011230:  315440012354  camge    f, 12354        ;"9L@!3L"
011231:  254000011313  jrst     11313           ;"5@ !++"
011232:  135440012127  ldb      f, 12127        ;"+L@!17"
011233:  301440000321  cail     f, 321          ;"8,@ #1"
011234:  254000011451  jrst     11451           ;"5@ !,I"
011235:  306440000243  cain     f, 243          ;"8T@ "C"
011236:  254000011262  jrst     11262           ;"5@ !*R"
011237:  305440000252  caige    f, 252          ;"8L@ "J"
011240:  254000011313  jrst     11313           ;"5@ !++"
011241:  301440000270  cail     f, 270          ;"8,@ "X"
011242:  254000011313  jrst     11313           ;"5@ !++"
011243:  254031010772  jrst     @10772(f)       ;"5@9!'Z"
011244:  000000011262                           ;"   !*R"
011245:  000000011262                           ;"   !*R"
011246:  000000011276                           ;"   !*^"
011247:  000000011262                           ;"   !*R"
011250:  000000011531                           ;"   !-9"
011251:  000000011313                           ;"   !++"
011252:  000000011507                           ;"   !-'"
011253:  000000011313                           ;"   !++"
011254:  000000011313                           ;"   !++"
011255:  000000011520                           ;"   !-0"
011256:  000000011454                           ;"   !,L"
011257:  000000011463                           ;"   !,S"
011260:  000000011473                           ;"   !,["
011261:  000000011262                           ;"   !*R"
011262:  260740011377  pushj    q, 11377        ;"6'@!+_"
011263:  621440000037  tlz      f, jobd17       ;"R,@  ?"
011264:  541440011273  hrri     f, 11273        ;"L,@!*["
011265:  202440011267  movem    f, 11267        ;"04@!*W"
011266:  264000011372  jsr      11372           ;"6@ !+Z"
011267:  000000000000                           ;"      "
011270:  264000011365  jsr      11365           ;"6@ !+U"
011271:  350000011010  aos      $i              ;"=  !(("
011272:  263740000000  popj     q,              ;"6?@   "
011273:  264000011365  jsr      11365           ;"6@ !+U"
011274:  542340011010  hrrm     i, $i           ;"L3@!(("
011275:  263740000000  popj     q,              ;"6?@   "
011276:  260740011377  pushj    q, 11377        ;"6'@!+_"
011277:  607440000100  tlnn     f, %displ       ;"P\@ ! "
011300:  254000011263  jrst     11263           ;"5@ !*S"
011301:  607440000020  tlnn     f, qpds         ;"P\@  0"
011302:  254000011263  jrst     11263           ;"5@ !*S"
011303:  621440000017  tlz      f, q            ;"R,@  /"
011304:  541440011450  hrri     f, 11450        ;"L,@!,H"
011305:  202440011267  movem    f, 11267        ;"04@!*W"
011306:  200440011450  move     f, 11450        ;"0$@!,H"
011307:  621440000037  tlz      f, jobd17       ;"R,@  ?"
011310:  541440011273  hrri     f, 11273        ;"L,@!*["
011311:  202440011450  movem    f, 11450        ;"04@!,H"
011312:  254000011266  jrst     11266           ;"5@ !*V"
011313:  200460012056  move     f, @12056       ;"0$P!0N"
011314:  402000012055  setzm    12055           ;"@0 !0M"
011315:  135500012127  ldb      l, 12127        ;"+M !17"
011316:  306500000041  cain     l, job41        ;"8U   A"
011317:  254000011335  jrst     11335           ;"5@ !+="
011320:  305500000100  caige    l, %displ       ;"8M  ! "
011321:  254000011346  jrst     11346           ;"5@ !+F"
011322:  264000011372  jsr      11372           ;"6@ !+Z"
011323:  256020011010  xct      @$i             ;"5P0!(("
011324:  350000012055  aos      12055           ;"=  !0M"
011325:  350000012055  aos      12055           ;"=  !0M"
011326:  350000012055  aos      12055           ;"=  !0M"
011327:  264000011365  jsr      11365           ;"6@ !+U"
011330:  201500000004  movei    l, hilin        ;"0-   $"
011331:  270500011010  add      l, $i           ;"7% !(("
011332:  274500012055  sub      l, 12055        ;"7E !0M"
011333:  542500011010  hrrm     l, $i           ;"L5 !(("
011334:  263740000000  popj     q,              ;"6?@   "
011335:  204440012056  movs     f, 12056        ;"0D@!0N"
011336:  541440011341  hrri     f, 11341        ;"L,@!+A"
011337:  251440011343  blt      f, 11343        ;"5,@!+C"
011340:  264000011372  jsr      11372           ;"6@ !+Z"
011341:  000000000000                           ;"      "
011342:  000000000000                           ;"      "
011343:  000000000000                           ;"      "
011344:  350000012055  aos      12055           ;"=  !0M"
011345:  254000011327  jrst     11327           ;"5@ !+7"
011346:  305500000040  caige    l, %order       ;"8M   @"
011347:  254000011356  jrst     11356           ;"5@ !+N"
011350:  261740000011  push     q, f            ;"6/@  )"
011351:  264000010770  jsr      10770           ;"6@ !'X"
011352:  262760012056  pop      q, @12056       ;"67P!0N"
011353:  260740011322  pushj    q, 11322        ;"6'@!+2"
011354:  264000011160  jsr      11160           ;"6@ !)P"
011355:  263740000000  popj     q,              ;"6?@   "
011356:  322500011322  jumpe    l, 11322        ;":5 !+2"
011357:  540440000007  hrr      f, i            ;"L$@  '"
011360:  621440000037  tlz      f, jobd17       ;"R,@  ?"
011361:  202440000040  movem    f, %order       ;"04@  @"
011362:  201340000041  movei    i, job41        ;"0+@  A"
011363:  202340012056  movem    i, 12056        ;"03@!0N"
011364:  254000011225  jrst     11225           ;"5@ !*5"
011365:  000000000000                           ;"      "
011366:  264000002061  jsr      2061            ;"6@  0Q"
011367:  500500011365  hll      l, 11365        ;"H% !+U"
011370:  502500011010  hllm     l, $i           ;"H5 !(("
011371:  254020011365  jrst     @11365          ;"5@0!+U"
011372:  000000011323                           ;"   !+3"
011373:  200500011010  move     l, $i           ;"0% !(("
011374:  502500011372  hllm     l, 11372        ;"H5 !+Z"
011375:  264000002105  jsr      2105            ;"6@  1%"
011376:  254120011372  jrstf    @11372          ;"5A0!+Z"
011377:  200460012056  move     f, @12056       ;"0$P!0N"
011400:  550340000011  hrrz     i, f            ;"M#@  )"
011401:  135500012276  ldb      l, 12276        ;"+M !2^"
011402:  322500011405  jumpe    l, 11405        ;":5 !,%"
011403:  270352000421  add      i, 421(l)       ;"7#J $1"
011404:  553000000007  hrrzs    ufdc, i         ;"M8   '"
011405:  607440000020  tlnn     f, qpds         ;"P\@  0"
011406:  254000011413  jrst     11413           ;"5@ !,+"
011407:  307340000017  caig     i, q            ;"8[@  /"
011410:  271340000421  addi     i, 421          ;"7+@ $1"
011411:  200447000000  move     f, (i)          ;"0$G   "
011412:  254000011400  jrst     11400           ;"5@ !, "
011413:  202440011450  movem    f, 11450        ;"04@!,H"
011414:  200460012056  move     f, @12056       ;"0$P!0N"
011415:  263740000000  popj     q,              ;"6?@   "
$sbp:
011416:  000000000000                           ;"      "
011417:  264000002061  jsr      2061            ;"6@  0Q"
011420:  264000002135  jsr      2135            ;"6@  1="
011421:  264000011160  jsr      11160           ;"6@ !)P"
011422:  661540002000  tlo      k, %kmode       ;"V-@ 0 "
011423:  550700011416  hrrz     16, $sbp        ;"M' !,."
011424:  135700012302  ldb      16, 12302       ;"+O !3""
011425:  550716000421  hrrz     16, 421(16)     ;"M'. $1"
011426:  202700012044  movem    16, 12044       ;"07 !0D"
011427:  260740011111  pushj    q, 11111        ;"6'@!))"
011430:  264000010770  jsr      10770           ;"6@ !'X"
011431:  264000002105  jsr      2105            ;"6@  1%"
011432:  254120011416  jrstf    @$sbp           ;"5A0!,."
$rbp:
011433:  000000000000                           ;"      "
011434:  264000002061  jsr      2061            ;"6@  0Q"
011435:  264000002135  jsr      2135            ;"6@  1="
011436:  264000011160  jsr      11160           ;"6@ !)P"
011437:  661540002000  tlo      k, %kmode       ;"V-@ 0 "
011440:  550700011433  hrrz     16, $rbp        ;"M' !,;"
011441:  135700012302  ldb      16, 12302       ;"+O !3""
011442:  550716000421  hrrz     16, 421(16)     ;"M'. $1"
011443:  202700012044  movem    16, 12044       ;"07 !0D"
011444:  260740011140  pushj    q, 11140        ;"6'@!)@"
011445:  264000010770  jsr      10770           ;"6@ !'X"
011446:  264000002105  jsr      2105            ;"6@  1%"
011447:  254120011433  jrstf    @$rbp           ;"5A0!,;"
011450:  047000000012  exit                     ;"$X   *"
011451:  602440000010  trne     f, lasuuo       ;"P4@  ("
011452:  254000011313  jrst     11313           ;"5@ !++"
011453:  254000011262  jrst     11262           ;"5@ !*R"
011454:  260740011377  pushj    q, 11377        ;"6'@!+_"
011455:  350500011010  aos      l, $i           ;"=% !(("
011456:  303340000017  caile    i, q            ;"8;@  /"
011457:  334700000007  skipa    16, i           ;";G   '"
011460:  201707000421  movei    16, 421(i)      ;"0/' $1"
011461:  202516000000  movem    l, (16)         ;"05.   " " Tp\0\0"
011462:  344340011467  aoja     i, 11467        ;"<C@!,W"
011463:  260740011377  pushj    q, 11377        ;"6'@!+_"
011464:  350500011010  aos      l, $i           ;"=% !(("
011465:  135700012227  ldb      16, 12227       ;"+O !27"
011466:  202516000421  movem    l, 421(16)      ;"05. $1"
011467:  500340011010  hll      i, $i           ;"H#@!(("
011470:  621340020000  tlz      i, %rrufd       ;"R+@"  "
011471:  202340011010  movem    i, $i           ;"03@!(("
011472:  263740000000  popj     q,              ;"6?@   "
011473:  260740011377  pushj    q, 11377        ;"6'@!+_"
011474:  350500011010  aos      l, $i           ;"=% !(("
011475:  135700012227  ldb      16, 12227       ;"+O !27"
011476:  200656000421  move     ntpcw, 421(16)  ;"0&N $1"
011477:  303340000017  caile    i, q            ;"8;@  /"
011500:  334300000007  skipa    p, i            ;";C   '"
011501:  201307000421  movei    p, 421(i)       ;"0+' $1"
011502:  504500000007  hrl      l, i            ;"HE   '"
011503:  202516000421  movem    l, 421(16)      ;"05. $1"
011504:  202646000000  movem    ntpcw, (p)      ;"06F   " " Z0\0\0"
011505:  500340011010  hll      i, $i           ;"H#@!(("
011506:  344340011471  aoja     i, 11471        ;"<C@!,Y"
011507:  260740011377  pushj    q, 11377        ;"6'@!+_"
011510:  350500011010  aos      l, $i           ;"=% !(("
011511:  202500011267  movem    l, 11267        ;"05 !*W"
011512:  135500012227  ldb      l, 12227        ;"+M !27"
011513:  137500012122  dpb      l, 12122        ;"+] !12"
011514:  264000011372  jsr      11372           ;"6@ !+Z"
011515:  261740011267  push     q, 11267        ;"6/@!*W"
011516:  264000011365  jsr      11365           ;"6@ !+U"
011517:  254000011467  jrst     11467           ;"5@ !,W"
011520:  200460012056  move     f, @12056       ;"0$P!0N"
011521:  135500012227  ldb      l, 12227        ;"+M !27"
011522:  137500012121  dpb      l, 12121        ;"+] !11"
011523:  264000011372  jsr      11372           ;"6@ !+Z"
011524:  262740011267  pop      q, 11267        ;"67@!*W"
011525:  264000011365  jsr      11365           ;"6@ !+U"
011526:  200340011267  move     i, 11267        ;"0#@!*W"
011527:  542340011010  hrrm     i, $i           ;"L3@!(("
011530:  263740000000  popj     q,              ;"6?@   "
011531:  260740011377  pushj    q, 11377        ;"6'@!+_"
011532:  307340000017  caig     i, q            ;"8[@  /"
011533:  271340000421  addi     i, 421          ;"7+@ $1"
011534:  202340012056  movem    i, 12056        ;"03@!0N"
011535:  254000011225  jrst     11225           ;"5@ !*5"
011536:  260740011221  pushj    q, 11221        ;"6'@!*1"
011537:  200700011010  move     16, $i          ;"0' !(("
011540:  552700012044  hrrzm    16, 12044       ;"M7 !0D"
011541:  254000011066  jrst     11066           ;"5@ !(V"
011542:  200440000214  move     f, 214          ;"0$@ ","
011543:  607400001000  tlnn     ii, nfiles      ;"P\  ( "
011544:  254000007242  jrst     7242            ;"5@  ZB"
011545:  542440011010  hrrm     f, $i           ;"L4@!(("
011546:  254000011536  jrst     11536           ;"5@ !->"
011547:  135500012127  ldb      l, 12127        ;"+M !17"
011550:  302500000264  caie     l, 264          ;"85  "T"
011551:  306500000260  cain     l, 260          ;"8U  "P"
011552:  350017000000  aos      (q)             ;"= /   "
011553:  302500000265  caie     l, 265          ;"85  "U"
011554:  306500000266  cain     l, 266          ;"8U  "V"
011555:  350017000000  aos      (q)             ;"= /   "
011556:  307500000037  caig     l, jobd17       ;"8]   ?"
011557:  350017000000  aos      (q)             ;"= /   "
011560:  263740000000  popj     q,              ;"6?@   "
011561:  200440000214  move     f, 214          ;"0$@ ","
011562:  607400001000  tlnn     ii, nfiles      ;"P\  ( "
011563:  254000007242  jrst     7242            ;"5@  ZB"
011564:  542440011010  hrrm     f, $i           ;"L4@!(("
011565:  550440011010  hrrz     f, $i           ;"M$@!(("
011566:  307440000017  caig     f, q            ;"8\@  /"
011567:  271440000421  addi     f, 421          ;"7,@ $1"
011570:  202440012056  movem    f, 12056        ;"04@!0N"
011571:  200451000000  move     f, (f)          ;"0$I   "
011572:  260740011547  pushj    q, 11547        ;"6'@!-G"
011573:  254000011536  jrst     11536           ;"5@ !->"
011574:  202440011647  movem    f, 11647        ;"04@!.G"
011575:  260740011636  pushj    q, 11636        ;"6'@!.>"
011576:  200700011010  move     16, $i          ;"0' !(("
011577:  552700012044  hrrzm    16, 12044       ;"M7 !0D"
011600:  260740011066  pushj    q, 11066        ;"6'@!(V"
011601:  254000007172  jrst     7172            ;"5@  YZ"
011602:  607540002000  tlnn     k, %kmode       ;"P]@ 0 "
011603:  254000007242  jrst     7242            ;"5@  ZB"
011604:  200440012044  move     f, 12044        ;"0$@!0D"
011605:  202440011647  movem    f, 11647        ;"04@!.G"
011606:  260740011547  pushj    q, 11547        ;"6'@!-G"
011607:  334000000000  skipa                    ;";@    " "7\0\0\0\0"
011610:  254000011623  jrst     11623           ;"5@ !.3"
011611:  261740011010  push     q, $i           ;"6/@!(("
011612:  201500011647  movei    l, 11647        ;"0- !.G"
011613:  542500011010  hrrm     l, $i           ;"L5 !(("
011614:  260740011221  pushj    q, 11221        ;"6'@!*1"
011615:  550440011010  hrrz     f, $i           ;"M$@!(("
011616:  275440011647  subi     f, 11647        ;"7L@!.G"
011617:  260740011734  pushj    q, 11734        ;"6'@!/<"
011620:  262740000011  pop      q, f            ;"67@  )"
011621:  542440011010  hrrm     f, $i           ;"L4@!(("
011622:  263740000000  popj     q,              ;"6?@   "
011623:  200500011705  move     l, 11705        ;"0% !/%"
011624:  261500011010  push     l, $i           ;"6- !(("
011625:  202500011705  movem    l, 11705        ;"05 !/%"
011626:  260740011636  pushj    q, 11636        ;"6'@!.>"
011627:  550440011010  hrrz     f, $i           ;"M$@!(("
011630:  275472000000  subi     f, @(l)         ;"7LZ   " "/3P\0\0"
011631:  260740011734  pushj    q, 11734        ;"6'@!/<"
011632:  262500000011  pop      l, f            ;"65   )"
011633:  202500011705  movem    l, 11705        ;"05 !/%"
011634:  542440011010  hrrm     f, $i           ;"L4@!(("
011635:  254000007172  jrst     7172            ;"5@  YZ"
011636:  264000010770  jsr      10770           ;"6@ !'X"
011637:  200500011705  move     l, 11705        ;"0% !/%"
011640:  261500012054  push     l, 12054        ;"6- !0L"
011641:  262740000011  pop      q, f            ;"67@  )"
011642:  506452000000  hrlm     f, (l)          ;"HTJ   " "QRP\0\0"
011643:  202500011705  movem    l, 11705        ;"05 !/%"
011644:  201440000010  movei    f, lasuuo       ;"0,@  ("
011645:  202440012054  movem    f, 12054        ;"04@!0L"
011646:  264000011372  jsr      11372           ;"6@ !+Z"
011647:  047000000012  exit                     ;"$X   *"
011650:  370000012054  sos      12054           ;"?  !0L"
011651:  370000012054  sos      12054           ;"?  !0L"
011652:  370000012054  sos      12054           ;"?  !0L"
011653:  370000012054  sos      12054           ;"?  !0L"
011654:  370000012054  sos      12054           ;"?  !0L"
011655:  370000012054  sos      12054           ;"?  !0L"
011656:  370000012054  sos      12054           ;"?  !0L"
011657:  370000012054  sos      12054           ;"?  !0L"
011660:  264000011365  jsr      11365           ;"6@ !+U"
011661:  264000011160  jsr      11160           ;"6@ !)P"
011662:  200440011647  move     f, 11647        ;"0$@!.G"
011663:  135340012227  ldb      i, 12227        ;"+K@!27"
011664:  260740011400  pushj    q, 11400        ;"6'@!, "
011665:  350500012054  aos      l, 12054        ;"=% !0L"
011666:  272500011010  addm     l, $i           ;"75 !(("
011667:  200500011705  move     l, 11705        ;"0% !/%"
011670:  262500000011  pop      l, f            ;"65   )"
011671:  202500011705  movem    l, 11705        ;"05 !/%"
011672:  542440012054  hrrm     f, 12054        ;"L4@!0L"
011673:  207000000011  movss    ufdc, f         ;"0X   )"
011674:  254011000000  jrst     (f)             ;"5@)   "
011675:  000000000000                           ;"      "
011676:  000000000000                           ;"      "
011677:  000000000000                           ;"      "
011700:  000000000000                           ;"      "
011701:  000000000000                           ;"      "
011702:  000000000000                           ;"      "
011703:  000000000000                           ;"      "
011704:  000000000000                           ;"      "
011705:  777770011674  conso    774, @11674(ii) ;"__X!.\"
011706:  000000000000                           ;"      "
011707:  000000000000                           ;"      "
011710:  607540002000  tlnn     k, %kmode       ;"P]@ 0 "
011711:  254000007242  jrst     7242            ;"5@  ZB"
011712:  200440012044  move     f, 12044        ;"0$@!0D"
011713:  202440011723  movem    f, 11723        ;"04@!/3"
011714:  260740011547  pushj    q, 11547        ;"6'@!-G"
011715:  334000000000  skipa                    ;";@    " "7\0\0\0\0"
011716:  254000011602  jrst     11602           ;"5@ !.""
011717:  201500000002  movei    l, chnl         ;"0-   ""
011720:  202500011733  movem    l, 11733        ;"05 !/;"
011721:  264000010770  jsr      10770           ;"6@ !'X"
011722:  264000011372  jsr      11372           ;"6@ !+Z"
011723:  000000000000                           ;"      "
011724:  370000011733  sos      11733           ;"?  !/;"
011725:  370000011733  sos      11733           ;"?  !/;"
011726:  264000011365  jsr      11365           ;"6@ !+U"
011727:  264000011160  jsr      11160           ;"6@ !)P"
011730:  332440011733  skipe    f, 11733        ;";4@!/;"
011731:  260740011735  pushj    q, 11735        ;"6'@!/="
011732:  254000007172  jrst     7172            ;"5@  YZ"
011733:  000000000000                           ;"      "
011734:  363440001424  sojle    f, 1424         ;"><@ ,4"
011735:  242440000001  lsh      f, a            ;"44@  !"
011736:  270440012357  add      f, 12357        ;"7$@!3O"
011737:  606440000034  trnn     f, jobd14       ;"PT@  <"
011740:  421440000376  andcmi   f, 376          ;"B,@ #^"
011741:  202440004375  movem    f, 4375         ;"04@ C]"
011742:  263740000000  popj     q,              ;"6?@   "
011743:  607540002000  tlnn     k, %kmode       ;"P]@ 0 "
011744:  254000011755  jrst     11755           ;"5@ !/M"
011745:  200440012044  move     f, 12044        ;"0$@!0D"
011746:  202440012053  movem    f, $rptcn       ;"04@!0K"
011747:  254000011755  jrst     11755           ;"5@ !/M"
011750:  602100000001  trne     b, fncn         ;"P1   !"
011751:  350000011706  aos      11706           ;"=  !/&"
011752:  260740011536  pushj    q, 11536        ;"6'@!->"
011753:  375000012053  sosge    $rptcn          ;"?H !0K"
011754:  260740004452  pushj    q, 4452         ;"6'@ DJ"
011755:  550440011010  hrrz     f, $i           ;"M$@!(("
011756:  200700000011  move     16, f           ;"0'   )"
011757:  202440012044  movem    f, 12044        ;"04@!0D"
011760:  307440000017  caig     f, q            ;"8\@  /"
011761:  271440000421  addi     f, 421          ;"7,@ $1"
011762:  202440012056  movem    f, 12056        ;"04@!0N"
011763:  200451000000  move     f, (f)          ;"0$I   "
011764:  202440011647  movem    f, 11647        ;"04@!.G"
011765:  260740011547  pushj    q, 11547        ;"6'@!-G"
011766:  254000011775  jrst     11775           ;"5@ !/]"
011767:  336000011706  skipn    11706           ;";P !/&"
011770:  254000012004  jrst     12004           ;"5@ !0$"
011771:  260740011066  pushj    q, 11066        ;"6'@!(V"
011772:  331000011706  skipl    11706           ;";( !/&"
011773:  254000011752  jrst     11752           ;"5@ !/J"
011774:  254000012036  jrst     12036           ;"5@ !0>"
011775:  302500000263  caie     l, 263          ;"85  "S"
011776:  306500000267  cain     l, 267          ;"8U  "W"
011777:  254000012003  jrst     12003           ;"5@ !0#"
012000:  306500000254  cain     l, 254          ;"8U  "L"
012001:  607440000020  tlnn     f, qpds         ;"P\@  0"
012002:  254000012005  jrst     12005           ;"5@ !0%"
012003:  336000011707  skipn    11707           ;";P !/'"
012004:  661400000001  tlo      ii, fncn        ;"V,   !"
012005:  260740011066  pushj    q, 11066        ;"6'@!(V"
012006:  607400000001  tlnn     ii, fncn        ;"P\   !"
012007:  254000012040  jrst     12040           ;"5@ !0@"
012010:  261740000616  push     q, 616          ;"6/@ &."
012011:  261740012255  push     q, 12255        ;"6/@!2M"
012012:  262740000616  pop      q, 616          ;"67@ &."
012013:  260740004452  pushj    q, 4452         ;"6'@ DJ"
012014:  260740000646  pushj    q, 646          ;"6'@ &F"
012015:  260740004704  pushj    q, 4704         ;"6'@ G$"
012016:  262740000616  pop      q, 616          ;"67@ &."
012017:  660400004000  tro      ii, %xtsrt      ;"V$  @ "
012020:  602100000002  trne     b, chnl         ;"P1   ""
012021:  476000011707  setom    11707           ;"GP !/'"
012022:  602100000001  trne     b, fncn         ;"P1   !"
012023:  402000011706  setzm    11706           ;"@0 !/&"
012024:  306140000123  cain     c, jobexm       ;"8Q@ !3"
012025:  254000011750  jrst     11750           ;"5@ !/H"
012026:  302140000130  caie     c, jobopc       ;"81@ !8"
012027:  254000007172  jrst     7172            ;"5@  YZ"
012030:  620400004000  trz      ii, %xtsrt      ;"R$  @ "
012031:  602100000001  trne     b, fncn         ;"P1   !"
012032:  476000011706  setom    11706           ;"GP !/&"
012033:  200460012056  move     f, @12056       ;"0$P!0N"
012034:  260740011547  pushj    q, 11547        ;"6'@!-G"
012035:  254000011752  jrst     11752           ;"5@ !/J"
012036:  260740011636  pushj    q, 11636        ;"6'@!.>"
012037:  254000011753  jrst     11753           ;"5@ !/K"
012040:  051100000000  inchrs   ufdc            ;"%)    " "\n$\0\0\0"
012041:  254000011752  jrst     11752           ;"5@ !/J"
012042:  660400004000  tro      ii, %xtsrt      ;"V$  @ "
012043:  254000007172  jrst     7172            ;"5@  YZ"
012044:  047000000012  exit                     ;"$X   *"
012045:  000003676626  c,,                      ;"  #WV6"
012046:  206530000000  movsm    l, @(ii)        ;"0U8   " "!U@\0\0"
012047:  047000000012  exit                     ;"$X   *"
012050:  000520050023                           ;" %0% 3"
012051:  000000000000                           ;"      "
012052:  457051640000  orcab    a, 640000(f)    ;"EXIT  " "KbN@\0"
$rptcn:
012053:  000000000000                           ;"      "
012054:  000000000000                           ;"      "
012055:  000000000000                           ;"      "
012056:  000000011647                           ;"   !.G"
012057:  777777777777  conso    774, @777777(q) ;"______"
012060:  000000000000                           ;"      "
012061:  000000000000                           ;"      "
012062:  000000000000                           ;"      "
012063:  000000000000                           ;"      "
012064:  000000000000                           ;"      "
012065:  000215417546                           ;" "-A]F"
012066:  000000000000                           ;"      "
012067:  000000000000                           ;"      "
012070:  000000000000                           ;"      "
012071:  000000000000                           ;"      "
012072:  000000000000                           ;"      "
012073:  777777777777  conso    774, @777777(q) ;"______"
012074:  000700002424                           ;" '  44"
012075:  000000000000                           ;"      "
012076:  775520047305  blko     754, @47305     ;"_M0$[%"
012077:  000000000000                           ;"      "
012100:  000000000442                           ;"    $B"
012101:  350614000000  aos      j, (j)          ;"=&,   "
012102:  000000000577                           ;"    %_"
012103:  777600000220  cono     774, 220        ;"_^  "0"
012104:  462140000001  setcmm   c, a            ;"F1@  !"
012105:  000000005434                           ;"    L<"
012106:  000000005502                           ;"    M""
012107:  000000005533                           ;"    M;"
012110:  000000000000                           ;"      "
012111:  000000000000                           ;"      "
012112:  000000000603                           ;"    &#"
012113:  000603000000                           ;" &#   "
012114:  000442000443                           ;" $B $C"
012115:  000002000004  b,,                      ;"  "  $"
012116:  270714000000  add      16, (j)         ;"7',   "
012117:  572521505000  hrrem    l, @505000(a)   ;"O51HH " "^U\r\n\0"
012120:  000142003266                           ;" !B :V"
012121:  270400011524  add      ii, 11524       ;"7$ !-4"
012122:  270400011515  add      ii, 11515       ;"7$ !--"
012123:  301340400000  cail     i, 400000       ;"8+@@  "
012124:  303360000115  caile    i, @jobhrl      ;"8;P !-"
012125:  254000007242  jrst     7242            ;"5@  ZB"
012126:  254020007561  jrst     @7561           ;"5@0 ]Q"
012127:  331100000011  skipl    b, f            ;";)   )"
012130:  000200006071  %nook,,                  ;" "  PY"
012131:  416440000001  setmm    f, a            ;"AT@  !"
012132:  204600000172  movs     j, 172          ;"0F  !Z"
012133:  254000010224  jrst     10224           ;"5@ !"4"
012134:  554451000000  hlrz     f, (f)          ;"MDI   "
012135:  254000010063  jrst     10063           ;"5@ ! S"
012136:  666540000002  tron     k, chnl         ;"VU@  ""
012137:  254000007724  jrst     7724            ;"5@  _4"
012140:  254000007242  jrst     7242            ;"5@  ZB"
012141:  310000006617  cam      ufdc, 6617      ;"9   V/"
012142:  200640000016  move     ntpcw, 16       ;"0&@  ."
012143:  602640000077  trne     ntpcw, 77       ;"P6@  _"
012144:  254020012141  jrst     @12141          ;"5@0!1A"
012145:  242640777772  lsh      ntpcw, 777772   ;"46@__Z"
012146:  254000012143  jrst     12143           ;"5@ !1C"
012147:  460640000012  setcm    ntpcw, l        ;"F&@  *"
012150:  602640774000  trne     ntpcw, 774000   ;"P6@_@ "
012151:  254000005633  jrst     5633            ;"5@  N;"
012152:  260740005233  pushj    q, 5233         ;"6'@ J;"
012153:  254000005630  jrst     5630            ;"5@  N8"
012154:  200300000016  move     p, 16           ;"0#   ."
012155:  135700012447  ldb      16, 12447       ;"+O !4G"
012156:  242700000002  lsh      16, b           ;"47   ""
012157:  322300005306  jumpe    p, 5306         ;":3  K&"
012160:  260740005504  pushj    q, 5504         ;"6'@ M$"
012161:  254000005310  jrst     5310            ;"5@  K("
012162:  641700777000  tlc      16, 777000      ;"T/ _X "
012163:  254000005624  jrst     5624            ;"5@  N4"
012164:  641700777777  tlc      16, 777777      ;"T/ ___"
012165:  254000005624  jrst     5624            ;"5@  N4"
012166:  436500012070  iorm     l, 12070        ;"CU !0X"
012167:  254000005171  jrst     5171            ;"5@  IY"
012170:  200716000000  move     16, (16)        ;"0'.   "
012171:  204716000000  movs     16, (16)        ;"0G.   "
012172:  254000012234  jrst     12234           ;"5@ !2<"
012173:  301700400000  cail     16, 400000      ;"8/ @  "
012174:  303720000115  caile    16, @jobhrl     ;"8?0 !-"
012175:  334517000000  skipa    l, (q)          ;";E/   "
012176:  254000004575  jrst     4575            ;"5@  E]"
012177:  200700012262  move     16, 12262       ;"0' !2R"
012200:  200340012074  move     i, 12074        ;"0#@!0\"
012201:  202707000001  movem    16, fncn(i)     ;"07'  !"
012202:  271340000001  addi     i, fncn         ;"7+@  !"
012203:  254000004604  jrst     4604            ;"5@  F$"
012204:  405440000774  andi     f, 774          ;"@L@ '\"
012205:  242440000030  lsh      f, 30           ;"44@  8"
012206:  254000002021  jrst     2021            ;"5@  01"
012207:  242300000006  lsh      p, p            ;"43   &"
012210:  621300700377  tlz      p, 700377       ;"R+ X#_"
012211:  254000002002  jrst     2002            ;"5@  0""
012212:  260740000613  pushj    q, 613          ;"6'@ &+"
012213:  312140000007  came     c, i            ;"91@  '"
012214:  254000012212  jrst     12212           ;"5@ !2*"
012215:  254000001241  jrst     1241            ;"5@  *A"
012216:  660400010000  tro      ii, %ddels      ;"V$ !  "
012217:  261740012255  push     q, 12255        ;"6/@!2M"
012220:  262740000616  pop      q, 616          ;"67@ &."
012221:  254000000620  jrst     620             ;"5@  &0"
012222:  400400000005  setz     ii, e           ;"@$   %"
012223:  301700400000  cail     16, 400000      ;"8/ @  "
012224:  303720000115  caile    16, @jobhrl     ;"8?0 !-"
012225:  201700000000  movei    16, ufdc        ;"0/    " " <\0\0\0"
012226:  254000005100  jrst     5100            ;"5@  I "
012227:  270400000011  add      ii, f           ;"7$   )"
012230:  000200000006  %nook,,                  ;" "   &"
012231:  410306002246  andca    p, 2246(p)      ;"A#& 2F"
012232:  270300000016  add      p, 16           ;"7#   ."
012233:  270400000012  add      ii, l           ;"7$   *"
012234:  200456000000  move     f, (16)         ;"0$N   "
012235:  261740000007  push     q, i            ;"6/@  '"
012236:  260740011400  pushj    q, 11400        ;"6'@!, "
012237:  200700000007  move     16, i           ;"0'   '"
012240:  262740000007  pop      q, i            ;"67@  '"
012241:  254000005103  jrst     5103            ;"5@  I#"
012242:  004400001513                           ;" D  -+"
012243:  002333003372                           ;" 3; ;Z"
012244:  000300000006                           ;" #   &"
012245:  370000000000  sos      ufdc            ;"?     " ">\0\0\0\0"
012246:  175631463146  fdvri    j, @463146(f)   ;"/N9F9F"
012247:  000001400000  a,,                      ;"  !@  "
012250:  600030401146  trn      ufdc, @401146(ii);"P 8@)F"
012251:  130600000011                           ;"+&   )"
012252:  201012520001  movei    ufdc, 520001(l) ;"0(*J !"
012253:  010511777775                           ;"!%)__]"
012254:  406312400001  andm     p, 400001(l)    ;"@S*@ !"
012255:  051000000003  inchrw   c               ;"%(   #"
012256:  777777777600  conso    774, @777600(q) ;"____^ "
012257:  002333003402                           ;" 3; <""
012260:  264000011010  jsr      $i              ;"6@ !(("
012261:  271414000000  addi     ii, (j)         ;"7,,   " ".0`\0\0"
012262:  375767700001  sosge    q, @700001(i)   ;"?OWX !"
012263:  000527000530                           ;" %7 %8"
012264:  220400000007  imul     ii, i           ;"2$   '"
012265:  270317000000  add      p, (q)          ;"7#/   " ".\fx\0\0"
012266:  301500400000  cail     l, 400000       ;"8- @  "
012267:  303520000115  caile    l, @jobhrl      ;"8=0 !-"
012270:  263740000000  popj     q,              ;"6?@   "
012271:  254000010552  jrst     10552           ;"5@ !%J"
012272:  440700000006  andcb    16, p           ;"D'   &"
012273:  140400000011  fad      ii, f           ;",$   )"
012274:  060600000441  setsts   j, 441          ;"&&  $A"
012275:  070200000003  close    d, c            ;"'"   #"
012276:  220400000011  imul     ii, f           ;"2$   )"
012277:  220400000012  imul     ii, l           ;"2$   *"
012300:  202340012051  movem    i, 12051        ;"03@!0I"
012301:  254000001323  jrst     1323            ;"5@  +3"
012302:  270416777777  add      ii, 777777(16)  ;"7$.___"
012303:  000000000047                           ;"     G"
012304:  000000000047                           ;"     G"
012305:  000000000042  joberr                   ;"     B"
012306:  000000000042  joberr                   ;"     B"
012307:  000000000047                           ;"     G"
012310:  000000000042  joberr                   ;"     B"
012311:  202371320101  movem    i, @320101(f)   ;"03Y:!!"
012312:  440700000442  andcb    16, 442         ;"D'  $B"
012313:  302140000055  caie     c, 55           ;"81@  M"
012314:  263740000000  popj     q,              ;"6?@   "
012315:  201300000000  movei    p, ufdc         ;"0+    " " ,\0\0\0"
012316:  661000000040  tlo      ufdc, %order    ;"V(   @"
012317:  254000001641  jrst     1641            ;"5@  .A"
012320:  051200000003  inchwl   c               ;"%*   #"
012321:  000505000506                           ;" %% %&"
012322:  004016000000                           ;" @.   "
012323:  502532242576  hllm     l, @242576(l)   ;"H5:45^" "PURE?"
012324:  400000000001  setz     ufdc, a         ;"@    !"
012325:  522030200001  hllom    ufdc, @200001(ii);"J080 !"
012326:  400416000000  setz     ii, (16)        ;"@$.   "
012327:  001000000000                           ;" (    "
012330:  000700000005                           ;" '   %"
012331:  201244020101  movei    e, 20101(d)     ;"0*D"!!"
012332:  320712002246  jump     16, 2246(l)     ;":'* 2F"
012333:  201764020101  movei    q, @20101(d)    ;"0/T"!!"
012334:  440600012052  andcb    j, 12052        ;"D& !0J"
012335:  360600000011  soj      j, f            ;">&   )"
012336:  000005000002  e,,                      ;"  %  ""
012337:  000000000055                           ;"     M"
012340:  260700002340  pushj    16, 2340        ;"6'  3@"
012341:  000000777777                           ;"   ___"
012342:  000000002347                           ;"    3G"
012343:  000003000003  c,,                      ;"  #  #"
012344:  000000002350                           ;"    3H"
012345:  017573520526                           ;"!][J%6"
012346:  000001000001  a,,                      ;"  !  !"
012347:  000006717706  p,,                      ;"  &Y_&"
012350:  000001000004  a,,                      ;"  !  $"
012351:  204500000000  movs     l, ufdc         ;"0E    "
012352:  260700002350  pushj    16, 2350        ;"6'  3H"
012353:  242700000003  lsh      16, c           ;"47   #"
012354:  243000000000  jffo     ufdc, ufdc      ;"48    " "(`\0\0\0"
012355:  202340012051  movem    i, 12051        ;"03@!0I"
012356:  254000006766  jrst     6766            ;"5@  WV"
012357:  516271150141  hrlzm    e, @150141(f)   ;"IRY-!A"
012360:  051400000016  rescan   16              ;"%,   ."
012361:  006057515664                           ;" POINT"
012362:  340114000000  aoj      b, (j)          ;"<!,   "
012363:  000000000074  jobddt                   ;"     \"
012364:  515600000000  hrlzi    j, ufdc         ;"IN    " "S8\0\0\0"
012365:  201004020101  movei    ufdc, 20101(d)  ;"0($"!!"
012366:  201004020063  movei    ufdc, 20063(d)  ;"0($" S"
012367:  201004027101  movei    ufdc, 27101(d)  ;"0($"Y!"
012370:  201004027063  movei    ufdc, 27063(d)  ;"0($"XS"
012371:  201017020101  movei    ufdc, 20101(q)  ;"0(/"!!"
012372:  201017020063  movei    ufdc, 20063(q)  ;"0(/" S"
012373:  201017027101  movei    ufdc, 27101(q)  ;"0(/"Y!"
012374:  201004020057  movei    ufdc, 20057(d)  ;"0($" O"
012375:  300617000000  cai      j, (q)          ;"8&/   "
012376:  360617000000  soj      j, (q)          ;">&/   "
012377:  554451000000  hlrz     f, (f)          ;"MDI   "
012400:  621440400037  tlz      f, 400037       ;"R,@@ ?"
012401:  242440777773  lsh      f, 777773       ;"44@__["
012402:  607540000040  tlnn     k, %order       ;"P]@  @"
012403:  542440000441  hrrm     f, 441          ;"L4@ $A"
012404:  254000001361  jrst     1361            ;"5@  +Q"
012405:  320706002246  jump     16, 2246(p)     ;":'& 2F"
012406:  522371720232  hllom    i, @720232(f)   ;"J3YZ":" "TOO M"
012407:  406353120232  andm     i, 120232(k)    ;"@SK*":" "ANY M"
012410:  406072247646  andm     a, @247646(l)   ;"@PZ4^F" "ACROS"
012411:  200000000000  move     ufdc, ufdc      ;"0     " " \0\0\0\0"
012412:  240500000011  ash      l, f            ;"4%   )"
012413:  222257000000  imulm    e, (q)          ;"22O   " "$Jx\0\0"
012414:  201140000015  movei    c, ntpcw        ;"0)@  -"
012415:  136140000007  idpb     c, i            ;"+Q@  '"
012416:  201140000000  movei    c, ufdc         ;"0)@   " " &\0\0\0"
012417:  136140000007  idpb     c, i            ;"+Q@  '"
012420:  263740000000  popj     q,              ;"6?@   "
012421:  621400000004  tlz      ii, hilin       ;"R,   $"
012422:  263740000000  popj     q,              ;"6?@   "
012423:  000020006336  qpds,,                   ;"  0 S>"
012424:  666300000060  tron     p, 60           ;"VS   P"
012425:  136300000007  idpb     p, i            ;"+S   '"
012426:  263740000000  popj     q,              ;"6?@   "
012427:  261740000016  push     q, 16           ;"6/@  ."
012430:  332000000006  skipe    p               ;";0   &"
012431:  136300000007  idpb     p, i            ;"+S   '"
012432:  200700012070  move     16, 12070       ;"0' !0X"
012433:  606700777777  trnn     16, 777777      ;"PW ___"
012434:  207000000016  movss    ufdc, 16        ;"0X   ."
012435:  260740005464  pushj    q, 5464         ;"6'@ LT"
012436:  201300000041  movei    p, job41        ;"0+   A"
012437:  262740000016  pop      q, 16           ;"67@  ."
012440:  263740000000  popj     q,              ;"6?@   "
012441:  004000003454  %xtsrt,,                 ;" @  <L"
012442:  201004020101  movei    ufdc, 20101(d)  ;"0($"!!"
012443:  000000003233                           ;"    :;"
012444:  200347000000  move     i, (i)          ;"0#G   "
012445:  204347000000  movs     i, (i)          ;"0CG   "
012446:  200447000000  move     f, (i)          ;"0$G   "
012447:  320700000012  jump     16, l           ;":'   *"
012450:  777750003235  conso    774, 3235(ii)   ;"__H :="
012451:  000012006420  l,,                      ;"  * T0"
012452:  320700000016  jump     16, 16          ;":'   ."
012453:  550240000016  hrrz     e, 16           ;"M"@  ."
012454:  517000000016  hrlzs    ufdc, 16        ;"IX   ."
012455:  553000000016  hrrzs    ufdc, 16        ;"M8   ."
012456:  003012002246                           ;" 8* 2F"
012457:  221700000012  imuli    16, l           ;"2/   *"
012460:  400415000000  setz     ii, (ntpcw)     ;"@$-   "
012461:  000010006242  ii,,                     ;"  ( RB"
012462:  274317000000  sub      p, (q)          ;"7C/   " "/\fx\0\0"
012463:  440700002347  andcb    16, 2347        ;"D'  3G"
012464:  232257000000  idivm    e, (q)          ;"32O   " "&Jx\0\0"
012465:  260712007252  pushj    16, 7252(l)     ;"6'* ZJ"
012466:  303440400000  caile    f, 400000       ;"8<@@  "
012467:  303460000115  caile    f, @jobhrl      ;"8<P !-"
012470:  254000004546  jrst     4546            ;"5@  EF"
012471:  254000004537  jrst     4537            ;"5@  E?"
012472:  000006000002  p,,                      ;"  &  ""
012473:  000004006312  d,,                      ;"  $ S*"
012474:  000004006322  d,,                      ;"  $ S2"
012475:  000004006302  d,,                      ;"  $ S""
012476:  000006000006  p,,                      ;"  &  &"
012477:  440700002337  andcb    16, 2337        ;"D'  3?"
012500:  535460334750  hrlei    f, @334750      ;"KLP;GH"
012501:  000002000002  b,,                      ;"  "  ""
bp7:
012502:  777777777777  conso    774, @777777(q) ;"______"
patch:
012503:  000000000000                           ;"      "
012504:  000000000000                           ;"      "
012505:  000000000000                           ;"      "
012506:  000000000000                           ;"      "
012507:  000000000000                           ;"      "
012510:  000000000000                           ;"      "
012511:  000000000000                           ;"      "
012512:  000000000000                           ;"      "
012513:  000000000000                           ;"      "
012514:  000000000000                           ;"      "
012515:  000000000000                           ;"      "
012516:  000000000000                           ;"      "
012517:  000000000000                           ;"      "
012520:  000000000000                           ;"      "
012521:  000000000000                           ;"      "
012522:  000000000000                           ;"      "
012523:  000000000000                           ;"      "
012524:  000000000000                           ;"      "
012525:  000000000000                           ;"      "
012526:  000000000000                           ;"      "
012527:  000000000000                           ;"      "
012530:  000000000000                           ;"      "
012531:  000000000000                           ;"      "
012532:  000000000000                           ;"      "
012533:  000000000000                           ;"      "
012534:  000000000000                           ;"      "
012535:  000000000000                           ;"      "
012536:  000000000000                           ;"      "
012537:  000000000000                           ;"      "
012540:  000000000000                           ;"      "
012541:  000000000000                           ;"      "
012542:  000000000000                           ;"      "
012543:  000000000000                           ;"      "
012544:  000000000000                           ;"      "
012545:  000000000000                           ;"      "
012546:  000000000000                           ;"      "
012547:  000000000000                           ;"      "
012550:  000000000000                           ;"      "
012551:  000000000000                           ;"      "
012552:  000000000000                           ;"      "
012553:  000000000000                           ;"      "
012554:  000000000000                           ;"      "
012555:  000000000000                           ;"      "
012556:  000000000000                           ;"      "
012557:  000000000000                           ;"      "
012560:  000000000000                           ;"      "
012561:  000000000000                           ;"      "
012562:  000000000000                           ;"      "
012563:  000000000000                           ;"      "
012564:  000000000000                           ;"      "
012565:  000000000000                           ;"      "
012566:  000000000000                           ;"      "
012567:  000000000000                           ;"      "
012570:  000000000000                           ;"      "
012571:  000000000000                           ;"      "
012572:  000000000000                           ;"      "
012573:  000000000000                           ;"      "
012574:  000000000000                           ;"      "
012575:  000000000000                           ;"      "
012576:  000000000000                           ;"      "
012577:  000000000000                           ;"      "
012600:  000000000000                           ;"      "
012601:  000000000000                           ;"      "
012602:  000000000000                           ;"      "
iihead:
012603:  000000000000                           ;"      "
iimung:
012604:  574030011146  hlre     ufdc, @11146(ii);"O@8!)F"
012605:  144000000001  fadr     ufdc, a         ;",@   !"
012606:  600034411146  trn      ufdc, @411146(j);"P <A)F"
012607:  012612000020  dirlin,,                 ;"!6*  0"
ddhead:
012610:  114230461114                           ;")B8F),"
ddmung:
012611:  004004113454                           ;" @$)<L"
dirlin:
012612:  000000000000                           ;"      "
012613:  000000000000                           ;"      "
012614:  000000000000                           ;"      "
012615:  000000000000                           ;"      "
012616:  000000000000                           ;"      "
012617:  000000000000                           ;"      "
012620:  000000000000                           ;"      "
012621:  000000000000                           ;"      "
012622:  000000000000                           ;"      "
012623:  000000000000                           ;"      "
012624:  000000000000                           ;"      "
012625:  000000000000                           ;"      "
012626:  000000000000                           ;"      "
012627:  000000000000                           ;"      "
012630:  000000000000                           ;"      "
012631:  000000000000                           ;"      "
012632:  000000000000                           ;"      "
012633:  000000000000                           ;"      "
012634:  000000000000                           ;"      "
012635:  000000000000                           ;"      "
012636:  000000000000                           ;"      "
012637:  000000000000                           ;"      "
012640:  000000000000                           ;"      "
012641:  000000000000                           ;"      "
012642:  000000000000                           ;"      "
012643:  000000000000                           ;"      "
012644:  000000000000                           ;"      "
012645:  000000000000                           ;"      "
012646:  000000000000                           ;"      "
012647:  000000000000                           ;"      "
012650:  000000000000                           ;"      "
012651:  000000000000                           ;"      "
012652:  000000000000                           ;"      "
012653:  000000000000                           ;"      "
012654:  000000000000                           ;"      "
012655:  000000000000                           ;"      "
012656:  000000000000                           ;"      "
012657:  000000000000                           ;"      "
012660:  000000000000                           ;"      "
012661:  000000000000                           ;"      "
012662:  000000000000                           ;"      "
012663:  000000000000                           ;"      "
012664:  000000000000                           ;"      "
012665:  000000000000                           ;"      "
012666:  000000000000                           ;"      "
012667:  000000000000                           ;"      "
012670:  000000000000                           ;"      "
012671:  000000000000                           ;"      "
012672:  000000000000                           ;"      "
012673:  000000000000                           ;"      "
012674:  000000000000                           ;"      "
012675:  000000000000                           ;"      "
012676:  000000000000                           ;"      "
012677:  000000000000                           ;"      "
012700:  000000000000                           ;"      "
012701:  000000000000                           ;"      "
012702:  000000000000                           ;"      "
012703:  000000000000                           ;"      "
012704:  000000000000                           ;"      "
012705:  000000000000                           ;"      "
012706:  000000000000                           ;"      "
012707:  000000000000                           ;"      "
012710:  000000000000                           ;"      "
012711:  000000000000                           ;"      "
012712:  000000000000                           ;"      "
012713:  000000000000                           ;"      "
012714:  000000000000                           ;"      "
012715:  000000000000                           ;"      "
012716:  000000000000                           ;"      "
012717:  000000000000                           ;"      "
012720:  000000000000                           ;"      "
012721:  000000000000                           ;"      "
012722:  000000000000                           ;"      "
012723:  000000000000                           ;"      "
012724:  000000000000                           ;"      "
012725:  000000000000                           ;"      "
012726:  000000000000                           ;"      "
012727:  000000000000                           ;"      "
012730:  000000000000                           ;"      "
012731:  000000000000                           ;"      "
012732:  000000000000                           ;"      "
012733:  000000000000                           ;"      "
012734:  000000000000                           ;"      "
012735:  000000000000                           ;"      "
012736:  000000000000                           ;"      "
012737:  000000000000                           ;"      "
012740:  000000000000                           ;"      "
012741:  000000000000                           ;"      "
012742:  000000000000                           ;"      "
012743:  000000000000                           ;"      "
012744:  000000000000                           ;"      "
012745:  000000000000                           ;"      "
012746:  000000000000                           ;"      "
012747:  000000000000                           ;"      "
012750:  000000000000                           ;"      "
012751:  000000000000                           ;"      "
012752:  000000000000                           ;"      "
012753:  000000000000                           ;"      "
012754:  000000000000                           ;"      "
012755:  000000000000                           ;"      "
012756:  000000000000                           ;"      "
012757:  000000000000                           ;"      "
012760:  000000000000                           ;"      "
012761:  000000000000                           ;"      "
012762:  000000000000                           ;"      "
012763:  000000000000                           ;"      "
012764:  000000000000                           ;"      "
012765:  000000000000                           ;"      "
012766:  000000000000                           ;"      "
012767:  000000000000                           ;"      "
012770:  000000000000                           ;"      "
012771:  000000000000                           ;"      "
012772:  000000000000                           ;"      "
012773:  000000000000                           ;"      "
012774:  000000000000                           ;"      "
012775:  000000000000                           ;"      "
012776:  000000000000                           ;"      "
012777:  000000000000                           ;"      "
013000:  000000000000                           ;"      "
013001:  000000000000                           ;"      "
013002:  000000000000                           ;"      "
013003:  000000000000                           ;"      "
013004:  000000000000                           ;"      "
013005:  000000000000                           ;"      "
013006:  000000000000                           ;"      "
013007:  000000000000                           ;"      "
013010:  000000000000                           ;"      "
013011:  000000000000                           ;"      "
013012:  000000000000                           ;"      "
013013:  000000000000                           ;"      "
013014:  000000000000                           ;"      "
013015:  000000000000                           ;"      "
013016:  000000000000                           ;"      "
013017:  000000000000                           ;"      "
013020:  000000000000                           ;"      "
013021:  000000000000                           ;"      "
013022:  000000000000                           ;"      "
013023:  000000000000                           ;"      "
013024:  000000000000                           ;"      "
013025:  000000000000                           ;"      "
013026:  000000000000                           ;"      "
013027:  000000000000                           ;"      "
013030:  000000000000                           ;"      "
013031:  000000000000                           ;"      "
013032:  000000000000                           ;"      "
013033:  000000000000                           ;"      "
013034:  000000000000                           ;"      "
013035:  000000000000                           ;"      "
013036:  000000000000                           ;"      "
013037:  000000000000                           ;"      "
013040:  000000000000                           ;"      "
013041:  000000000000                           ;"      "
013042:  000000000000                           ;"      "
013043:  000000000000                           ;"      "
013044:  000000000000                           ;"      "
013045:  000000000000                           ;"      "
013046:  000000000000                           ;"      "
013047:  000000000000                           ;"      "
013050:  000000000000                           ;"      "
013051:  000000000000                           ;"      "
013052:  000000000000                           ;"      "
013053:  000000000000                           ;"      "
013054:  000000000000                           ;"      "
013055:  000000000000                           ;"      "
013056:  000000000000                           ;"      "
013057:  000000000000                           ;"      "
013060:  000000000000                           ;"      "
013061:  000000000000                           ;"      "
013062:  000000000000                           ;"      "
013063:  000000000000                           ;"      "
013064:  000000000000                           ;"      "
013065:  000000000000                           ;"      "
013066:  000000000000                           ;"      "
013067:  000000000000                           ;"      "
013070:  000000000000                           ;"      "
013071:  000000000000                           ;"      "
013072:  000000000000                           ;"      "
013073:  000000000000                           ;"      "
013074:  000000000000                           ;"      "
013075:  000000000000                           ;"      "
013076:  000000000000                           ;"      "
013077:  000000000000                           ;"      "
013100:  000000000000                           ;"      "
013101:  000000000000                           ;"      "
013102:  000000000000                           ;"      "
013103:  000000000000                           ;"      "
013104:  000000000000                           ;"      "
013105:  000000000000                           ;"      "
013106:  000000000000                           ;"      "
013107:  000000000000                           ;"      "
013110:  000000000000                           ;"      "
013111:  000000000000                           ;"      "
013112:  000000000000                           ;"      "
013113:  000000000000                           ;"      "
013114:  000000000000                           ;"      "
013115:  000000000000                           ;"      "
013116:  000000000000                           ;"      "
013117:  000000000000                           ;"      "
013120:  000000000000                           ;"      "
013121:  000000000000                           ;"      "
013122:  000000000000                           ;"      "
013123:  000000000000                           ;"      "
013124:  000000000000                           ;"      "
013125:  000000000000                           ;"      "
013126:  000000000000                           ;"      "
013127:  000000000000                           ;"      "
013130:  000000000000                           ;"      "
013131:  000000000000                           ;"      "
013132:  000000000000                           ;"      "
013133:  000000000000                           ;"      "
013134:  000000000000                           ;"      "
013135:  000000000000                           ;"      "
013136:  000000000000                           ;"      "
013137:  000000000000                           ;"      "
013140:  000000000000                           ;"      "
013141:  000000000000                           ;"      "
013142:  000000000000                           ;"      "
013143:  000000000000                           ;"      "
013144:  000000000000                           ;"      "
013145:  000000000000                           ;"      "
013146:  000000000000                           ;"      "
013147:  000000000000                           ;"      "
013150:  000000000000                           ;"      "
013151:  000000000000                           ;"      "
013152:  000000000000                           ;"      "
013153:  000000000000                           ;"      "
013154:  000000000000                           ;"      "
013155:  000000000000                           ;"      "
013156:  000000000000                           ;"      "
013157:  000000000000                           ;"      "
013160:  000000000000                           ;"      "
013161:  000000000000                           ;"      "
013162:  000000000000                           ;"      "
013163:  000000000000                           ;"      "
013164:  000000000000                           ;"      "
013165:  000000000000                           ;"      "
013166:  000000000000                           ;"      "
013167:  000000000000                           ;"      "
013170:  000000000000                           ;"      "
013171:  000000000000                           ;"      "
013172:  000000000000                           ;"      "
013173:  000000000000                           ;"      "
013174:  000000000000                           ;"      "
013175:  000000000000                           ;"      "
013176:  000000000000                           ;"      "
013177:  000000000000                           ;"      "
013200:  000000000000                           ;"      "
013201:  000000000000                           ;"      "
013202:  000000000000                           ;"      "
013203:  000000000000                           ;"      "
013204:  000000000000                           ;"      "
013205:  000000000000                           ;"      "
013206:  000000000000                           ;"      "
013207:  000000000000                           ;"      "
013210:  000000000000                           ;"      "
013211:  000000000000                           ;"      "
013212:  000000000000                           ;"      "
013213:  000000000000                           ;"      "
013214:  000000000000                           ;"      "
013215:  000000000000                           ;"      "
013216:  000000000000                           ;"      "
013217:  000000000000                           ;"      "
013220:  000000000000                           ;"      "
013221:  000000000000                           ;"      "
013222:  000000000000                           ;"      "
013223:  000000000000                           ;"      "
013224:  000000000000                           ;"      "
013225:  000000000000                           ;"      "
013226:  000000000000                           ;"      "
013227:  000000000000                           ;"      "
013230:  000000000000                           ;"      "
013231:  000000000000                           ;"      "
013232:  000000000000                           ;"      "
013233:  000000000000                           ;"      "
013234:  000000000000                           ;"      "
013235:  000000000000                           ;"      "
013236:  000000000000                           ;"      "
013237:  000000000000                           ;"      "
013240:  000000000000                           ;"      "
013241:  000000000000                           ;"      "
013242:  000000000000                           ;"      "
013243:  000000000000                           ;"      "
013244:  000000000000                           ;"      "
013245:  000000000000                           ;"      "
013246:  000000000000                           ;"      "
013247:  000000000000                           ;"      "
013250:  000000000000                           ;"      "
013251:  000000000000                           ;"      "
013252:  000000000000                           ;"      "
013253:  000000000000                           ;"      "
013254:  000000000000                           ;"      "
013255:  000000000000                           ;"      "
013256:  000000000000                           ;"      "
013257:  000000000000                           ;"      "
013260:  000000000000                           ;"      "
013261:  000000000000                           ;"      "
013262:  000000000000                           ;"      "
013263:  000000000000                           ;"      "
013264:  000000000000                           ;"      "
013265:  000000000000                           ;"      "
013266:  000000000000                           ;"      "
013267:  000000000000                           ;"      "
013270:  000000000000                           ;"      "
013271:  000000000000                           ;"      "
013272:  000000000000                           ;"      "
013273:  000000000000                           ;"      "
013274:  000000000000                           ;"      "
013275:  000000000000                           ;"      "
013276:  000000000000                           ;"      "
013277:  000000000000                           ;"      "
013300:  000000000000                           ;"      "
013301:  000000000000                           ;"      "
013302:  000000000000                           ;"      "
013303:  000000000000                           ;"      "
013304:  000000000000                           ;"      "
013305:  000000000000                           ;"      "
013306:  000000000000                           ;"      "
013307:  000000000000                           ;"      "
013310:  000000000000                           ;"      "
013311:  000000000000                           ;"      "
013312:  000000000000                           ;"      "
013313:  000000000000                           ;"      "
013314:  000000000000                           ;"      "
013315:  000000000000                           ;"      "
013316:  000000000000                           ;"      "
013317:  000000000000                           ;"      "
013320:  000000000000                           ;"      "
013321:  000000000000                           ;"      "
013322:  000000000000                           ;"      "
013323:  000000000000                           ;"      "
013324:  000000000000                           ;"      "
013325:  000000000000                           ;"      "
013326:  000000000000                           ;"      "
013327:  000000000000                           ;"      "
013330:  000000000000                           ;"      "
013331:  000000000000                           ;"      "
013332:  000000000000                           ;"      "
013333:  000000000000                           ;"      "
013334:  000000000000                           ;"      "
013335:  000000000000                           ;"      "
013336:  000000000000                           ;"      "
013337:  000000000000                           ;"      "
013340:  000000000000                           ;"      "
013341:  000000000000                           ;"      "
013342:  000000000000                           ;"      "
013343:  000000000000                           ;"      "
013344:  000000000000                           ;"      "
013345:  000000000000                           ;"      "
013346:  000000000000                           ;"      "
013347:  000000000000                           ;"      "
013350:  000000000000                           ;"      "
013351:  000000000000                           ;"      "
013352:  000000000000                           ;"      "
013353:  000000000000                           ;"      "
013354:  000000000000                           ;"      "
013355:  000000000000                           ;"      "
013356:  000000000000                           ;"      "
013357:  000000000000                           ;"      "
013360:  000000000000                           ;"      "
013361:  000000000000                           ;"      "
013362:  000000000000                           ;"      "
013363:  000000000000                           ;"      "
013364:  000000000000                           ;"      "
013365:  000000000000                           ;"      "
013366:  000000000000                           ;"      "
013367:  000000000000                           ;"      "
013370:  000000000000                           ;"      "
013371:  000000000000                           ;"      "
013372:  000000000000                           ;"      "
013373:  000000000000                           ;"      "
013374:  000000000000                           ;"      "
013375:  000000000000                           ;"      "
013376:  000000000000                           ;"      "
013377:  000000000000                           ;"      "
013400:  000000000000                           ;"      "
013401:  000000000000                           ;"      "
013402:  000000000000                           ;"      "
013403:  000000000000                           ;"      "
013404:  000000000000                           ;"      "
013405:  000000000000                           ;"      "
013406:  000000000000                           ;"      "
013407:  000000000000                           ;"      "
013410:  000000000000                           ;"      "
013411:  000000000000                           ;"      "
013412:  000000000000                           ;"      "
013413:  000000000000                           ;"      "
013414:  000000000000                           ;"      "
013415:  000000000000                           ;"      "
013416:  000000000000                           ;"      "
013417:  000000000000                           ;"      "
013420:  000000000000                           ;"      "
013421:  000000000000                           ;"      "
013422:  000000000000                           ;"      "
013423:  000000000000                           ;"      "
013424:  000000000000                           ;"      "
013425:  000000000000                           ;"      "
013426:  000000000000                           ;"      "
013427:  000000000000                           ;"      "
013430:  000000000000                           ;"      "
013431:  000000000000                           ;"      "
013432:  000000000000                           ;"      "
013433:  000000000000                           ;"      "
013434:  000000000000                           ;"      "
013435:  000000000000                           ;"      "
013436:  000000000000                           ;"      "
013437:  000000000000                           ;"      "
013440:  000000000000                           ;"      "
013441:  000000000000                           ;"      "
013442:  000000000000                           ;"      "
013443:  000000000000                           ;"      "
013444:  000000000000                           ;"      "
013445:  000000000000                           ;"      "
013446:  000000000000                           ;"      "
013447:  000000000000                           ;"      "
013450:  000000000000                           ;"      "
013451:  000000000000                           ;"      "
013452:  000000000000                           ;"      "
013453:  000000000000                           ;"      "
013454:  000000000000                           ;"      "
013455:  000000000000                           ;"      "
013456:  000000000000                           ;"      "
013457:  000000000000                           ;"      "
013460:  000000000000                           ;"      "
013461:  000000000000                           ;"      "
013462:  000000000000                           ;"      "
013463:  000000000000                           ;"      "
013464:  000000000000                           ;"      "
013465:  000000000000                           ;"      "
013466:  000000000000                           ;"      "
013467:  000000000000                           ;"      "
013470:  000000000000                           ;"      "
013471:  000000000000                           ;"      "
013472:  000000000000                           ;"      "
013473:  000000000000                           ;"      "
013474:  000000000000                           ;"      "
013475:  000000000000                           ;"      "
013476:  000000000000                           ;"      "
013477:  000000000000                           ;"      "
013500:  000000000000                           ;"      "
013501:  000000000000                           ;"      "
013502:  000000000000                           ;"      "
013503:  000000000000                           ;"      "
013504:  000000000000                           ;"      "
013505:  000000000000                           ;"      "
013506:  000000000000                           ;"      "
013507:  000000000000                           ;"      "
013510:  000000000000                           ;"      "
013511:  000000000000                           ;"      "
013512:  000000000000                           ;"      "
013513:  000000000000                           ;"      "
013514:  000000000000                           ;"      "
013515:  000000000000                           ;"      "
013516:  000000000000                           ;"      "
013517:  000000000000                           ;"      "
013520:  000000000000                           ;"      "
013521:  000000000000                           ;"      "
013522:  000000000000                           ;"      "
013523:  000000000000                           ;"      "
013524:  000000000000                           ;"      "
013525:  000000000000                           ;"      "
013526:  000000000000                           ;"      "
013527:  000000000000                           ;"      "
013530:  000000000000                           ;"      "
013531:  000000000000                           ;"      "
013532:  000000000000                           ;"      "
013533:  000000000000                           ;"      "
013534:  000000000000                           ;"      "
013535:  000000000000                           ;"      "
013536:  000000000000                           ;"      "
013537:  000000000000                           ;"      "
013540:  000000000000                           ;"      "
013541:  000000000000                           ;"      "
013542:  000000000000                           ;"      "
013543:  000000000000                           ;"      "
013544:  000000000000                           ;"      "
013545:  000000000000                           ;"      "
013546:  000000000000                           ;"      "
013547:  000000000000                           ;"      "
013550:  000000000000                           ;"      "
013551:  000000000000                           ;"      "
013552:  000000000000                           ;"      "
013553:  000000000000                           ;"      "
013554:  000000000000                           ;"      "
013555:  000000000000                           ;"      "
013556:  000000000000                           ;"      "
013557:  000000000000                           ;"      "
013560:  000000000000                           ;"      "
013561:  000000000000                           ;"      "
013562:  000000000000                           ;"      "
013563:  000000000000                           ;"      "
013564:  000000000000                           ;"      "
013565:  000000000000                           ;"      "
013566:  000000000000                           ;"      "
013567:  000000000000                           ;"      "
013570:  000000000000                           ;"      "
013571:  000000000000                           ;"      "
013572:  000000000000                           ;"      "
013573:  000000000000                           ;"      "
013574:  000000000000                           ;"      "
013575:  000000000000                           ;"      "
013576:  000000000000                           ;"      "
013577:  000000000000                           ;"      "
013600:  000000000000                           ;"      "
013601:  000000000000                           ;"      "
013602:  000000000000                           ;"      "
013603:  000000000000                           ;"      "
013604:  000000000000                           ;"      "
013605:  000000000000                           ;"      "
013606:  000000000000                           ;"      "
013607:  000000000000                           ;"      "
013610:  000000000000                           ;"      "
013611:  000000000000                           ;"      "
013612:  000000000000                           ;"      "
013613:  000000000000                           ;"      "
013614:  000000000000                           ;"      "
013615:  000000000000                           ;"      "
013616:  000000000000                           ;"      "
013617:  000000000000                           ;"      "
013620:  000000000000                           ;"      "
013621:  000000000000                           ;"      "
013622:  000000000000                           ;"      "
013623:  000000000000                           ;"      "
013624:  000000000000                           ;"      "
013625:  000000000000                           ;"      "
013626:  000000000000                           ;"      "
013627:  000000000000                           ;"      "
013630:  000000000000                           ;"      "
013631:  000000000000                           ;"      "
013632:  000000000000                           ;"      "
013633:  000000000000                           ;"      "
013634:  000000000000                           ;"      "
013635:  000000000000                           ;"      "
013636:  000000000000                           ;"      "
013637:  000000000000                           ;"      "
013640:  000000000000                           ;"      "
013641:  000000000000                           ;"      "
013642:  000000000000                           ;"      "
013643:  000000000000                           ;"      "
013644:  000000000000                           ;"      "
013645:  000000000000                           ;"      "
013646:  000000000000                           ;"      "
013647:  000000000000                           ;"      "
013650:  000000000000                           ;"      "
013651:  000000000000                           ;"      "
013652:  000000000000                           ;"      "
013653:  000000000000                           ;"      "
013654:  000000000000                           ;"      "
013655:  000000000000                           ;"      "
013656:  000000000000                           ;"      "
013657:  000000000000                           ;"      "
013660:  000000000000                           ;"      "
013661:  000000000000                           ;"      "
013662:  000000000000                           ;"      "
013663:  000000000000                           ;"      "
013664:  000000000000                           ;"      "
013665:  000000000000                           ;"      "
013666:  000000000000                           ;"      "
013667:  000000000000                           ;"      "
013670:  000000000000                           ;"      "
013671:  000000000000                           ;"      "
013672:  000000000000                           ;"      "
013673:  000000000000                           ;"      "
013674:  000000000000                           ;"      "
013675:  000000000000                           ;"      "
013676:  000000000000                           ;"      "
013677:  000000000000                           ;"      "
013700:  000000000000                           ;"      "
013701:  000000000000                           ;"      "
013702:  000000000000                           ;"      "
013703:  000000000000                           ;"      "
013704:  000000000000                           ;"      "
013705:  000000000000                           ;"      "
013706:  000000000000                           ;"      "
013707:  000000000000                           ;"      "
013710:  000000000000                           ;"      "
013711:  000000000000                           ;"      "
013712:  000000000000                           ;"      "
013713:  000000000000                           ;"      "
013714:  000000000000                           ;"      "
013715:  000000000000                           ;"      "
013716:  000000000000                           ;"      "
013717:  000000000000                           ;"      "
013720:  000000000000                           ;"      "
013721:  000000000000                           ;"      "
013722:  000000000000                           ;"      "
013723:  000000000000                           ;"      "
013724:  000000000000                           ;"      "
013725:  000000000000                           ;"      "
013726:  000000000000                           ;"      "
013727:  000000000000                           ;"      "
013730:  000000000000                           ;"      "
013731:  000000000000                           ;"      "
013732:  000000000000                           ;"      "
013733:  000000000000                           ;"      "
013734:  000000000000                           ;"      "
013735:  000000000000                           ;"      "
013736:  000000000000                           ;"      "
013737:  000000000000                           ;"      "
013740:  000000000000                           ;"      "
013741:  000000000000                           ;"      "
013742:  000000000000                           ;"      "
013743:  000000000000                           ;"      "
013744:  000000000000                           ;"      "
013745:  000000000000                           ;"      "
013746:  000000000000                           ;"      "
013747:  000000000000                           ;"      "
013750:  000000000000                           ;"      "
013751:  000000000000                           ;"      "
013752:  000000000000                           ;"      "
013753:  000000000000                           ;"      "
013754:  000000000000                           ;"      "
013755:  000000000000                           ;"      "
013756:  000000000000                           ;"      "
013757:  000000000000                           ;"      "
013760:  000000000000                           ;"      "
013761:  000000000000                           ;"      "
013762:  000000000000                           ;"      "
013763:  000000000000                           ;"      "
013764:  000000000000                           ;"      "
013765:  000000000000                           ;"      "
013766:  000000000000                           ;"      "
013767:  000000000000                           ;"      "
013770:  000000000000                           ;"      "
013771:  000000000000                           ;"      "
013772:  000000000000                           ;"      "
013773:  000000000000                           ;"      "
013774:  000000000000                           ;"      "
013775:  000000000000                           ;"      "
013776:  000000000000                           ;"      "
013777:  000000000000                           ;"      "
014000:  000000000000                           ;"      "
014001:  000000000000                           ;"      "
014002:  000000000000                           ;"      "
014003:  000000000000                           ;"      "
014004:  000000000000                           ;"      "
014005:  000000000000                           ;"      "
014006:  000000000000                           ;"      "
014007:  000000000000                           ;"      "
014010:  000000000000                           ;"      "
014011:  000000000000                           ;"      "
014012:  000000000000                           ;"      "
014013:  000000000000                           ;"      "
014014:  000000000000                           ;"      "
014015:  000000000000                           ;"      "
014016:  000000000000                           ;"      "
014017:  000000000000                           ;"      "
014020:  000000000000                           ;"      "
014021:  000000000000                           ;"      "
014022:  000000000000                           ;"      "
014023:  000000000000                           ;"      "
014024:  000000000000                           ;"      "
014025:  000000000000                           ;"      "
014026:  000000000000                           ;"      "
014027:  000000000000                           ;"      "
014030:  000000000000                           ;"      "
014031:  000000000000                           ;"      "
014032:  000000000000                           ;"      "
014033:  000000000000                           ;"      "
014034:  000000000000                           ;"      "
014035:  000000000000                           ;"      "
014036:  000000000000                           ;"      "
014037:  000000000000                           ;"      "
014040:  000000000000                           ;"      "
014041:  000000000000                           ;"      "
014042:  000000000000                           ;"      "
014043:  000000000000                           ;"      "
014044:  000000000000                           ;"      "
014045:  000000000000                           ;"      "
014046:  000000000000                           ;"      "
014047:  000000000000                           ;"      "
014050:  000000000000                           ;"      "
014051:  000000000000                           ;"      "
014052:  000000000000                           ;"      "
014053:  000000000000                           ;"      "
014054:  000000000000                           ;"      "
014055:  000000000000                           ;"      "
014056:  000000000000                           ;"      "
014057:  000000000000                           ;"      "
014060:  000000000000                           ;"      "
014061:  000000000000                           ;"      "
014062:  000000000000                           ;"      "
014063:  000000000000                           ;"      "
014064:  000000000000                           ;"      "
014065:  000000000000                           ;"      "
014066:  000000000000                           ;"      "
014067:  000000000000                           ;"      "
014070:  000000000000                           ;"      "
014071:  000000000000                           ;"      "
014072:  000000000000                           ;"      "
014073:  000000000000                           ;"      "
014074:  000000000000                           ;"      "
014075:  000000000000                           ;"      "
014076:  000000000000                           ;"      "
014077:  000000000000                           ;"      "
014100:  000000000000                           ;"      "
014101:  000000000000                           ;"      "
014102:  000000000000                           ;"      "
014103:  000000000000                           ;"      "
014104:  000000000000                           ;"      "
014105:  000000000000                           ;"      "
014106:  000000000000                           ;"      "
014107:  000000000000                           ;"      "
014110:  000000000000                           ;"      "
014111:  000000000000                           ;"      "
014112:  000000000000                           ;"      "
014113:  000000000000                           ;"      "
014114:  000000000000                           ;"      "
014115:  000000000000                           ;"      "
014116:  000000000000                           ;"      "
014117:  000000000000                           ;"      "
014120:  000000000000                           ;"      "
014121:  000000000000                           ;"      "
014122:  000000000000                           ;"      "
014123:  000000000000                           ;"      "
014124:  000000000000                           ;"      "
014125:  000000000000                           ;"      "
014126:  000000000000                           ;"      "
014127:  000000000000                           ;"      "
014130:  000000000000                           ;"      "
014131:  000000000000                           ;"      "
014132:  000000000000                           ;"      "
014133:  000000000000                           ;"      "
014134:  000000000000                           ;"      "
014135:  000000000000                           ;"      "
014136:  000000000000                           ;"      "
014137:  000000000000                           ;"      "
014140:  000000000000                           ;"      "
014141:  000000000000                           ;"      "
014142:  000000000000                           ;"      "
014143:  000000000000                           ;"      "
014144:  000000000000                           ;"      "
014145:  000000000000                           ;"      "
014146:  000000000000                           ;"      "
014147:  000000000000                           ;"      "
014150:  000000000000                           ;"      "
014151:  000000000000                           ;"      "
014152:  000000000000                           ;"      "
014153:  000000000000                           ;"      "
014154:  000000000000                           ;"      "
014155:  000000000000                           ;"      "
014156:  000000000000                           ;"      "
014157:  000000000000                           ;"      "
014160:  000000000000                           ;"      "
014161:  000000000000                           ;"      "
014162:  000000000000                           ;"      "
014163:  000000000000                           ;"      "
014164:  000000000000                           ;"      "
014165:  000000000000                           ;"      "
014166:  000000000000                           ;"      "
014167:  000000000000                           ;"      "
014170:  000000000000                           ;"      "
014171:  000000000000                           ;"      "
014172:  000000000000                           ;"      "
014173:  000000000000                           ;"      "
014174:  000000000000                           ;"      "
014175:  000000000000                           ;"      "
014176:  000000000000                           ;"      "
014177:  000000000000                           ;"      "
014200:  000000000000                           ;"      "
014201:  000000000000                           ;"      "
014202:  000000000000                           ;"      "
014203:  000000000000                           ;"      "
014204:  000000000000                           ;"      "
014205:  000000000000                           ;"      "
014206:  000000000000                           ;"      "
014207:  000000000000                           ;"      "
014210:  000000000000                           ;"      "
014211:  000000000000                           ;"      "
014212:  000000000000                           ;"      "
014213:  000000000000                           ;"      "
014214:  000000000000                           ;"      "
014215:  000000000000                           ;"      "
014216:  000000000000                           ;"      "
014217:  000000000000                           ;"      "
014220:  000000000000                           ;"      "
014221:  000000000000                           ;"      "
014222:  000000000000                           ;"      "
014223:  000000000000                           ;"      "
014224:  000000000000                           ;"      "
014225:  000000000000                           ;"      "
014226:  000000000000                           ;"      "
014227:  000000000000                           ;"      "
014230:  000000000000                           ;"      "
014231:  000000000000                           ;"      "
014232:  000000000000                           ;"      "
014233:  000000000000                           ;"      "
014234:  000000000000                           ;"      "
014235:  000000000000                           ;"      "
014236:  000000000000                           ;"      "
014237:  000000000000                           ;"      "
014240:  000000000000                           ;"      "
014241:  000000000000                           ;"      "
014242:  000000000000                           ;"      "
014243:  000000000000                           ;"      "
014244:  000000000000                           ;"      "
014245:  000000000000                           ;"      "
014246:  000000000000                           ;"      "
014247:  000000000000                           ;"      "
014250:  000000000000                           ;"      "
014251:  000000000000                           ;"      "
014252:  000000000000                           ;"      "
014253:  000000000000                           ;"      "
014254:  000000000000                           ;"      "
014255:  000000000000                           ;"      "
014256:  000000000000                           ;"      "
014257:  000000000000                           ;"      "
014260:  000000000000                           ;"      "
014261:  000000000000                           ;"      "
014262:  000000000000                           ;"      "
014263:  000000000000                           ;"      "
014264:  000000000000                           ;"      "
014265:  000000000000                           ;"      "
014266:  000000000000                           ;"      "
014267:  000000000000                           ;"      "
014270:  000000000000                           ;"      "
014271:  000000000000                           ;"      "
014272:  000000000000                           ;"      "
014273:  000000000000                           ;"      "
014274:  000000000000                           ;"      "
014275:  000000000000                           ;"      "
014276:  000000000000                           ;"      "
014277:  000000000000                           ;"      "
014300:  000000000000                           ;"      "
014301:  000000000000                           ;"      "
014302:  000000000000                           ;"      "
014303:  000000000000                           ;"      "
014304:  000000000000                           ;"      "
014305:  000000000000                           ;"      "
014306:  000000000000                           ;"      "
014307:  000000000000                           ;"      "
014310:  000000000000                           ;"      "
014311:  000000000000                           ;"      "
014312:  000000000000                           ;"      "
014313:  000000000000                           ;"      "
014314:  000000000000                           ;"      "
014315:  000000000000                           ;"      "
014316:  000000000000                           ;"      "
014317:  000000000000                           ;"      "
014320:  000000000000                           ;"      "
014321:  000000000000                           ;"      "
014322:  000000000000                           ;"      "
014323:  000000000000                           ;"      "
014324:  000000000000                           ;"      "
014325:  000000000000                           ;"      "
014326:  000000000000                           ;"      "
014327:  000000000000                           ;"      "
014330:  000000000000                           ;"      "
014331:  000000000000                           ;"      "
014332:  000000000000                           ;"      "
014333:  000000000000                           ;"      "
014334:  000000000000                           ;"      "
014335:  000000000000                           ;"      "
014336:  000000000000                           ;"      "
014337:  000000000000                           ;"      "
014340:  000000000000                           ;"      "
014341:  000000000000                           ;"      "
014342:  000000000000                           ;"      "
014343:  000000000000                           ;"      "
014344:  000000000000                           ;"      "
014345:  000000000000                           ;"      "
014346:  000000000000                           ;"      "
014347:  000000000000                           ;"      "
014350:  000000000000                           ;"      "
014351:  000000000000                           ;"      "
014352:  000000000000                           ;"      "
014353:  000000000000                           ;"      "
014354:  000000000000                           ;"      "
014355:  000000000000                           ;"      "
014356:  000000000000                           ;"      "
014357:  000000000000                           ;"      "
014360:  000000000224                           ;"    "4"
zero:
014361:  000000000000                           ;"      "
lukdat:
014362:  777777777777  conso    774, @777777(q) ;"______"
014363:  777777777777  conso    774, @777777(q) ;"______"
014364:  777777777777  conso    774, @777777(q) ;"______"
014365:  777777777777  conso    774, @777777(q) ;"______"
014366:  777777777777  conso    774, @777777(q) ;"______"
014367:  777777777777  conso    774, @777777(q) ;"______"
014370:  777777777777  conso    774, @777777(q) ;"______"
014371:  777777777777  conso    774, @777777(q) ;"______"
014372:  777777777777  conso    774, @777777(q) ;"______"
014373:  777777777777  conso    774, @777777(q) ;"______"
014374:  777777777777  conso    774, @777777(q) ;"______"
014375:  777777777777  conso    774, @777777(q) ;"______"
014376:  777777777777  conso    774, @777777(q) ;"______"
014377:  777777777777  conso    774, @777777(q) ;"______"
014400:  777777777777  conso    774, @777777(q) ;"______"
014401:  777777777777  conso    774, @777777(q) ;"______"
014402:  777777777777  conso    774, @777777(q) ;"______"
014403:  777777777777  conso    774, @777777(q) ;"______"
014404:  777777777777  conso    774, @777777(q) ;"______"
014405:  777777777777  conso    774, @777777(q) ;"______"
014406:  777777777777  conso    774, @777777(q) ;"______"
014407:  777777777777  conso    774, @777777(q) ;"______"
014410:  777777777777  conso    774, @777777(q) ;"______"
014411:  777777777777  conso    774, @777777(q) ;"______"
014412:  777777777777  conso    774, @777777(q) ;"______"
014413:  777777777777  conso    774, @777777(q) ;"______"
014414:  777777777777  conso    774, @777777(q) ;"______"
014415:  777777777777  conso    774, @777777(q) ;"______"
014416:  777777777777  conso    774, @777777(q) ;"______"
014417:  777777777777  conso    774, @777777(q) ;"______"
014420:  777777777777  conso    774, @777777(q) ;"______"
014421:  777777777777  conso    774, @777777(q) ;"______"
014422:  777777777777  conso    774, @777777(q) ;"______"
014423:  777777777777  conso    774, @777777(q) ;"______"
014424:  777777777777  conso    774, @777777(q) ;"______"
014425:  777777777777  conso    774, @777777(q) ;"______"
014426:  777777777777  conso    774, @777777(q) ;"______"
014427:  777777777777  conso    774, @777777(q) ;"______"
014430:  777777777777  conso    774, @777777(q) ;"______"
014431:  777777777777  conso    774, @777777(q) ;"______"
014432:  777777777777  conso    774, @777777(q) ;"______"
014433:  777777777777  conso    774, @777777(q) ;"______"
014434:  777777777777  conso    774, @777777(q) ;"______"
014435:  777777777777  conso    774, @777777(q) ;"______"
014436:  777777777777  conso    774, @777777(q) ;"______"
014437:  777777777777  conso    774, @777777(q) ;"______"
014440:  777777777777  conso    774, @777777(q) ;"______"
014441:  777777777777  conso    774, @777777(q) ;"______"
014442:  777777777777  conso    774, @777777(q) ;"______"
014443:  777777777777  conso    774, @777777(q) ;"______"
014444:  777777777777  conso    774, @777777(q) ;"______"
014445:  777777777777  conso    774, @777777(q) ;"______"
014446:  777777777777  conso    774, @777777(q) ;"______"
014447:  777777777777  conso    774, @777777(q) ;"______"
014450:  777777777777  conso    774, @777777(q) ;"______"
014451:  777777777777  conso    774, @777777(q) ;"______"
014452:  777777777777  conso    774, @777777(q) ;"______"
014453:  777777777777  conso    774, @777777(q) ;"______"
014454:  777777777777  conso    774, @777777(q) ;"______"
014455:  777777777777  conso    774, @777777(q) ;"______"
014456:  777777777777  conso    774, @777777(q) ;"______"
014457:  777777777777  conso    774, @777777(q) ;"______"
014460:  777777777777  conso    774, @777777(q) ;"______"
014461:  777777777777  conso    774, @777777(q) ;"______"
014462:  777777777777  conso    774, @777777(q) ;"______"
014463:  777777777777  conso    774, @777777(q) ;"______"
014464:  777777777777  conso    774, @777777(q) ;"______"
014465:  777777777777  conso    774, @777777(q) ;"______"
014466:  777777777777  conso    774, @777777(q) ;"______"
014467:  777777777777  conso    774, @777777(q) ;"______"
014470:  777777777777  conso    774, @777777(q) ;"______"
014471:  777777777777  conso    774, @777777(q) ;"______"
014472:  777777777777  conso    774, @777777(q) ;"______"
014473:  777777777777  conso    774, @777777(q) ;"______"
014474:  777777777777  conso    774, @777777(q) ;"______"
014475:  777777777777  conso    774, @777777(q) ;"______"
014476:  777777777777  conso    774, @777777(q) ;"______"
014477:  777777777777  conso    774, @777777(q) ;"______"
014500:  777777777777  conso    774, @777777(q) ;"______"
014501:  777777777777  conso    774, @777777(q) ;"______"
014502:  777777777777  conso    774, @777777(q) ;"______"
014503:  777777777777  conso    774, @777777(q) ;"______"
014504:  777777777777  conso    774, @777777(q) ;"______"
014505:  777777777777  conso    774, @777777(q) ;"______"
014506:  777777777777  conso    774, @777777(q) ;"______"
014507:  777777777777  conso    774, @777777(q) ;"______"
014510:  777777777777  conso    774, @777777(q) ;"______"
014511:  777777777777  conso    774, @777777(q) ;"______"
014512:  777777777777  conso    774, @777777(q) ;"______"
014513:  777777777777  conso    774, @777777(q) ;"______"
014514:  777777777777  conso    774, @777777(q) ;"______"
014515:  777777777777  conso    774, @777777(q) ;"______"
014516:  777777777777  conso    774, @777777(q) ;"______"
014517:  777777777777  conso    774, @777777(q) ;"______"
014520:  777777777777  conso    774, @777777(q) ;"______"
014521:  777777777777  conso    774, @777777(q) ;"______"
014522:  777777777777  conso    774, @777777(q) ;"______"
014523:  777777777777  conso    774, @777777(q) ;"______"
014524:  777777777777  conso    774, @777777(q) ;"______"
014525:  777777777777  conso    774, @777777(q) ;"______"
014526:  777777777777  conso    774, @777777(q) ;"______"
014527:  777777777777  conso    774, @777777(q) ;"______"
014530:  777777777777  conso    774, @777777(q) ;"______"
014531:  777777777777  conso    774, @777777(q) ;"______"
014532:  777777777777  conso    774, @777777(q) ;"______"
014533:  777777777777  conso    774, @777777(q) ;"______"
014534:  777777777777  conso    774, @777777(q) ;"______"
014535:  777777777777  conso    774, @777777(q) ;"______"
014536:  777777777777  conso    774, @777777(q) ;"______"
014537:  777777777777  conso    774, @777777(q) ;"______"
014540:  777777777777  conso    774, @777777(q) ;"______"
014541:  777777777777  conso    774, @777777(q) ;"______"
014542:  777777777777  conso    774, @777777(q) ;"______"
014543:  777777777777  conso    774, @777777(q) ;"______"
014544:  777777777777  conso    774, @777777(q) ;"______"
014545:  777777777777  conso    774, @777777(q) ;"______"
014546:  777777777777  conso    774, @777777(q) ;"______"
014547:  777777777777  conso    774, @777777(q) ;"______"
014550:  777777777777  conso    774, @777777(q) ;"______"
014551:  777777777777  conso    774, @777777(q) ;"______"
014552:  777777777777  conso    774, @777777(q) ;"______"
014553:  777777777777  conso    774, @777777(q) ;"______"
014554:  777777777777  conso    774, @777777(q) ;"______"
014555:  777777777777  conso    774, @777777(q) ;"______"
014556:  777777777777  conso    774, @777777(q) ;"______"
014557:  777777777777  conso    774, @777777(q) ;"______"
014560:  777777777777  conso    774, @777777(q) ;"______"
014561:  777777777777  conso    774, @777777(q) ;"______"
014562:  777777777777  conso    774, @777777(q) ;"______"
014563:  777777777777  conso    774, @777777(q) ;"______"
014564:  777777777777  conso    774, @777777(q) ;"______"
014565:  777777777777  conso    774, @777777(q) ;"______"
014566:  777777777777  conso    774, @777777(q) ;"______"
014567:  777777777777  conso    774, @777777(q) ;"______"
014570:  777777777777  conso    774, @777777(q) ;"______"
014571:  777777777777  conso    774, @777777(q) ;"______"
014572:  777777777777  conso    774, @777777(q) ;"______"
014573:  777777777777  conso    774, @777777(q) ;"______"
014574:  777777777777  conso    774, @777777(q) ;"______"
014575:  777777777777  conso    774, @777777(q) ;"______"
014576:  777777777777  conso    774, @777777(q) ;"______"
014577:  777777777777  conso    774, @777777(q) ;"______"
014600:  777777777777  conso    774, @777777(q) ;"______"
014601:  777777777777  conso    774, @777777(q) ;"______"
014602:  777777777777  conso    774, @777777(q) ;"______"
014603:  777777777777  conso    774, @777777(q) ;"______"
014604:  777777777777  conso    774, @777777(q) ;"______"
014605:  777777777777  conso    774, @777777(q) ;"______"
014606:  777777777777  conso    774, @777777(q) ;"______"
014607:  777777777777  conso    774, @777777(q) ;"______"
014610:  777777777777  conso    774, @777777(q) ;"______"
014611:  777777777777  conso    774, @777777(q) ;"______"
014612:  777777777777  conso    774, @777777(q) ;"______"
014613:  777777777777  conso    774, @777777(q) ;"______"
014614:  777777777777  conso    774, @777777(q) ;"______"
014615:  777777777777  conso    774, @777777(q) ;"______"
014616:  777777777777  conso    774, @777777(q) ;"______"
014617:  777777777777  conso    774, @777777(q) ;"______"
014620:  777777777777  conso    774, @777777(q) ;"______"
014621:  777777777777  conso    774, @777777(q) ;"______"
014622:  777777777777  conso    774, @777777(q) ;"______"
014623:  777777777777  conso    774, @777777(q) ;"______"
014624:  777777777777  conso    774, @777777(q) ;"______"
014625:  777777777777  conso    774, @777777(q) ;"______"
014626:  777777777777  conso    774, @777777(q) ;"______"
014627:  777777777777  conso    774, @777777(q) ;"______"
014630:  777777777777  conso    774, @777777(q) ;"______"
014631:  777777777777  conso    774, @777777(q) ;"______"
014632:  777777777777  conso    774, @777777(q) ;"______"
014633:  777777777777  conso    774, @777777(q) ;"______"
014634:  777777777777  conso    774, @777777(q) ;"______"
014635:  777777777777  conso    774, @777777(q) ;"______"
014636:  777777777777  conso    774, @777777(q) ;"______"
014637:  777777777777  conso    774, @777777(q) ;"______"
014640:  777777777777  conso    774, @777777(q) ;"______"
014641:  777777777777  conso    774, @777777(q) ;"______"
014642:  777777777777  conso    774, @777777(q) ;"______"
014643:  777777777777  conso    774, @777777(q) ;"______"
014644:  777777777777  conso    774, @777777(q) ;"______"
014645:  777777777777  conso    774, @777777(q) ;"______"
014646:  777777777777  conso    774, @777777(q) ;"______"
014647:  777777777777  conso    774, @777777(q) ;"______"
014650:  777777777777  conso    774, @777777(q) ;"______"
014651:  777777777777  conso    774, @777777(q) ;"______"
014652:  777777777777  conso    774, @777777(q) ;"______"
014653:  777777777777  conso    774, @777777(q) ;"______"
014654:  777777777777  conso    774, @777777(q) ;"______"
014655:  777777777777  conso    774, @777777(q) ;"______"
014656:  777777777777  conso    774, @777777(q) ;"______"
014657:  777777777777  conso    774, @777777(q) ;"______"
014660:  777777777777  conso    774, @777777(q) ;"______"
014661:  777777777777  conso    774, @777777(q) ;"______"
014662:  777777777777  conso    774, @777777(q) ;"______"
014663:  777777777777  conso    774, @777777(q) ;"______"
014664:  777777777777  conso    774, @777777(q) ;"______"
014665:  777777777777  conso    774, @777777(q) ;"______"
014666:  777777777777  conso    774, @777777(q) ;"______"
014667:  777777777777  conso    774, @777777(q) ;"______"
014670:  777777777777  conso    774, @777777(q) ;"______"
014671:  777777777777  conso    774, @777777(q) ;"______"
014672:  777777777777  conso    774, @777777(q) ;"______"
014673:  777777777777  conso    774, @777777(q) ;"______"
014674:  777777777777  conso    774, @777777(q) ;"______"
014675:  777777777777  conso    774, @777777(q) ;"______"
014676:  777777777777  conso    774, @777777(q) ;"______"
014677:  777777777777  conso    774, @777777(q) ;"______"
014700:  777777777777  conso    774, @777777(q) ;"______"
014701:  777777777777  conso    774, @777777(q) ;"______"
014702:  777777777777  conso    774, @777777(q) ;"______"
014703:  777777777777  conso    774, @777777(q) ;"______"
014704:  777777777777  conso    774, @777777(q) ;"______"
014705:  777777777777  conso    774, @777777(q) ;"______"
014706:  777777777777  conso    774, @777777(q) ;"______"
014707:  777777777777  conso    774, @777777(q) ;"______"
014710:  777777777777  conso    774, @777777(q) ;"______"
014711:  777777777777  conso    774, @777777(q) ;"______"
014712:  777777777777  conso    774, @777777(q) ;"______"
014713:  777777777777  conso    774, @777777(q) ;"______"
014714:  777777777777  conso    774, @777777(q) ;"______"
014715:  777777777777  conso    774, @777777(q) ;"______"
014716:  777777777777  conso    774, @777777(q) ;"______"
014717:  777777777777  conso    774, @777777(q) ;"______"
014720:  777777777777  conso    774, @777777(q) ;"______"
014721:  777777777777  conso    774, @777777(q) ;"______"
014722:  777777777777  conso    774, @777777(q) ;"______"
014723:  777777777777  conso    774, @777777(q) ;"______"
014724:  777777777777  conso    774, @777777(q) ;"______"
014725:  777777777777  conso    774, @777777(q) ;"______"
014726:  777777777777  conso    774, @777777(q) ;"______"
014727:  777777777777  conso    774, @777777(q) ;"______"
014730:  777777777777  conso    774, @777777(q) ;"______"
014731:  777777777777  conso    774, @777777(q) ;"______"
014732:  777777777777  conso    774, @777777(q) ;"______"
014733:  777777777777  conso    774, @777777(q) ;"______"
014734:  777777777777  conso    774, @777777(q) ;"______"
014735:  777777777777  conso    774, @777777(q) ;"______"
014736:  777777777777  conso    774, @777777(q) ;"______"
014737:  777777777777  conso    774, @777777(q) ;"______"
014740:  777777777777  conso    774, @777777(q) ;"______"
014741:  777777777777  conso    774, @777777(q) ;"______"
014742:  777777777777  conso    774, @777777(q) ;"______"
014743:  777777777777  conso    774, @777777(q) ;"______"
014744:  777777777777  conso    774, @777777(q) ;"______"
014745:  777777777777  conso    774, @777777(q) ;"______"
014746:  777777777777  conso    774, @777777(q) ;"______"
014747:  777777777777  conso    774, @777777(q) ;"______"
014750:  777777777777  conso    774, @777777(q) ;"______"
014751:  777777777777  conso    774, @777777(q) ;"______"
014752:  777777777777  conso    774, @777777(q) ;"______"
014753:  777777777777  conso    774, @777777(q) ;"______"
014754:  777777777777  conso    774, @777777(q) ;"______"
014755:  777777777777  conso    774, @777777(q) ;"______"
014756:  777777777777  conso    774, @777777(q) ;"______"
014757:  777777777777  conso    774, @777777(q) ;"______"
014760:  777777777777  conso    774, @777777(q) ;"______"
014761:  777777777777  conso    774, @777777(q) ;"______"
014762:  777777777777  conso    774, @777777(q) ;"______"
014763:  777777777777  conso    774, @777777(q) ;"______"
014764:  777777777777  conso    774, @777777(q) ;"______"
014765:  777777777777  conso    774, @777777(q) ;"______"
014766:  777777777777  conso    774, @777777(q) ;"______"
014767:  777777777777  conso    774, @777777(q) ;"______"
014770:  777777777777  conso    774, @777777(q) ;"______"
014771:  777777777777  conso    774, @777777(q) ;"______"
014772:  777777777777  conso    774, @777777(q) ;"______"
014773:  777777777777  conso    774, @777777(q) ;"______"
014774:  777777777777  conso    774, @777777(q) ;"______"
014775:  777777777777  conso    774, @777777(q) ;"______"
014776:  777777777777  conso    774, @777777(q) ;"______"
014777:  777777777777  conso    774, @777777(q) ;"______"
015000:  777777777777  conso    774, @777777(q) ;"______"
015001:  777777777777  conso    774, @777777(q) ;"______"
015002:  777777777777  conso    774, @777777(q) ;"______"
015003:  777777777777  conso    774, @777777(q) ;"______"
015004:  777777777777  conso    774, @777777(q) ;"______"
015005:  777777777777  conso    774, @777777(q) ;"______"
015006:  777777777777  conso    774, @777777(q) ;"______"
015007:  777777777777  conso    774, @777777(q) ;"______"
015010:  777777777777  conso    774, @777777(q) ;"______"
015011:  777777777777  conso    774, @777777(q) ;"______"
015012:  777777777777  conso    774, @777777(q) ;"______"
015013:  777777777777  conso    774, @777777(q) ;"______"
015014:  777777777777  conso    774, @777777(q) ;"______"
015015:  777777777777  conso    774, @777777(q) ;"______"
015016:  777777777777  conso    774, @777777(q) ;"______"
015017:  777777777777  conso    774, @777777(q) ;"______"
015020:  777777777777  conso    774, @777777(q) ;"______"
015021:  777777777777  conso    774, @777777(q) ;"______"
015022:  777777777777  conso    774, @777777(q) ;"______"
015023:  777777777777  conso    774, @777777(q) ;"______"
015024:  777777777777  conso    774, @777777(q) ;"______"
015025:  777777777777  conso    774, @777777(q) ;"______"
015026:  777777777777  conso    774, @777777(q) ;"______"
015027:  777777777777  conso    774, @777777(q) ;"______"
015030:  777777777777  conso    774, @777777(q) ;"______"
015031:  777777777777  conso    774, @777777(q) ;"______"
015032:  777777777777  conso    774, @777777(q) ;"______"
015033:  777777777777  conso    774, @777777(q) ;"______"
015034:  777777777777  conso    774, @777777(q) ;"______"
015035:  777777777777  conso    774, @777777(q) ;"______"
015036:  777777777777  conso    774, @777777(q) ;"______"
015037:  777777777777  conso    774, @777777(q) ;"______"
015040:  777777777777  conso    774, @777777(q) ;"______"
015041:  777777777777  conso    774, @777777(q) ;"______"
015042:  777777777777  conso    774, @777777(q) ;"______"
015043:  777777777777  conso    774, @777777(q) ;"______"
015044:  777777777777  conso    774, @777777(q) ;"______"
015045:  777777777777  conso    774, @777777(q) ;"______"
015046:  777777777777  conso    774, @777777(q) ;"______"
015047:  777777777777  conso    774, @777777(q) ;"______"
015050:  777777777777  conso    774, @777777(q) ;"______"
015051:  777777777777  conso    774, @777777(q) ;"______"
015052:  777777777777  conso    774, @777777(q) ;"______"
015053:  777777777777  conso    774, @777777(q) ;"______"
015054:  777777777777  conso    774, @777777(q) ;"______"
015055:  777777777777  conso    774, @777777(q) ;"______"
015056:  777777777777  conso    774, @777777(q) ;"______"
015057:  777777777777  conso    774, @777777(q) ;"______"
015060:  777777777777  conso    774, @777777(q) ;"______"
015061:  777777777777  conso    774, @777777(q) ;"______"
015062:  777777777777  conso    774, @777777(q) ;"______"
015063:  777777777777  conso    774, @777777(q) ;"______"
015064:  777777777777  conso    774, @777777(q) ;"______"
015065:  777777777777  conso    774, @777777(q) ;"______"
015066:  777777777777  conso    774, @777777(q) ;"______"
015067:  777777777777  conso    774, @777777(q) ;"______"
015070:  777777777777  conso    774, @777777(q) ;"______"
015071:  777777777777  conso    774, @777777(q) ;"______"
015072:  777777777777  conso    774, @777777(q) ;"______"
015073:  777777777777  conso    774, @777777(q) ;"______"
015074:  777777777777  conso    774, @777777(q) ;"______"
015075:  777777777777  conso    774, @777777(q) ;"______"
015076:  777777777777  conso    774, @777777(q) ;"______"
015077:  777777777777  conso    774, @777777(q) ;"______"
015100:  777777777777  conso    774, @777777(q) ;"______"
015101:  777777777777  conso    774, @777777(q) ;"______"
015102:  777777777777  conso    774, @777777(q) ;"______"
015103:  777777777777  conso    774, @777777(q) ;"______"
015104:  777777777777  conso    774, @777777(q) ;"______"
015105:  777777777777  conso    774, @777777(q) ;"______"
015106:  777777777777  conso    774, @777777(q) ;"______"
015107:  777777777777  conso    774, @777777(q) ;"______"
015110:  777777777777  conso    774, @777777(q) ;"______"
015111:  777777777777  conso    774, @777777(q) ;"______"
015112:  777777777777  conso    774, @777777(q) ;"______"
015113:  777777777777  conso    774, @777777(q) ;"______"
015114:  777777777777  conso    774, @777777(q) ;"______"
015115:  777777777777  conso    774, @777777(q) ;"______"
015116:  777777777777  conso    774, @777777(q) ;"______"
015117:  777777777777  conso    774, @777777(q) ;"______"
015120:  777777777777  conso    774, @777777(q) ;"______"
015121:  777777777777  conso    774, @777777(q) ;"______"
015122:  777777777777  conso    774, @777777(q) ;"______"
015123:  777777777777  conso    774, @777777(q) ;"______"
015124:  777777777777  conso    774, @777777(q) ;"______"
015125:  777777777777  conso    774, @777777(q) ;"______"
015126:  777777777777  conso    774, @777777(q) ;"______"
015127:  777777777777  conso    774, @777777(q) ;"______"
015130:  777777777777  conso    774, @777777(q) ;"______"
015131:  777777777777  conso    774, @777777(q) ;"______"
015132:  777777777777  conso    774, @777777(q) ;"______"
015133:  777777777777  conso    774, @777777(q) ;"______"
015134:  777777777777  conso    774, @777777(q) ;"______"
015135:  777777777777  conso    774, @777777(q) ;"______"
015136:  777777777777  conso    774, @777777(q) ;"______"
015137:  777777777777  conso    774, @777777(q) ;"______"
015140:  777777777777  conso    774, @777777(q) ;"______"
015141:  777777777777  conso    774, @777777(q) ;"______"
015142:  777777777777  conso    774, @777777(q) ;"______"
015143:  777777777777  conso    774, @777777(q) ;"______"
015144:  777777777777  conso    774, @777777(q) ;"______"
015145:  777777777777  conso    774, @777777(q) ;"______"
015146:  777777777777  conso    774, @777777(q) ;"______"
015147:  777777777777  conso    774, @777777(q) ;"______"
015150:  777777777777  conso    774, @777777(q) ;"______"
015151:  777777777777  conso    774, @777777(q) ;"______"
015152:  777777777777  conso    774, @777777(q) ;"______"
015153:  777777777777  conso    774, @777777(q) ;"______"
015154:  777777777777  conso    774, @777777(q) ;"______"
015155:  777777777777  conso    774, @777777(q) ;"______"
015156:  777777777777  conso    774, @777777(q) ;"______"
015157:  777777777777  conso    774, @777777(q) ;"______"
015160:  777777777777  conso    774, @777777(q) ;"______"
015161:  777777777777  conso    774, @777777(q) ;"______"
015162:  777777777777  conso    774, @777777(q) ;"______"
015163:  777777777777  conso    774, @777777(q) ;"______"
015164:  777777777777  conso    774, @777777(q) ;"______"
015165:  777777777777  conso    774, @777777(q) ;"______"
015166:  777777777777  conso    774, @777777(q) ;"______"
015167:  777777777777  conso    774, @777777(q) ;"______"
015170:  777777777777  conso    774, @777777(q) ;"______"
015171:  777777777777  conso    774, @777777(q) ;"______"
015172:  777777777777  conso    774, @777777(q) ;"______"
015173:  777777777777  conso    774, @777777(q) ;"______"
015174:  777777777777  conso    774, @777777(q) ;"______"
015175:  777777777777  conso    774, @777777(q) ;"______"
015176:  777777777777  conso    774, @777777(q) ;"______"
015177:  777777777777  conso    774, @777777(q) ;"______"
015200:  777777777777  conso    774, @777777(q) ;"______"
015201:  777777777777  conso    774, @777777(q) ;"______"
015202:  777777777777  conso    774, @777777(q) ;"______"
015203:  777777777777  conso    774, @777777(q) ;"______"
015204:  777777777777  conso    774, @777777(q) ;"______"
015205:  777777777777  conso    774, @777777(q) ;"______"
015206:  777777777777  conso    774, @777777(q) ;"______"
015207:  777777777777  conso    774, @777777(q) ;"______"
015210:  777777777777  conso    774, @777777(q) ;"______"
015211:  777777777777  conso    774, @777777(q) ;"______"
015212:  777777777777  conso    774, @777777(q) ;"______"
015213:  777777777777  conso    774, @777777(q) ;"______"
015214:  777777777777  conso    774, @777777(q) ;"______"
015215:  777777777777  conso    774, @777777(q) ;"______"
015216:  777777777777  conso    774, @777777(q) ;"______"
015217:  777777777777  conso    774, @777777(q) ;"______"
015220:  777777777777  conso    774, @777777(q) ;"______"
015221:  777777777777  conso    774, @777777(q) ;"______"
015222:  777777777777  conso    774, @777777(q) ;"______"
015223:  777777777777  conso    774, @777777(q) ;"______"
015224:  777777777777  conso    774, @777777(q) ;"______"
015225:  777777777777  conso    774, @777777(q) ;"______"
015226:  777777777777  conso    774, @777777(q) ;"______"
015227:  777777777777  conso    774, @777777(q) ;"______"
015230:  777777777777  conso    774, @777777(q) ;"______"
015231:  777777777777  conso    774, @777777(q) ;"______"
015232:  777777777777  conso    774, @777777(q) ;"______"
015233:  777777777777  conso    774, @777777(q) ;"______"
015234:  777777777777  conso    774, @777777(q) ;"______"
015235:  777777777777  conso    774, @777777(q) ;"______"
015236:  777777777777  conso    774, @777777(q) ;"______"
015237:  777777777777  conso    774, @777777(q) ;"______"
015240:  777777777777  conso    774, @777777(q) ;"______"
015241:  777777777777  conso    774, @777777(q) ;"______"
015242:  777777777777  conso    774, @777777(q) ;"______"
015243:  777777777777  conso    774, @777777(q) ;"______"
015244:  777777777777  conso    774, @777777(q) ;"______"
015245:  777777777777  conso    774, @777777(q) ;"______"
015246:  777777777777  conso    774, @777777(q) ;"______"
015247:  777777777777  conso    774, @777777(q) ;"______"
015250:  777777777777  conso    774, @777777(q) ;"______"
015251:  777777777777  conso    774, @777777(q) ;"______"
015252:  777777777777  conso    774, @777777(q) ;"______"
015253:  777777777777  conso    774, @777777(q) ;"______"
015254:  777777777777  conso    774, @777777(q) ;"______"
015255:  777777777777  conso    774, @777777(q) ;"______"
015256:  777777777777  conso    774, @777777(q) ;"______"
015257:  777777777777  conso    774, @777777(q) ;"______"
015260:  777777777777  conso    774, @777777(q) ;"______"
015261:  777777777777  conso    774, @777777(q) ;"______"
015262:  777777777777  conso    774, @777777(q) ;"______"
015263:  777777777777  conso    774, @777777(q) ;"______"
015264:  777777777777  conso    774, @777777(q) ;"______"
015265:  777777777777  conso    774, @777777(q) ;"______"
015266:  777777777777  conso    774, @777777(q) ;"______"
015267:  777777777777  conso    774, @777777(q) ;"______"
015270:  777777777777  conso    774, @777777(q) ;"______"
015271:  777777777777  conso    774, @777777(q) ;"______"
015272:  777777777777  conso    774, @777777(q) ;"______"
015273:  777777777777  conso    774, @777777(q) ;"______"
015274:  777777777777  conso    774, @777777(q) ;"______"
015275:  777777777777  conso    774, @777777(q) ;"______"
015276:  777777777777  conso    774, @777777(q) ;"______"
015277:  777777777777  conso    774, @777777(q) ;"______"
015300:  777777777777  conso    774, @777777(q) ;"______"
015301:  777777777777  conso    774, @777777(q) ;"______"
015302:  777777777777  conso    774, @777777(q) ;"______"
015303:  777777777777  conso    774, @777777(q) ;"______"
015304:  777777777777  conso    774, @777777(q) ;"______"
015305:  777777777777  conso    774, @777777(q) ;"______"
015306:  777777777777  conso    774, @777777(q) ;"______"
015307:  777777777777  conso    774, @777777(q) ;"______"
015310:  777777777777  conso    774, @777777(q) ;"______"
015311:  777777777777  conso    774, @777777(q) ;"______"
015312:  777777777777  conso    774, @777777(q) ;"______"
015313:  777777777777  conso    774, @777777(q) ;"______"
015314:  777777777777  conso    774, @777777(q) ;"______"
015315:  777777777777  conso    774, @777777(q) ;"______"
015316:  777777777777  conso    774, @777777(q) ;"______"
015317:  777777777777  conso    774, @777777(q) ;"______"
015320:  777777777777  conso    774, @777777(q) ;"______"
015321:  777777777777  conso    774, @777777(q) ;"______"
015322:  777777777777  conso    774, @777777(q) ;"______"
015323:  777777777777  conso    774, @777777(q) ;"______"
015324:  777777777777  conso    774, @777777(q) ;"______"
015325:  777777777777  conso    774, @777777(q) ;"______"
015326:  777777777777  conso    774, @777777(q) ;"______"
015327:  777777777777  conso    774, @777777(q) ;"______"
015330:  777777777777  conso    774, @777777(q) ;"______"
015331:  777777777777  conso    774, @777777(q) ;"______"
015332:  777777777777  conso    774, @777777(q) ;"______"
015333:  777777777777  conso    774, @777777(q) ;"______"
015334:  777777777777  conso    774, @777777(q) ;"______"
015335:  777777777777  conso    774, @777777(q) ;"______"
015336:  777777777777  conso    774, @777777(q) ;"______"
015337:  777777777777  conso    774, @777777(q) ;"______"
015340:  777777777777  conso    774, @777777(q) ;"______"
015341:  777777777777  conso    774, @777777(q) ;"______"
015342:  777777777777  conso    774, @777777(q) ;"______"
015343:  777777777777  conso    774, @777777(q) ;"______"
015344:  777777777777  conso    774, @777777(q) ;"______"
015345:  777777777777  conso    774, @777777(q) ;"______"
015346:  777777777777  conso    774, @777777(q) ;"______"
015347:  777777777777  conso    774, @777777(q) ;"______"
015350:  777777777777  conso    774, @777777(q) ;"______"
015351:  777777777777  conso    774, @777777(q) ;"______"
015352:  777777777777  conso    774, @777777(q) ;"______"
015353:  777777777777  conso    774, @777777(q) ;"______"
015354:  777777777777  conso    774, @777777(q) ;"______"
015355:  777777777777  conso    774, @777777(q) ;"______"
015356:  777777777777  conso    774, @777777(q) ;"______"
015357:  777777777777  conso    774, @777777(q) ;"______"
015360:  777777777777  conso    774, @777777(q) ;"______"
015361:  777777777777  conso    774, @777777(q) ;"______"
015362:  777777777777  conso    774, @777777(q) ;"______"
015363:  777777777777  conso    774, @777777(q) ;"______"
015364:  777777777777  conso    774, @777777(q) ;"______"
015365:  777777777777  conso    774, @777777(q) ;"______"
015366:  777777777777  conso    774, @777777(q) ;"______"
015367:  777777777777  conso    774, @777777(q) ;"______"
015370:  777777777777  conso    774, @777777(q) ;"______"
015371:  777777777777  conso    774, @777777(q) ;"______"
015372:  777777777777  conso    774, @777777(q) ;"______"
015373:  777777777777  conso    774, @777777(q) ;"______"
015374:  777777777777  conso    774, @777777(q) ;"______"
015375:  777777777777  conso    774, @777777(q) ;"______"
015376:  777777777777  conso    774, @777777(q) ;"______"
015377:  777777777777  conso    774, @777777(q) ;"______"
015400:  777777777777  conso    774, @777777(q) ;"______"
015401:  777777777777  conso    774, @777777(q) ;"______"
015402:  777777777777  conso    774, @777777(q) ;"______"
015403:  777777777777  conso    774, @777777(q) ;"______"
015404:  777777777777  conso    774, @777777(q) ;"______"
015405:  777777777777  conso    774, @777777(q) ;"______"
015406:  777777777777  conso    774, @777777(q) ;"______"
015407:  777777777777  conso    774, @777777(q) ;"______"
015410:  777777777777  conso    774, @777777(q) ;"______"
015411:  777777777777  conso    774, @777777(q) ;"______"
015412:  777777777777  conso    774, @777777(q) ;"______"
015413:  777777777777  conso    774, @777777(q) ;"______"
015414:  777777777777  conso    774, @777777(q) ;"______"
015415:  777777777777  conso    774, @777777(q) ;"______"
015416:  777777777777  conso    774, @777777(q) ;"______"
015417:  777777777777  conso    774, @777777(q) ;"______"
015420:  777777777777  conso    774, @777777(q) ;"______"
015421:  777777777777  conso    774, @777777(q) ;"______"
015422:  777777777777  conso    774, @777777(q) ;"______"
015423:  777777777777  conso    774, @777777(q) ;"______"
015424:  777777777777  conso    774, @777777(q) ;"______"
015425:  777777777777  conso    774, @777777(q) ;"______"
015426:  777777777777  conso    774, @777777(q) ;"______"
015427:  777777777777  conso    774, @777777(q) ;"______"
015430:  777777777777  conso    774, @777777(q) ;"______"
015431:  777777777777  conso    774, @777777(q) ;"______"
015432:  777777777777  conso    774, @777777(q) ;"______"
015433:  777777777777  conso    774, @777777(q) ;"______"
015434:  777777777777  conso    774, @777777(q) ;"______"
015435:  777777777777  conso    774, @777777(q) ;"______"
015436:  777777777777  conso    774, @777777(q) ;"______"
015437:  777777777777  conso    774, @777777(q) ;"______"
015440:  777777777777  conso    774, @777777(q) ;"______"
015441:  777777777777  conso    774, @777777(q) ;"______"
015442:  777777777777  conso    774, @777777(q) ;"______"
015443:  777777777777  conso    774, @777777(q) ;"______"
015444:  777777777777  conso    774, @777777(q) ;"______"
015445:  777777777777  conso    774, @777777(q) ;"______"
015446:  777777777777  conso    774, @777777(q) ;"______"
015447:  777777777777  conso    774, @777777(q) ;"______"
015450:  777777777777  conso    774, @777777(q) ;"______"
015451:  777777777777  conso    774, @777777(q) ;"______"
015452:  777777777777  conso    774, @777777(q) ;"______"
015453:  777777777777  conso    774, @777777(q) ;"______"
015454:  777777777777  conso    774, @777777(q) ;"______"
015455:  777777777777  conso    774, @777777(q) ;"______"
015456:  777777777777  conso    774, @777777(q) ;"______"
015457:  777777777777  conso    774, @777777(q) ;"______"
015460:  777777777777  conso    774, @777777(q) ;"______"
015461:  777777777777  conso    774, @777777(q) ;"______"
015462:  777777777777  conso    774, @777777(q) ;"______"
015463:  777777777777  conso    774, @777777(q) ;"______"
015464:  777777777777  conso    774, @777777(q) ;"______"
015465:  777777777777  conso    774, @777777(q) ;"______"
015466:  777777777777  conso    774, @777777(q) ;"______"
015467:  777777777777  conso    774, @777777(q) ;"______"
015470:  777777777777  conso    774, @777777(q) ;"______"
015471:  777777777777  conso    774, @777777(q) ;"______"
015472:  777777777777  conso    774, @777777(q) ;"______"
015473:  777777777777  conso    774, @777777(q) ;"______"
015474:  777777777777  conso    774, @777777(q) ;"______"
015475:  777777777777  conso    774, @777777(q) ;"______"
015476:  777777777777  conso    774, @777777(q) ;"______"
015477:  777777777777  conso    774, @777777(q) ;"______"
015500:  777777777777  conso    774, @777777(q) ;"______"
015501:  777777777777  conso    774, @777777(q) ;"______"
015502:  777777777777  conso    774, @777777(q) ;"______"
015503:  777777777777  conso    774, @777777(q) ;"______"
015504:  777777777777  conso    774, @777777(q) ;"______"
015505:  777777777777  conso    774, @777777(q) ;"______"
015506:  777777777777  conso    774, @777777(q) ;"______"
015507:  777777777777  conso    774, @777777(q) ;"______"
015510:  777777777777  conso    774, @777777(q) ;"______"
015511:  777777777777  conso    774, @777777(q) ;"______"
015512:  777777777777  conso    774, @777777(q) ;"______"
015513:  777777777777  conso    774, @777777(q) ;"______"
015514:  777777777777  conso    774, @777777(q) ;"______"
015515:  777777777777  conso    774, @777777(q) ;"______"
015516:  777777777777  conso    774, @777777(q) ;"______"
015517:  777777777777  conso    774, @777777(q) ;"______"
015520:  777777777777  conso    774, @777777(q) ;"______"
015521:  777777777777  conso    774, @777777(q) ;"______"
015522:  777777777777  conso    774, @777777(q) ;"______"
015523:  777777777777  conso    774, @777777(q) ;"______"
015524:  777777777777  conso    774, @777777(q) ;"______"
015525:  777777777777  conso    774, @777777(q) ;"______"
015526:  777777777777  conso    774, @777777(q) ;"______"
015527:  777777777777  conso    774, @777777(q) ;"______"
015530:  777777777777  conso    774, @777777(q) ;"______"
015531:  777777777777  conso    774, @777777(q) ;"______"
015532:  777777777777  conso    774, @777777(q) ;"______"
015533:  777777777777  conso    774, @777777(q) ;"______"
015534:  777777777777  conso    774, @777777(q) ;"______"
015535:  777777777777  conso    774, @777777(q) ;"______"
015536:  777777777777  conso    774, @777777(q) ;"______"
015537:  777777777777  conso    774, @777777(q) ;"______"
015540:  777777777777  conso    774, @777777(q) ;"______"
015541:  777777777777  conso    774, @777777(q) ;"______"
015542:  777777777777  conso    774, @777777(q) ;"______"
015543:  777777777777  conso    774, @777777(q) ;"______"
015544:  777777777777  conso    774, @777777(q) ;"______"
015545:  777777777777  conso    774, @777777(q) ;"______"
015546:  777777777777  conso    774, @777777(q) ;"______"
015547:  777777777777  conso    774, @777777(q) ;"______"
015550:  777777777777  conso    774, @777777(q) ;"______"
015551:  777777777777  conso    774, @777777(q) ;"______"
015552:  777777777777  conso    774, @777777(q) ;"______"
015553:  777777777777  conso    774, @777777(q) ;"______"
015554:  777777777777  conso    774, @777777(q) ;"______"
015555:  777777777777  conso    774, @777777(q) ;"______"
015556:  777777777777  conso    774, @777777(q) ;"______"
015557:  777777777777  conso    774, @777777(q) ;"______"
015560:  777777777777  conso    774, @777777(q) ;"______"
015561:  777777777777  conso    774, @777777(q) ;"______"
015562:  777777777777  conso    774, @777777(q) ;"______"
015563:  777777777777  conso    774, @777777(q) ;"______"
015564:  777777777777  conso    774, @777777(q) ;"______"
015565:  777777777777  conso    774, @777777(q) ;"______"
015566:  777777777777  conso    774, @777777(q) ;"______"
015567:  777777777777  conso    774, @777777(q) ;"______"
015570:  777777777777  conso    774, @777777(q) ;"______"
015571:  777777777777  conso    774, @777777(q) ;"______"
015572:  777777777777  conso    774, @777777(q) ;"______"
015573:  777777777777  conso    774, @777777(q) ;"______"
015574:  777777777777  conso    774, @777777(q) ;"______"
015575:  777777777777  conso    774, @777777(q) ;"______"
015576:  777777777777  conso    774, @777777(q) ;"______"
015577:  777777777777  conso    774, @777777(q) ;"______"
015600:  777777777777  conso    774, @777777(q) ;"______"
015601:  777777777777  conso    774, @777777(q) ;"______"
015602:  777777777777  conso    774, @777777(q) ;"______"
015603:  777777777777  conso    774, @777777(q) ;"______"
015604:  777777777777  conso    774, @777777(q) ;"______"
015605:  777777777777  conso    774, @777777(q) ;"______"
015606:  777777777777  conso    774, @777777(q) ;"______"
015607:  777777777777  conso    774, @777777(q) ;"______"
015610:  777777777777  conso    774, @777777(q) ;"______"
015611:  777777777777  conso    774, @777777(q) ;"______"
015612:  777777777777  conso    774, @777777(q) ;"______"
015613:  777777777777  conso    774, @777777(q) ;"______"
015614:  777777777777  conso    774, @777777(q) ;"______"
015615:  777777777777  conso    774, @777777(q) ;"______"
015616:  777777777777  conso    774, @777777(q) ;"______"
015617:  777777777777  conso    774, @777777(q) ;"______"
015620:  777777777777  conso    774, @777777(q) ;"______"
015621:  777777777777  conso    774, @777777(q) ;"______"
015622:  777777777777  conso    774, @777777(q) ;"______"
015623:  777777777777  conso    774, @777777(q) ;"______"
015624:  777777777777  conso    774, @777777(q) ;"______"
015625:  777777777777  conso    774, @777777(q) ;"______"
015626:  777777777777  conso    774, @777777(q) ;"______"
015627:  777777777777  conso    774, @777777(q) ;"______"
015630:  777777777777  conso    774, @777777(q) ;"______"
015631:  777777777777  conso    774, @777777(q) ;"______"
015632:  777777777777  conso    774, @777777(q) ;"______"
015633:  777777777777  conso    774, @777777(q) ;"______"
015634:  777777777777  conso    774, @777777(q) ;"______"
015635:  777777777777  conso    774, @777777(q) ;"______"
015636:  777777777777  conso    774, @777777(q) ;"______"
015637:  777777777777  conso    774, @777777(q) ;"______"
015640:  777777777777  conso    774, @777777(q) ;"______"
015641:  777777777777  conso    774, @777777(q) ;"______"
015642:  777777777777  conso    774, @777777(q) ;"______"
015643:  777777777777  conso    774, @777777(q) ;"______"
015644:  777777777777  conso    774, @777777(q) ;"______"
015645:  777777777777  conso    774, @777777(q) ;"______"
015646:  777777777777  conso    774, @777777(q) ;"______"
015647:  777777777777  conso    774, @777777(q) ;"______"
015650:  777777777777  conso    774, @777777(q) ;"______"
015651:  777777777777  conso    774, @777777(q) ;"______"
015652:  777777777777  conso    774, @777777(q) ;"______"
015653:  777777777777  conso    774, @777777(q) ;"______"
015654:  777777777777  conso    774, @777777(q) ;"______"
015655:  777777777777  conso    774, @777777(q) ;"______"
015656:  777777777777  conso    774, @777777(q) ;"______"
015657:  777777777777  conso    774, @777777(q) ;"______"
015660:  777777777777  conso    774, @777777(q) ;"______"
015661:  777777777777  conso    774, @777777(q) ;"______"
015662:  777777777777  conso    774, @777777(q) ;"______"
015663:  777777777777  conso    774, @777777(q) ;"______"
015664:  777777777777  conso    774, @777777(q) ;"______"
015665:  777777777777  conso    774, @777777(q) ;"______"
015666:  777777777777  conso    774, @777777(q) ;"______"
015667:  777777777777  conso    774, @777777(q) ;"______"
015670:  777777777777  conso    774, @777777(q) ;"______"
015671:  777777777777  conso    774, @777777(q) ;"______"
015672:  777777777777  conso    774, @777777(q) ;"______"
015673:  777777777777  conso    774, @777777(q) ;"______"
015674:  777777777777  conso    774, @777777(q) ;"______"
015675:  777777777777  conso    774, @777777(q) ;"______"
015676:  777777777777  conso    774, @777777(q) ;"______"
015677:  777777777777  conso    774, @777777(q) ;"______"
015700:  777777777777  conso    774, @777777(q) ;"______"
015701:  777777777777  conso    774, @777777(q) ;"______"
015702:  777777777777  conso    774, @777777(q) ;"______"
015703:  777777777777  conso    774, @777777(q) ;"______"
015704:  777777777777  conso    774, @777777(q) ;"______"
015705:  777777777777  conso    774, @777777(q) ;"______"
015706:  777777777777  conso    774, @777777(q) ;"______"
015707:  777777777777  conso    774, @777777(q) ;"______"
015710:  777777777777  conso    774, @777777(q) ;"______"
015711:  777777777777  conso    774, @777777(q) ;"______"
015712:  777777777777  conso    774, @777777(q) ;"______"
015713:  777777777777  conso    774, @777777(q) ;"______"
015714:  777777777777  conso    774, @777777(q) ;"______"
015715:  777777777777  conso    774, @777777(q) ;"______"
015716:  777777777777  conso    774, @777777(q) ;"______"
015717:  777777777777  conso    774, @777777(q) ;"______"
015720:  777777777777  conso    774, @777777(q) ;"______"
015721:  777777777777  conso    774, @777777(q) ;"______"
015722:  777777777777  conso    774, @777777(q) ;"______"
015723:  777777777777  conso    774, @777777(q) ;"______"
015724:  777777777777  conso    774, @777777(q) ;"______"
015725:  777777777777  conso    774, @777777(q) ;"______"
015726:  777777777777  conso    774, @777777(q) ;"______"
015727:  777777777777  conso    774, @777777(q) ;"______"
015730:  777777777777  conso    774, @777777(q) ;"______"
015731:  777777777777  conso    774, @777777(q) ;"______"
015732:  777777777777  conso    774, @777777(q) ;"______"
015733:  777777777777  conso    774, @777777(q) ;"______"
015734:  777777777777  conso    774, @777777(q) ;"______"
015735:  777777777777  conso    774, @777777(q) ;"______"
015736:  777777777777  conso    774, @777777(q) ;"______"
015737:  777777777777  conso    774, @777777(q) ;"______"
015740:  777777777777  conso    774, @777777(q) ;"______"
015741:  777777777777  conso    774, @777777(q) ;"______"
015742:  777777777777  conso    774, @777777(q) ;"______"
015743:  777777777777  conso    774, @777777(q) ;"______"
015744:  777777777777  conso    774, @777777(q) ;"______"
015745:  777777777777  conso    774, @777777(q) ;"______"
015746:  777777777777  conso    774, @777777(q) ;"______"
015747:  777777777777  conso    774, @777777(q) ;"______"
015750:  777777777777  conso    774, @777777(q) ;"______"
015751:  777777777777  conso    774, @777777(q) ;"______"
015752:  777777777777  conso    774, @777777(q) ;"______"
015753:  777777777777  conso    774, @777777(q) ;"______"
015754:  777777777777  conso    774, @777777(q) ;"______"
015755:  777777777777  conso    774, @777777(q) ;"______"
015756:  777777777777  conso    774, @777777(q) ;"______"
015757:  777777777777  conso    774, @777777(q) ;"______"
015760:  777777777777  conso    774, @777777(q) ;"______"
015761:  777777777777  conso    774, @777777(q) ;"______"
015762:  777777777777  conso    774, @777777(q) ;"______"
015763:  777777777777  conso    774, @777777(q) ;"______"
015764:  777777777777  conso    774, @777777(q) ;"______"
015765:  777777777777  conso    774, @777777(q) ;"______"
015766:  777777777777  conso    774, @777777(q) ;"______"
015767:  777777777777  conso    774, @777777(q) ;"______"
015770:  777777777777  conso    774, @777777(q) ;"______"
015771:  777777777777  conso    774, @777777(q) ;"______"
015772:  777777777777  conso    774, @777777(q) ;"______"
015773:  777777777777  conso    774, @777777(q) ;"______"
015774:  777777777777  conso    774, @777777(q) ;"______"
015775:  777777777777  conso    774, @777777(q) ;"______"
015776:  777777777777  conso    774, @777777(q) ;"______"
015777:  777777777777  conso    774, @777777(q) ;"______"
016000:  777777777777  conso    774, @777777(q) ;"______"
016001:  777777777777  conso    774, @777777(q) ;"______"
016002:  777777777777  conso    774, @777777(q) ;"______"
016003:  777777777777  conso    774, @777777(q) ;"______"
016004:  777777777777  conso    774, @777777(q) ;"______"
016005:  777777777777  conso    774, @777777(q) ;"______"
016006:  777777777777  conso    774, @777777(q) ;"______"
016007:  777777777777  conso    774, @777777(q) ;"______"
016010:  777777777777  conso    774, @777777(q) ;"______"
016011:  777777777777  conso    774, @777777(q) ;"______"
016012:  777777777777  conso    774, @777777(q) ;"______"
016013:  777777777777  conso    774, @777777(q) ;"______"
016014:  777777777777  conso    774, @777777(q) ;"______"
016015:  777777777777  conso    774, @777777(q) ;"______"
016016:  777777777777  conso    774, @777777(q) ;"______"
016017:  777777777777  conso    774, @777777(q) ;"______"
016020:  777777777777  conso    774, @777777(q) ;"______"
016021:  777777777777  conso    774, @777777(q) ;"______"
016022:  777777777777  conso    774, @777777(q) ;"______"
016023:  777777777777  conso    774, @777777(q) ;"______"
016024:  777777777777  conso    774, @777777(q) ;"______"
016025:  777777777777  conso    774, @777777(q) ;"______"
016026:  777777777777  conso    774, @777777(q) ;"______"
016027:  777777777777  conso    774, @777777(q) ;"______"
016030:  777777777777  conso    774, @777777(q) ;"______"
016031:  777777777777  conso    774, @777777(q) ;"______"
016032:  777777777777  conso    774, @777777(q) ;"______"
016033:  777777777777  conso    774, @777777(q) ;"______"
016034:  777777777777  conso    774, @777777(q) ;"______"
016035:  777777777777  conso    774, @777777(q) ;"______"
016036:  777777777777  conso    774, @777777(q) ;"______"
016037:  777777777777  conso    774, @777777(q) ;"______"
016040:  777777777777  conso    774, @777777(q) ;"______"
016041:  777777777777  conso    774, @777777(q) ;"______"
016042:  777777777777  conso    774, @777777(q) ;"______"
016043:  777777777777  conso    774, @777777(q) ;"______"
016044:  777777777777  conso    774, @777777(q) ;"______"
016045:  777777777777  conso    774, @777777(q) ;"______"
016046:  777777777777  conso    774, @777777(q) ;"______"
016047:  777777777777  conso    774, @777777(q) ;"______"
016050:  777777777777  conso    774, @777777(q) ;"______"
016051:  777777777777  conso    774, @777777(q) ;"______"
016052:  777777777777  conso    774, @777777(q) ;"______"
016053:  777777777777  conso    774, @777777(q) ;"______"
016054:  777777777777  conso    774, @777777(q) ;"______"
016055:  777777777777  conso    774, @777777(q) ;"______"
016056:  777777777777  conso    774, @777777(q) ;"______"
016057:  777777777777  conso    774, @777777(q) ;"______"
016060:  777777777777  conso    774, @777777(q) ;"______"
016061:  777777777777  conso    774, @777777(q) ;"______"
016062:  777777777777  conso    774, @777777(q) ;"______"
016063:  777777777777  conso    774, @777777(q) ;"______"
016064:  777777777777  conso    774, @777777(q) ;"______"
016065:  777777777777  conso    774, @777777(q) ;"______"
016066:  777777777777  conso    774, @777777(q) ;"______"
016067:  777777777777  conso    774, @777777(q) ;"______"
016070:  777777777777  conso    774, @777777(q) ;"______"
016071:  777777777777  conso    774, @777777(q) ;"______"
016072:  777777777777  conso    774, @777777(q) ;"______"
016073:  777777777777  conso    774, @777777(q) ;"______"
016074:  777777777777  conso    774, @777777(q) ;"______"
016075:  777777777777  conso    774, @777777(q) ;"______"
016076:  777777777777  conso    774, @777777(q) ;"______"
016077:  777777777777  conso    774, @777777(q) ;"______"
016100:  777777777777  conso    774, @777777(q) ;"______"
016101:  777777777777  conso    774, @777777(q) ;"______"
016102:  777777777777  conso    774, @777777(q) ;"______"
016103:  777777777777  conso    774, @777777(q) ;"______"
016104:  777777777777  conso    774, @777777(q) ;"______"
016105:  777777777777  conso    774, @777777(q) ;"______"
016106:  777777777777  conso    774, @777777(q) ;"______"
016107:  777777777777  conso    774, @777777(q) ;"______"
016110:  777777777777  conso    774, @777777(q) ;"______"
016111:  777777777777  conso    774, @777777(q) ;"______"
016112:  777777777777  conso    774, @777777(q) ;"______"
016113:  777777777777  conso    774, @777777(q) ;"______"
016114:  777777777777  conso    774, @777777(q) ;"______"
016115:  777777777777  conso    774, @777777(q) ;"______"
016116:  777777777777  conso    774, @777777(q) ;"______"
016117:  777777777777  conso    774, @777777(q) ;"______"
016120:  777777777777  conso    774, @777777(q) ;"______"
016121:  777777777777  conso    774, @777777(q) ;"______"
016122:  777777777777  conso    774, @777777(q) ;"______"
016123:  777777777777  conso    774, @777777(q) ;"______"
016124:  777777777777  conso    774, @777777(q) ;"______"
016125:  777777777777  conso    774, @777777(q) ;"______"
016126:  777777777777  conso    774, @777777(q) ;"______"
016127:  777777777777  conso    774, @777777(q) ;"______"
016130:  777777777777  conso    774, @777777(q) ;"______"
016131:  777777777777  conso    774, @777777(q) ;"______"
016132:  777777777777  conso    774, @777777(q) ;"______"
016133:  777777777777  conso    774, @777777(q) ;"______"
016134:  777777777777  conso    774, @777777(q) ;"______"
016135:  777777777777  conso    774, @777777(q) ;"______"
016136:  777777777777  conso    774, @777777(q) ;"______"
016137:  777777777777  conso    774, @777777(q) ;"______"
016140:  777777777777  conso    774, @777777(q) ;"______"
016141:  777777777777  conso    774, @777777(q) ;"______"
016142:  777777777777  conso    774, @777777(q) ;"______"
016143:  777777777777  conso    774, @777777(q) ;"______"
016144:  777777777777  conso    774, @777777(q) ;"______"
016145:  777777777777  conso    774, @777777(q) ;"______"
016146:  777777777777  conso    774, @777777(q) ;"______"
016147:  777777777777  conso    774, @777777(q) ;"______"
016150:  777777777777  conso    774, @777777(q) ;"______"
016151:  777777777777  conso    774, @777777(q) ;"______"
016152:  777777777777  conso    774, @777777(q) ;"______"
016153:  777777777777  conso    774, @777777(q) ;"______"
016154:  777777777777  conso    774, @777777(q) ;"______"
016155:  777777777777  conso    774, @777777(q) ;"______"
016156:  777777777777  conso    774, @777777(q) ;"______"
016157:  777777777777  conso    774, @777777(q) ;"______"
016160:  777777777777  conso    774, @777777(q) ;"______"
016161:  777777777777  conso    774, @777777(q) ;"______"
016162:  777777777777  conso    774, @777777(q) ;"______"
016163:  777777777777  conso    774, @777777(q) ;"______"
016164:  777777777777  conso    774, @777777(q) ;"______"
016165:  777777777777  conso    774, @777777(q) ;"______"
016166:  777777777777  conso    774, @777777(q) ;"______"
016167:  777777777777  conso    774, @777777(q) ;"______"
016170:  777777777777  conso    774, @777777(q) ;"______"
016171:  777777777777  conso    774, @777777(q) ;"______"
016172:  777777777777  conso    774, @777777(q) ;"______"
016173:  777777777777  conso    774, @777777(q) ;"______"
016174:  777777777777  conso    774, @777777(q) ;"______"
016175:  777777777777  conso    774, @777777(q) ;"______"
016176:  777777777777  conso    774, @777777(q) ;"______"
016177:  777777777777  conso    774, @777777(q) ;"______"
016200:  777777777777  conso    774, @777777(q) ;"______"
016201:  777777777777  conso    774, @777777(q) ;"______"
016202:  777777777777  conso    774, @777777(q) ;"______"
016203:  777777777777  conso    774, @777777(q) ;"______"
016204:  777777777777  conso    774, @777777(q) ;"______"
016205:  777777777777  conso    774, @777777(q) ;"______"
016206:  777777777777  conso    774, @777777(q) ;"______"
016207:  777777777777  conso    774, @777777(q) ;"______"
016210:  777777777777  conso    774, @777777(q) ;"______"
016211:  777777777777  conso    774, @777777(q) ;"______"
016212:  777777777777  conso    774, @777777(q) ;"______"
016213:  777777777777  conso    774, @777777(q) ;"______"
016214:  777777777777  conso    774, @777777(q) ;"______"
016215:  777777777777  conso    774, @777777(q) ;"______"
016216:  777777777777  conso    774, @777777(q) ;"______"
016217:  777777777777  conso    774, @777777(q) ;"______"
016220:  777777777777  conso    774, @777777(q) ;"______"
016221:  777777777777  conso    774, @777777(q) ;"______"
016222:  777777777777  conso    774, @777777(q) ;"______"
016223:  777777777777  conso    774, @777777(q) ;"______"
016224:  777777777777  conso    774, @777777(q) ;"______"
016225:  777777777777  conso    774, @777777(q) ;"______"
016226:  777777777777  conso    774, @777777(q) ;"______"
016227:  777777777777  conso    774, @777777(q) ;"______"
016230:  777777777777  conso    774, @777777(q) ;"______"
016231:  777777777777  conso    774, @777777(q) ;"______"
016232:  777777777777  conso    774, @777777(q) ;"______"
016233:  777777777777  conso    774, @777777(q) ;"______"
016234:  777777777777  conso    774, @777777(q) ;"______"
016235:  777777777777  conso    774, @777777(q) ;"______"
016236:  777777777777  conso    774, @777777(q) ;"______"
016237:  777777777777  conso    774, @777777(q) ;"______"
016240:  777777777777  conso    774, @777777(q) ;"______"
016241:  777777777777  conso    774, @777777(q) ;"______"
016242:  777777777777  conso    774, @777777(q) ;"______"
016243:  777777777777  conso    774, @777777(q) ;"______"
016244:  777777777777  conso    774, @777777(q) ;"______"
016245:  777777777777  conso    774, @777777(q) ;"______"
016246:  777777777777  conso    774, @777777(q) ;"______"
016247:  777777777777  conso    774, @777777(q) ;"______"
016250:  777777777777  conso    774, @777777(q) ;"______"
016251:  777777777777  conso    774, @777777(q) ;"______"
016252:  777777777777  conso    774, @777777(q) ;"______"
016253:  777777777777  conso    774, @777777(q) ;"______"
016254:  777777777777  conso    774, @777777(q) ;"______"
016255:  777777777777  conso    774, @777777(q) ;"______"
016256:  777777777777  conso    774, @777777(q) ;"______"
016257:  777777777777  conso    774, @777777(q) ;"______"
016260:  777777777777  conso    774, @777777(q) ;"______"
016261:  777777777777  conso    774, @777777(q) ;"______"
016262:  777777777777  conso    774, @777777(q) ;"______"
016263:  777777777777  conso    774, @777777(q) ;"______"
016264:  777777777777  conso    774, @777777(q) ;"______"
016265:  777777777777  conso    774, @777777(q) ;"______"
016266:  777777777777  conso    774, @777777(q) ;"______"
016267:  777777777777  conso    774, @777777(q) ;"______"
016270:  777777777777  conso    774, @777777(q) ;"______"
016271:  777777777777  conso    774, @777777(q) ;"______"
016272:  777777777777  conso    774, @777777(q) ;"______"
016273:  777777777777  conso    774, @777777(q) ;"______"
016274:  777777777777  conso    774, @777777(q) ;"______"
016275:  777777777777  conso    774, @777777(q) ;"______"
016276:  777777777777  conso    774, @777777(q) ;"______"
016277:  777777777777  conso    774, @777777(q) ;"______"
016300:  777777777777  conso    774, @777777(q) ;"______"
016301:  777777777777  conso    774, @777777(q) ;"______"
016302:  777777777777  conso    774, @777777(q) ;"______"
016303:  777777777777  conso    774, @777777(q) ;"______"
016304:  777777777777  conso    774, @777777(q) ;"______"
016305:  777777777777  conso    774, @777777(q) ;"______"
016306:  777777777777  conso    774, @777777(q) ;"______"
016307:  777777777777  conso    774, @777777(q) ;"______"
016310:  777777777777  conso    774, @777777(q) ;"______"
016311:  777777777777  conso    774, @777777(q) ;"______"
016312:  777777777777  conso    774, @777777(q) ;"______"
016313:  777777777777  conso    774, @777777(q) ;"______"
016314:  777777777777  conso    774, @777777(q) ;"______"
016315:  777777777777  conso    774, @777777(q) ;"______"
016316:  777777777777  conso    774, @777777(q) ;"______"
016317:  777777777777  conso    774, @777777(q) ;"______"
016320:  777777777777  conso    774, @777777(q) ;"______"
016321:  777777777777  conso    774, @777777(q) ;"______"
016322:  777777777777  conso    774, @777777(q) ;"______"
016323:  777777777777  conso    774, @777777(q) ;"______"
016324:  777777777777  conso    774, @777777(q) ;"______"
016325:  777777777777  conso    774, @777777(q) ;"______"
016326:  777777777777  conso    774, @777777(q) ;"______"
016327:  777777777777  conso    774, @777777(q) ;"______"
016330:  777777777777  conso    774, @777777(q) ;"______"
016331:  777777777777  conso    774, @777777(q) ;"______"
016332:  777777777777  conso    774, @777777(q) ;"______"
016333:  777777777777  conso    774, @777777(q) ;"______"
016334:  777777777777  conso    774, @777777(q) ;"______"
016335:  777777777777  conso    774, @777777(q) ;"______"
016336:  777777777777  conso    774, @777777(q) ;"______"
016337:  777777777777  conso    774, @777777(q) ;"______"
016340:  777777777777  conso    774, @777777(q) ;"______"
016341:  777777777777  conso    774, @777777(q) ;"______"
016342:  777777777777  conso    774, @777777(q) ;"______"
016343:  777777777777  conso    774, @777777(q) ;"______"
016344:  777777777777  conso    774, @777777(q) ;"______"
016345:  777777777777  conso    774, @777777(q) ;"______"
016346:  777777777777  conso    774, @777777(q) ;"______"
016347:  777777777777  conso    774, @777777(q) ;"______"
016350:  777777777777  conso    774, @777777(q) ;"______"
016351:  777777777777  conso    774, @777777(q) ;"______"
016352:  777777777777  conso    774, @777777(q) ;"______"
016353:  777777777777  conso    774, @777777(q) ;"______"
016354:  777777777777  conso    774, @777777(q) ;"______"
016355:  777777777777  conso    774, @777777(q) ;"______"
016356:  777777777777  conso    774, @777777(q) ;"______"
016357:  777777777777  conso    774, @777777(q) ;"______"
016360:  777777777777  conso    774, @777777(q) ;"______"
016361:  777777777777  conso    774, @777777(q) ;"______"
016362:  777777777777  conso    774, @777777(q) ;"______"
016363:  777777777777  conso    774, @777777(q) ;"______"
016364:  777777777777  conso    774, @777777(q) ;"______"
016365:  777777777777  conso    774, @777777(q) ;"______"
016366:  777777777777  conso    774, @777777(q) ;"______"
016367:  777777777777  conso    774, @777777(q) ;"______"
016370:  777777777777  conso    774, @777777(q) ;"______"
016371:  777777777777  conso    774, @777777(q) ;"______"
016372:  777777777777  conso    774, @777777(q) ;"______"
016373:  777777777777  conso    774, @777777(q) ;"______"
016374:  777777777777  conso    774, @777777(q) ;"______"
016375:  777777777777  conso    774, @777777(q) ;"______"
016376:  777777777777  conso    774, @777777(q) ;"______"
016377:  777777777777  conso    774, @777777(q) ;"______"
016400:  777777777777  conso    774, @777777(q) ;"______"
016401:  777777777777  conso    774, @777777(q) ;"______"
016402:  777777777777  conso    774, @777777(q) ;"______"
016403:  777777777777  conso    774, @777777(q) ;"______"
016404:  777777777777  conso    774, @777777(q) ;"______"
016405:  777777777777  conso    774, @777777(q) ;"______"
016406:  777777777777  conso    774, @777777(q) ;"______"
016407:  777777777777  conso    774, @777777(q) ;"______"
016410:  777777777777  conso    774, @777777(q) ;"______"
016411:  777777777777  conso    774, @777777(q) ;"______"
016412:  777777777777  conso    774, @777777(q) ;"______"
016413:  777777777777  conso    774, @777777(q) ;"______"
016414:  777777777777  conso    774, @777777(q) ;"______"
016415:  777777777777  conso    774, @777777(q) ;"______"
016416:  777777777777  conso    774, @777777(q) ;"______"
016417:  777777777777  conso    774, @777777(q) ;"______"
016420:  777777777777  conso    774, @777777(q) ;"______"
016421:  777777777777  conso    774, @777777(q) ;"______"
016422:  777777777777  conso    774, @777777(q) ;"______"
016423:  777777777777  conso    774, @777777(q) ;"______"
016424:  777777777777  conso    774, @777777(q) ;"______"
016425:  777777777777  conso    774, @777777(q) ;"______"
016426:  777777777777  conso    774, @777777(q) ;"______"
016427:  777777777777  conso    774, @777777(q) ;"______"
016430:  777777777777  conso    774, @777777(q) ;"______"
016431:  777777777777  conso    774, @777777(q) ;"______"
016432:  777777777777  conso    774, @777777(q) ;"______"
016433:  777777777777  conso    774, @777777(q) ;"______"
016434:  777777777777  conso    774, @777777(q) ;"______"
016435:  777777777777  conso    774, @777777(q) ;"______"
016436:  777777777777  conso    774, @777777(q) ;"______"
016437:  777777777777  conso    774, @777777(q) ;"______"
016440:  777777777777  conso    774, @777777(q) ;"______"
016441:  777777777777  conso    774, @777777(q) ;"______"
016442:  777777777777  conso    774, @777777(q) ;"______"
016443:  777777777777  conso    774, @777777(q) ;"______"
016444:  777777777777  conso    774, @777777(q) ;"______"
016445:  777777777777  conso    774, @777777(q) ;"______"
016446:  777777777777  conso    774, @777777(q) ;"______"
016447:  777777777777  conso    774, @777777(q) ;"______"
016450:  777777777777  conso    774, @777777(q) ;"______"
016451:  777777777777  conso    774, @777777(q) ;"______"
016452:  777777777777  conso    774, @777777(q) ;"______"
016453:  777777777777  conso    774, @777777(q) ;"______"
016454:  777777777777  conso    774, @777777(q) ;"______"
016455:  777777777777  conso    774, @777777(q) ;"______"
016456:  777777777777  conso    774, @777777(q) ;"______"
016457:  777777777777  conso    774, @777777(q) ;"______"
016460:  777777777777  conso    774, @777777(q) ;"______"
016461:  777777777777  conso    774, @777777(q) ;"______"
016462:  777777777777  conso    774, @777777(q) ;"______"
016463:  777777777777  conso    774, @777777(q) ;"______"
016464:  777777777777  conso    774, @777777(q) ;"______"
016465:  777777777777  conso    774, @777777(q) ;"______"
016466:  777777777777  conso    774, @777777(q) ;"______"
016467:  777777777777  conso    774, @777777(q) ;"______"
016470:  777777777777  conso    774, @777777(q) ;"______"
016471:  777777777777  conso    774, @777777(q) ;"______"
016472:  777777777777  conso    774, @777777(q) ;"______"
016473:  777777777777  conso    774, @777777(q) ;"______"
016474:  777777777777  conso    774, @777777(q) ;"______"
016475:  777777777777  conso    774, @777777(q) ;"______"
016476:  777777777777  conso    774, @777777(q) ;"______"
016477:  777777777777  conso    774, @777777(q) ;"______"
016500:  777777777777  conso    774, @777777(q) ;"______"
016501:  777777777777  conso    774, @777777(q) ;"______"
016502:  777777777777  conso    774, @777777(q) ;"______"
016503:  777777777777  conso    774, @777777(q) ;"______"
016504:  777777777777  conso    774, @777777(q) ;"______"
016505:  777777777777  conso    774, @777777(q) ;"______"
016506:  777777777777  conso    774, @777777(q) ;"______"
016507:  777777777777  conso    774, @777777(q) ;"______"
016510:  777777777777  conso    774, @777777(q) ;"______"
016511:  777777777777  conso    774, @777777(q) ;"______"
016512:  777777777777  conso    774, @777777(q) ;"______"
016513:  777777777777  conso    774, @777777(q) ;"______"
016514:  777777777777  conso    774, @777777(q) ;"______"
016515:  777777777777  conso    774, @777777(q) ;"______"
016516:  777777777777  conso    774, @777777(q) ;"______"
016517:  777777777777  conso    774, @777777(q) ;"______"
016520:  777777777777  conso    774, @777777(q) ;"______"
016521:  777777777777  conso    774, @777777(q) ;"______"
016522:  777777777777  conso    774, @777777(q) ;"______"
016523:  777777777777  conso    774, @777777(q) ;"______"
016524:  777777777777  conso    774, @777777(q) ;"______"
016525:  777777777777  conso    774, @777777(q) ;"______"
016526:  777777777777  conso    774, @777777(q) ;"______"
016527:  777777777777  conso    774, @777777(q) ;"______"
016530:  777777777777  conso    774, @777777(q) ;"______"
016531:  777777777777  conso    774, @777777(q) ;"______"
016532:  777777777777  conso    774, @777777(q) ;"______"
016533:  777777777777  conso    774, @777777(q) ;"______"
016534:  777777777777  conso    774, @777777(q) ;"______"
016535:  777777777777  conso    774, @777777(q) ;"______"
016536:  777777777777  conso    774, @777777(q) ;"______"
016537:  777777777777  conso    774, @777777(q) ;"______"
016540:  777777777777  conso    774, @777777(q) ;"______"
016541:  777777777777  conso    774, @777777(q) ;"______"
016542:  777777777777  conso    774, @777777(q) ;"______"
016543:  777777777777  conso    774, @777777(q) ;"______"
016544:  777777777777  conso    774, @777777(q) ;"______"
016545:  777777777777  conso    774, @777777(q) ;"______"
016546:  777777777777  conso    774, @777777(q) ;"______"
016547:  777777777777  conso    774, @777777(q) ;"______"
016550:  777777777777  conso    774, @777777(q) ;"______"
016551:  777777777777  conso    774, @777777(q) ;"______"
016552:  777777777777  conso    774, @777777(q) ;"______"
016553:  777777777777  conso    774, @777777(q) ;"______"
016554:  777777777777  conso    774, @777777(q) ;"______"
016555:  777777777777  conso    774, @777777(q) ;"______"
016556:  777777777777  conso    774, @777777(q) ;"______"
016557:  777777777777  conso    774, @777777(q) ;"______"
016560:  777777777777  conso    774, @777777(q) ;"______"
016561:  777777777777  conso    774, @777777(q) ;"______"
016562:  777777777777  conso    774, @777777(q) ;"______"
016563:  777777777777  conso    774, @777777(q) ;"______"
016564:  777777777777  conso    774, @777777(q) ;"______"
016565:  777777777777  conso    774, @777777(q) ;"______"
016566:  777777777777  conso    774, @777777(q) ;"______"
016567:  777777777777  conso    774, @777777(q) ;"______"
016570:  777777777777  conso    774, @777777(q) ;"______"
016571:  777777777777  conso    774, @777777(q) ;"______"
016572:  777777777777  conso    774, @777777(q) ;"______"
016573:  777777777777  conso    774, @777777(q) ;"______"
016574:  777777777777  conso    774, @777777(q) ;"______"
016575:  777777777777  conso    774, @777777(q) ;"______"
016576:  777777777777  conso    774, @777777(q) ;"______"
016577:  777777777777  conso    774, @777777(q) ;"______"
016600:  777777777777  conso    774, @777777(q) ;"______"
016601:  777777777777  conso    774, @777777(q) ;"______"
016602:  777777777777  conso    774, @777777(q) ;"______"
016603:  777777777777  conso    774, @777777(q) ;"______"
016604:  777777777777  conso    774, @777777(q) ;"______"
016605:  777777777777  conso    774, @777777(q) ;"______"
016606:  777777777777  conso    774, @777777(q) ;"______"
016607:  777777777777  conso    774, @777777(q) ;"______"
016610:  777777777777  conso    774, @777777(q) ;"______"
016611:  777777777777  conso    774, @777777(q) ;"______"
016612:  777777777777  conso    774, @777777(q) ;"______"
016613:  777777777777  conso    774, @777777(q) ;"______"
016614:  777777777777  conso    774, @777777(q) ;"______"
016615:  777777777777  conso    774, @777777(q) ;"______"
016616:  777777777777  conso    774, @777777(q) ;"______"
016617:  777777777777  conso    774, @777777(q) ;"______"
016620:  777777777777  conso    774, @777777(q) ;"______"
016621:  777777777777  conso    774, @777777(q) ;"______"
016622:  777777777777  conso    774, @777777(q) ;"______"
016623:  777777777777  conso    774, @777777(q) ;"______"
016624:  777777777777  conso    774, @777777(q) ;"______"
016625:  777777777777  conso    774, @777777(q) ;"______"
016626:  777777777777  conso    774, @777777(q) ;"______"
016627:  777777777777  conso    774, @777777(q) ;"______"
016630:  777777777777  conso    774, @777777(q) ;"______"
016631:  777777777777  conso    774, @777777(q) ;"______"
016632:  777777777777  conso    774, @777777(q) ;"______"
016633:  777777777777  conso    774, @777777(q) ;"______"
016634:  777777777777  conso    774, @777777(q) ;"______"
016635:  777777777777  conso    774, @777777(q) ;"______"
016636:  777777777777  conso    774, @777777(q) ;"______"
016637:  777777777777  conso    774, @777777(q) ;"______"
016640:  777777777777  conso    774, @777777(q) ;"______"
016641:  777777777777  conso    774, @777777(q) ;"______"
016642:  777777777777  conso    774, @777777(q) ;"______"
016643:  777777777777  conso    774, @777777(q) ;"______"
016644:  777777777777  conso    774, @777777(q) ;"______"
016645:  777777777777  conso    774, @777777(q) ;"______"
016646:  777777777777  conso    774, @777777(q) ;"______"
016647:  777777777777  conso    774, @777777(q) ;"______"
016650:  777777777777  conso    774, @777777(q) ;"______"
016651:  777777777777  conso    774, @777777(q) ;"______"
016652:  777777777777  conso    774, @777777(q) ;"______"
016653:  777777777777  conso    774, @777777(q) ;"______"
016654:  777777777777  conso    774, @777777(q) ;"______"
016655:  777777777777  conso    774, @777777(q) ;"______"
016656:  777777777777  conso    774, @777777(q) ;"______"
016657:  777777777777  conso    774, @777777(q) ;"______"
016660:  777777777777  conso    774, @777777(q) ;"______"
016661:  777777777777  conso    774, @777777(q) ;"______"
016662:  777777777777  conso    774, @777777(q) ;"______"
016663:  777777777777  conso    774, @777777(q) ;"______"
016664:  777777777777  conso    774, @777777(q) ;"______"
016665:  777777777777  conso    774, @777777(q) ;"______"
016666:  777777777777  conso    774, @777777(q) ;"______"
016667:  777777777777  conso    774, @777777(q) ;"______"
016670:  777777777777  conso    774, @777777(q) ;"______"
016671:  777777777777  conso    774, @777777(q) ;"______"
016672:  777777777777  conso    774, @777777(q) ;"______"
016673:  777777777777  conso    774, @777777(q) ;"______"
016674:  777777777777  conso    774, @777777(q) ;"______"
016675:  777777777777  conso    774, @777777(q) ;"______"
016676:  777777777777  conso    774, @777777(q) ;"______"
016677:  777777777777  conso    774, @777777(q) ;"______"
016700:  777777777777  conso    774, @777777(q) ;"______"
016701:  777777777777  conso    774, @777777(q) ;"______"
016702:  777777777777  conso    774, @777777(q) ;"______"
016703:  777777777777  conso    774, @777777(q) ;"______"
016704:  777777777777  conso    774, @777777(q) ;"______"
016705:  777777777777  conso    774, @777777(q) ;"______"
016706:  777777777777  conso    774, @777777(q) ;"______"
016707:  777777777777  conso    774, @777777(q) ;"______"
016710:  777777777777  conso    774, @777777(q) ;"______"
016711:  777777777777  conso    774, @777777(q) ;"______"
016712:  777777777777  conso    774, @777777(q) ;"______"
016713:  777777777777  conso    774, @777777(q) ;"______"
016714:  777777777777  conso    774, @777777(q) ;"______"
016715:  777777777777  conso    774, @777777(q) ;"______"
016716:  777777777777  conso    774, @777777(q) ;"______"
016717:  777777777777  conso    774, @777777(q) ;"______"
016720:  777777777777  conso    774, @777777(q) ;"______"
016721:  777777777777  conso    774, @777777(q) ;"______"
016722:  777777777777  conso    774, @777777(q) ;"______"
016723:  777777777777  conso    774, @777777(q) ;"______"
016724:  777777777777  conso    774, @777777(q) ;"______"
016725:  777777777777  conso    774, @777777(q) ;"______"
016726:  777777777777  conso    774, @777777(q) ;"______"
016727:  777777777777  conso    774, @777777(q) ;"______"
016730:  777777777777  conso    774, @777777(q) ;"______"
016731:  777777777777  conso    774, @777777(q) ;"______"
016732:  777777777777  conso    774, @777777(q) ;"______"
016733:  777777777777  conso    774, @777777(q) ;"______"
016734:  777777777777  conso    774, @777777(q) ;"______"
016735:  777777777777  conso    774, @777777(q) ;"______"
016736:  777777777777  conso    774, @777777(q) ;"______"
016737:  777777777777  conso    774, @777777(q) ;"______"
016740:  777777777777  conso    774, @777777(q) ;"______"
016741:  777777777777  conso    774, @777777(q) ;"______"
016742:  777777777777  conso    774, @777777(q) ;"______"
016743:  777777777777  conso    774, @777777(q) ;"______"
016744:  777777777777  conso    774, @777777(q) ;"______"
016745:  777777777777  conso    774, @777777(q) ;"______"
016746:  777777777777  conso    774, @777777(q) ;"______"
016747:  777777777777  conso    774, @777777(q) ;"______"
016750:  777777777777  conso    774, @777777(q) ;"______"
016751:  777777777777  conso    774, @777777(q) ;"______"
016752:  777777777777  conso    774, @777777(q) ;"______"
016753:  777777777777  conso    774, @777777(q) ;"______"
016754:  777777777777  conso    774, @777777(q) ;"______"
016755:  777777777777  conso    774, @777777(q) ;"______"
016756:  777777777777  conso    774, @777777(q) ;"______"
016757:  777777777777  conso    774, @777777(q) ;"______"
016760:  777777777777  conso    774, @777777(q) ;"______"
016761:  777777777777  conso    774, @777777(q) ;"______"
016762:  777777777777  conso    774, @777777(q) ;"______"
016763:  777777777777  conso    774, @777777(q) ;"______"
016764:  777777777777  conso    774, @777777(q) ;"______"
016765:  777777777777  conso    774, @777777(q) ;"______"
016766:  777777777777  conso    774, @777777(q) ;"______"
016767:  777777777777  conso    774, @777777(q) ;"______"
016770:  777777777777  conso    774, @777777(q) ;"______"
016771:  777777777777  conso    774, @777777(q) ;"______"
016772:  777777777777  conso    774, @777777(q) ;"______"
016773:  777777777777  conso    774, @777777(q) ;"______"
016774:  777777777777  conso    774, @777777(q) ;"______"
016775:  777777777777  conso    774, @777777(q) ;"______"
016776:  777777777777  conso    774, @777777(q) ;"______"
016777:  777777777777  conso    774, @777777(q) ;"______"
017000:  777777777777  conso    774, @777777(q) ;"______"
017001:  777777777777  conso    774, @777777(q) ;"______"
017002:  777777777777  conso    774, @777777(q) ;"______"
017003:  777777777777  conso    774, @777777(q) ;"______"
017004:  777777777777  conso    774, @777777(q) ;"______"
017005:  777777777777  conso    774, @777777(q) ;"______"
017006:  777777777777  conso    774, @777777(q) ;"______"
017007:  777777777777  conso    774, @777777(q) ;"______"
017010:  777777777777  conso    774, @777777(q) ;"______"
017011:  777777777777  conso    774, @777777(q) ;"______"
017012:  777777777777  conso    774, @777777(q) ;"______"
017013:  777777777777  conso    774, @777777(q) ;"______"
017014:  777777777777  conso    774, @777777(q) ;"______"
017015:  777777777777  conso    774, @777777(q) ;"______"
017016:  777777777777  conso    774, @777777(q) ;"______"
017017:  777777777777  conso    774, @777777(q) ;"______"
017020:  777777777777  conso    774, @777777(q) ;"______"
017021:  777777777777  conso    774, @777777(q) ;"______"
017022:  777777777777  conso    774, @777777(q) ;"______"
017023:  777777777777  conso    774, @777777(q) ;"______"
017024:  777777777777  conso    774, @777777(q) ;"______"
017025:  777777777777  conso    774, @777777(q) ;"______"
017026:  777777777777  conso    774, @777777(q) ;"______"
017027:  777777777777  conso    774, @777777(q) ;"______"
017030:  777777777777  conso    774, @777777(q) ;"______"
017031:  777777777777  conso    774, @777777(q) ;"______"
017032:  777777777777  conso    774, @777777(q) ;"______"
017033:  777777777777  conso    774, @777777(q) ;"______"
017034:  777777777777  conso    774, @777777(q) ;"______"
017035:  777777777777  conso    774, @777777(q) ;"______"
017036:  777777777777  conso    774, @777777(q) ;"______"
017037:  777777777777  conso    774, @777777(q) ;"______"
017040:  777777777777  conso    774, @777777(q) ;"______"
017041:  777777777777  conso    774, @777777(q) ;"______"
017042:  777777777777  conso    774, @777777(q) ;"______"
017043:  777777777777  conso    774, @777777(q) ;"______"
017044:  777777777777  conso    774, @777777(q) ;"______"
017045:  777777777777  conso    774, @777777(q) ;"______"
017046:  777777777777  conso    774, @777777(q) ;"______"
017047:  777777777777  conso    774, @777777(q) ;"______"
017050:  777777777777  conso    774, @777777(q) ;"______"
017051:  777777777777  conso    774, @777777(q) ;"______"
017052:  777777777777  conso    774, @777777(q) ;"______"
017053:  777777777777  conso    774, @777777(q) ;"______"
017054:  777777777777  conso    774, @777777(q) ;"______"
017055:  777777777777  conso    774, @777777(q) ;"______"
017056:  777777777777  conso    774, @777777(q) ;"______"
017057:  777777777777  conso    774, @777777(q) ;"______"
017060:  777777777777  conso    774, @777777(q) ;"______"
017061:  777777777777  conso    774, @777777(q) ;"______"
017062:  777777777777  conso    774, @777777(q) ;"______"
017063:  777777777777  conso    774, @777777(q) ;"______"
017064:  777777777777  conso    774, @777777(q) ;"______"
017065:  777777777777  conso    774, @777777(q) ;"______"
017066:  777777777777  conso    774, @777777(q) ;"______"
017067:  777777777777  conso    774, @777777(q) ;"______"
017070:  777777777777  conso    774, @777777(q) ;"______"
017071:  777777777777  conso    774, @777777(q) ;"______"
017072:  777777777777  conso    774, @777777(q) ;"______"
017073:  777777777777  conso    774, @777777(q) ;"______"
017074:  777777777777  conso    774, @777777(q) ;"______"
017075:  777777777777  conso    774, @777777(q) ;"______"
017076:  777777777777  conso    774, @777777(q) ;"______"
017077:  777777777777  conso    774, @777777(q) ;"______"
017100:  777777777777  conso    774, @777777(q) ;"______"
017101:  777777777777  conso    774, @777777(q) ;"______"
017102:  777777777777  conso    774, @777777(q) ;"______"
017103:  777777777777  conso    774, @777777(q) ;"______"
017104:  777777777777  conso    774, @777777(q) ;"______"
017105:  777777777777  conso    774, @777777(q) ;"______"
017106:  777777777777  conso    774, @777777(q) ;"______"
017107:  777777777777  conso    774, @777777(q) ;"______"
017110:  777777777777  conso    774, @777777(q) ;"______"
017111:  777777777777  conso    774, @777777(q) ;"______"
017112:  777777777777  conso    774, @777777(q) ;"______"
017113:  777777777777  conso    774, @777777(q) ;"______"
017114:  777777777777  conso    774, @777777(q) ;"______"
017115:  777777777777  conso    774, @777777(q) ;"______"
017116:  777777777777  conso    774, @777777(q) ;"______"
017117:  777777777777  conso    774, @777777(q) ;"______"
017120:  777777777777  conso    774, @777777(q) ;"______"
017121:  777777777777  conso    774, @777777(q) ;"______"
017122:  777777777777  conso    774, @777777(q) ;"______"
017123:  777777777777  conso    774, @777777(q) ;"______"
017124:  777777777777  conso    774, @777777(q) ;"______"
017125:  777777777777  conso    774, @777777(q) ;"______"
017126:  777777777777  conso    774, @777777(q) ;"______"
017127:  777777777777  conso    774, @777777(q) ;"______"
017130:  777777777777  conso    774, @777777(q) ;"______"
017131:  777777777777  conso    774, @777777(q) ;"______"
017132:  777777777777  conso    774, @777777(q) ;"______"
017133:  777777777777  conso    774, @777777(q) ;"______"
017134:  777777777777  conso    774, @777777(q) ;"______"
017135:  777777777777  conso    774, @777777(q) ;"______"
017136:  777777777777  conso    774, @777777(q) ;"______"
017137:  777777777777  conso    774, @777777(q) ;"______"
017140:  777777777777  conso    774, @777777(q) ;"______"
017141:  777777777777  conso    774, @777777(q) ;"______"
017142:  777777777777  conso    774, @777777(q) ;"______"
017143:  777777777777  conso    774, @777777(q) ;"______"
017144:  777777777777  conso    774, @777777(q) ;"______"
017145:  777777777777  conso    774, @777777(q) ;"______"
017146:  777777777777  conso    774, @777777(q) ;"______"
017147:  777777777777  conso    774, @777777(q) ;"______"
017150:  777777777777  conso    774, @777777(q) ;"______"
017151:  777777777777  conso    774, @777777(q) ;"______"
017152:  777777777777  conso    774, @777777(q) ;"______"
017153:  777777777777  conso    774, @777777(q) ;"______"
017154:  777777777777  conso    774, @777777(q) ;"______"
017155:  777777777777  conso    774, @777777(q) ;"______"
017156:  777777777777  conso    774, @777777(q) ;"______"
017157:  777777777777  conso    774, @777777(q) ;"______"
017160:  777777777777  conso    774, @777777(q) ;"______"
017161:  777777777777  conso    774, @777777(q) ;"______"
017162:  777777777777  conso    774, @777777(q) ;"______"
017163:  777777777777  conso    774, @777777(q) ;"______"
017164:  777777777777  conso    774, @777777(q) ;"______"
017165:  777777777777  conso    774, @777777(q) ;"______"
017166:  777777777777  conso    774, @777777(q) ;"______"
017167:  777777777777  conso    774, @777777(q) ;"______"
017170:  777777777777  conso    774, @777777(q) ;"______"
017171:  777777777777  conso    774, @777777(q) ;"______"
017172:  777777777777  conso    774, @777777(q) ;"______"
017173:  777777777777  conso    774, @777777(q) ;"______"
017174:  777777777777  conso    774, @777777(q) ;"______"
017175:  777777777777  conso    774, @777777(q) ;"______"
017176:  777777777777  conso    774, @777777(q) ;"______"
017177:  777777777777  conso    774, @777777(q) ;"______"
017200:  777777777777  conso    774, @777777(q) ;"______"
017201:  777777777777  conso    774, @777777(q) ;"______"
017202:  777777777777  conso    774, @777777(q) ;"______"
017203:  777777777777  conso    774, @777777(q) ;"______"
017204:  777777777777  conso    774, @777777(q) ;"______"
017205:  777777777777  conso    774, @777777(q) ;"______"
017206:  777777777777  conso    774, @777777(q) ;"______"
017207:  777777777777  conso    774, @777777(q) ;"______"
017210:  777777777777  conso    774, @777777(q) ;"______"
017211:  777777777777  conso    774, @777777(q) ;"______"
017212:  777777777777  conso    774, @777777(q) ;"______"
017213:  777777777777  conso    774, @777777(q) ;"______"
017214:  777777777777  conso    774, @777777(q) ;"______"
017215:  777777777777  conso    774, @777777(q) ;"______"
017216:  777777777777  conso    774, @777777(q) ;"______"
017217:  777777777777  conso    774, @777777(q) ;"______"
017220:  777777777777  conso    774, @777777(q) ;"______"
017221:  777777777777  conso    774, @777777(q) ;"______"
017222:  777777777777  conso    774, @777777(q) ;"______"
017223:  777777777777  conso    774, @777777(q) ;"______"
017224:  777777777777  conso    774, @777777(q) ;"______"
017225:  777777777777  conso    774, @777777(q) ;"______"
017226:  777777777777  conso    774, @777777(q) ;"______"
017227:  777777777777  conso    774, @777777(q) ;"______"
017230:  777777777777  conso    774, @777777(q) ;"______"
017231:  777777777777  conso    774, @777777(q) ;"______"
017232:  777777777777  conso    774, @777777(q) ;"______"
017233:  777777777777  conso    774, @777777(q) ;"______"
017234:  777777777777  conso    774, @777777(q) ;"______"
017235:  777777777777  conso    774, @777777(q) ;"______"
017236:  777777777777  conso    774, @777777(q) ;"______"
017237:  777777777777  conso    774, @777777(q) ;"______"
017240:  777777777777  conso    774, @777777(q) ;"______"
017241:  777777777777  conso    774, @777777(q) ;"______"
017242:  777777777777  conso    774, @777777(q) ;"______"
017243:  777777777777  conso    774, @777777(q) ;"______"
017244:  777777777777  conso    774, @777777(q) ;"______"
017245:  777777777777  conso    774, @777777(q) ;"______"
017246:  777777777777  conso    774, @777777(q) ;"______"
017247:  777777777777  conso    774, @777777(q) ;"______"
017250:  777777777777  conso    774, @777777(q) ;"______"
017251:  777777777777  conso    774, @777777(q) ;"______"
017252:  777777777777  conso    774, @777777(q) ;"______"
017253:  777777777777  conso    774, @777777(q) ;"______"
017254:  777777777777  conso    774, @777777(q) ;"______"
017255:  777777777777  conso    774, @777777(q) ;"______"
017256:  777777777777  conso    774, @777777(q) ;"______"
017257:  777777777777  conso    774, @777777(q) ;"______"
017260:  777777777777  conso    774, @777777(q) ;"______"
017261:  777777777777  conso    774, @777777(q) ;"______"
017262:  777777777777  conso    774, @777777(q) ;"______"
017263:  777777777777  conso    774, @777777(q) ;"______"
017264:  777777777777  conso    774, @777777(q) ;"______"
017265:  777777777777  conso    774, @777777(q) ;"______"
017266:  777777777777  conso    774, @777777(q) ;"______"
017267:  777777777777  conso    774, @777777(q) ;"______"
017270:  777777777777  conso    774, @777777(q) ;"______"
017271:  777777777777  conso    774, @777777(q) ;"______"
017272:  777777777777  conso    774, @777777(q) ;"______"
017273:  777777777777  conso    774, @777777(q) ;"______"
017274:  777777777777  conso    774, @777777(q) ;"______"
017275:  777777777777  conso    774, @777777(q) ;"______"
017276:  777777777777  conso    774, @777777(q) ;"______"
017277:  777777777777  conso    774, @777777(q) ;"______"
017300:  777777777777  conso    774, @777777(q) ;"______"
017301:  777777777777  conso    774, @777777(q) ;"______"
017302:  777777777777  conso    774, @777777(q) ;"______"
017303:  777777777777  conso    774, @777777(q) ;"______"
017304:  777777777777  conso    774, @777777(q) ;"______"
017305:  777777777777  conso    774, @777777(q) ;"______"
017306:  777777777777  conso    774, @777777(q) ;"______"
017307:  777777777777  conso    774, @777777(q) ;"______"
017310:  777777777777  conso    774, @777777(q) ;"______"
017311:  777777777777  conso    774, @777777(q) ;"______"
017312:  777777777777  conso    774, @777777(q) ;"______"
017313:  777777777777  conso    774, @777777(q) ;"______"
017314:  777777777777  conso    774, @777777(q) ;"______"
017315:  777777777777  conso    774, @777777(q) ;"______"
017316:  777777777777  conso    774, @777777(q) ;"______"
017317:  777777777777  conso    774, @777777(q) ;"______"
017320:  777777777777  conso    774, @777777(q) ;"______"
017321:  777777777777  conso    774, @777777(q) ;"______"
017322:  777777777777  conso    774, @777777(q) ;"______"
017323:  777777777777  conso    774, @777777(q) ;"______"
017324:  777777777777  conso    774, @777777(q) ;"______"
017325:  777777777777  conso    774, @777777(q) ;"______"
017326:  777777777777  conso    774, @777777(q) ;"______"
017327:  777777777777  conso    774, @777777(q) ;"______"
017330:  777777777777  conso    774, @777777(q) ;"______"
017331:  777777777777  conso    774, @777777(q) ;"______"
017332:  777777777777  conso    774, @777777(q) ;"______"
017333:  777777777777  conso    774, @777777(q) ;"______"
017334:  777777777777  conso    774, @777777(q) ;"______"
017335:  777777777777  conso    774, @777777(q) ;"______"
017336:  777777777777  conso    774, @777777(q) ;"______"
017337:  777777777777  conso    774, @777777(q) ;"______"
017340:  777777777777  conso    774, @777777(q) ;"______"
017341:  777777777777  conso    774, @777777(q) ;"______"
017342:  777777777777  conso    774, @777777(q) ;"______"
017343:  777777777777  conso    774, @777777(q) ;"______"
017344:  777777777777  conso    774, @777777(q) ;"______"
017345:  777777777777  conso    774, @777777(q) ;"______"
017346:  777777777777  conso    774, @777777(q) ;"______"
017347:  777777777777  conso    774, @777777(q) ;"______"
017350:  777777777777  conso    774, @777777(q) ;"______"
017351:  777777777777  conso    774, @777777(q) ;"______"
017352:  777777777777  conso    774, @777777(q) ;"______"
017353:  777777777777  conso    774, @777777(q) ;"______"
017354:  777777777777  conso    774, @777777(q) ;"______"
017355:  777777777777  conso    774, @777777(q) ;"______"
017356:  777777777777  conso    774, @777777(q) ;"______"
017357:  777777777777  conso    774, @777777(q) ;"______"
017360:  777777777777  conso    774, @777777(q) ;"______"
017361:  777777777777  conso    774, @777777(q) ;"______"
017362:  777777777777  conso    774, @777777(q) ;"______"
017363:  777777777777  conso    774, @777777(q) ;"______"
017364:  777777777777  conso    774, @777777(q) ;"______"
017365:  777777777777  conso    774, @777777(q) ;"______"
017366:  777777777777  conso    774, @777777(q) ;"______"
017367:  777777777777  conso    774, @777777(q) ;"______"
017370:  777777777777  conso    774, @777777(q) ;"______"
017371:  777777777777  conso    774, @777777(q) ;"______"
017372:  777777777777  conso    774, @777777(q) ;"______"
017373:  777777777777  conso    774, @777777(q) ;"______"
017374:  777777777777  conso    774, @777777(q) ;"______"
017375:  777777777777  conso    774, @777777(q) ;"______"
017376:  777777777777  conso    774, @777777(q) ;"______"
017377:  777777777777  conso    774, @777777(q) ;"______"
017400:  777777777777  conso    774, @777777(q) ;"______"
017401:  777777777777  conso    774, @777777(q) ;"______"
017402:  777777777777  conso    774, @777777(q) ;"______"
017403:  777777777777  conso    774, @777777(q) ;"______"
017404:  777777777777  conso    774, @777777(q) ;"______"
017405:  777777777777  conso    774, @777777(q) ;"______"
017406:  777777777777  conso    774, @777777(q) ;"______"
017407:  777777777777  conso    774, @777777(q) ;"______"
017410:  777777777777  conso    774, @777777(q) ;"______"
017411:  777777777777  conso    774, @777777(q) ;"______"
017412:  777777777777  conso    774, @777777(q) ;"______"
017413:  777777777777  conso    774, @777777(q) ;"______"
017414:  777777777777  conso    774, @777777(q) ;"______"
017415:  777777777777  conso    774, @777777(q) ;"______"
017416:  777777777777  conso    774, @777777(q) ;"______"
017417:  777777777777  conso    774, @777777(q) ;"______"
017420:  777777777777  conso    774, @777777(q) ;"______"
017421:  777777777777  conso    774, @777777(q) ;"______"
017422:  777777777777  conso    774, @777777(q) ;"______"
017423:  777777777777  conso    774, @777777(q) ;"______"
017424:  777777777777  conso    774, @777777(q) ;"______"
017425:  777777777777  conso    774, @777777(q) ;"______"
017426:  777777777777  conso    774, @777777(q) ;"______"
017427:  777777777777  conso    774, @777777(q) ;"______"
017430:  777777777777  conso    774, @777777(q) ;"______"
017431:  777777777777  conso    774, @777777(q) ;"______"
017432:  777777777777  conso    774, @777777(q) ;"______"
017433:  777777777777  conso    774, @777777(q) ;"______"
017434:  777777777777  conso    774, @777777(q) ;"______"
017435:  777777777777  conso    774, @777777(q) ;"______"
017436:  777777777777  conso    774, @777777(q) ;"______"
017437:  777777777777  conso    774, @777777(q) ;"______"
017440:  777777777777  conso    774, @777777(q) ;"______"
017441:  777777777777  conso    774, @777777(q) ;"______"
017442:  777777777777  conso    774, @777777(q) ;"______"
017443:  777777777777  conso    774, @777777(q) ;"______"
017444:  777777777777  conso    774, @777777(q) ;"______"
017445:  777777777777  conso    774, @777777(q) ;"______"
017446:  777777777777  conso    774, @777777(q) ;"______"
017447:  777777777777  conso    774, @777777(q) ;"______"
017450:  777777777777  conso    774, @777777(q) ;"______"
017451:  777777777777  conso    774, @777777(q) ;"______"
017452:  777777777777  conso    774, @777777(q) ;"______"
017453:  777777777777  conso    774, @777777(q) ;"______"
017454:  777777777777  conso    774, @777777(q) ;"______"
017455:  777777777777  conso    774, @777777(q) ;"______"
017456:  777777777777  conso    774, @777777(q) ;"______"
017457:  777777777777  conso    774, @777777(q) ;"______"
017460:  777777777777  conso    774, @777777(q) ;"______"
017461:  777777777777  conso    774, @777777(q) ;"______"
017462:  777777777777  conso    774, @777777(q) ;"______"
017463:  777777777777  conso    774, @777777(q) ;"______"
017464:  777777777777  conso    774, @777777(q) ;"______"
017465:  777777777777  conso    774, @777777(q) ;"______"
017466:  777777777777  conso    774, @777777(q) ;"______"
017467:  777777777777  conso    774, @777777(q) ;"______"
017470:  777777777777  conso    774, @777777(q) ;"______"
017471:  777777777777  conso    774, @777777(q) ;"______"
017472:  777777777777  conso    774, @777777(q) ;"______"
017473:  777777777777  conso    774, @777777(q) ;"______"
017474:  777777777777  conso    774, @777777(q) ;"______"
017475:  777777777777  conso    774, @777777(q) ;"______"
017476:  777777777777  conso    774, @777777(q) ;"______"
017477:  777777777777  conso    774, @777777(q) ;"______"
017500:  777777777777  conso    774, @777777(q) ;"______"
017501:  777777777777  conso    774, @777777(q) ;"______"
017502:  777777777777  conso    774, @777777(q) ;"______"
017503:  777777777777  conso    774, @777777(q) ;"______"
017504:  777777777777  conso    774, @777777(q) ;"______"
017505:  777777777777  conso    774, @777777(q) ;"______"
017506:  777777777777  conso    774, @777777(q) ;"______"
017507:  777777777777  conso    774, @777777(q) ;"______"
017510:  777777777777  conso    774, @777777(q) ;"______"
017511:  777777777777  conso    774, @777777(q) ;"______"
017512:  777777777777  conso    774, @777777(q) ;"______"
017513:  777777777777  conso    774, @777777(q) ;"______"
017514:  777777777777  conso    774, @777777(q) ;"______"
017515:  777777777777  conso    774, @777777(q) ;"______"
017516:  777777777777  conso    774, @777777(q) ;"______"
017517:  777777777777  conso    774, @777777(q) ;"______"
017520:  777777777777  conso    774, @777777(q) ;"______"
017521:  777777777777  conso    774, @777777(q) ;"______"
017522:  777777777777  conso    774, @777777(q) ;"______"
017523:  777777777777  conso    774, @777777(q) ;"______"
017524:  777777777777  conso    774, @777777(q) ;"______"
017525:  777777777777  conso    774, @777777(q) ;"______"
017526:  777777777777  conso    774, @777777(q) ;"______"
017527:  777777777777  conso    774, @777777(q) ;"______"
017530:  777777777777  conso    774, @777777(q) ;"______"
017531:  777777777777  conso    774, @777777(q) ;"______"
017532:  777777777777  conso    774, @777777(q) ;"______"
017533:  777777777777  conso    774, @777777(q) ;"______"
017534:  777777777777  conso    774, @777777(q) ;"______"
017535:  777777777777  conso    774, @777777(q) ;"______"
017536:  777777777777  conso    774, @777777(q) ;"______"
017537:  777777777777  conso    774, @777777(q) ;"______"
017540:  777777777777  conso    774, @777777(q) ;"______"
017541:  777777777777  conso    774, @777777(q) ;"______"
017542:  777777777777  conso    774, @777777(q) ;"______"
017543:  777777777777  conso    774, @777777(q) ;"______"
017544:  777777777777  conso    774, @777777(q) ;"______"
017545:  777777777777  conso    774, @777777(q) ;"______"
017546:  777777777777  conso    774, @777777(q) ;"______"
017547:  777777777777  conso    774, @777777(q) ;"______"
017550:  777777777777  conso    774, @777777(q) ;"______"
017551:  777777777777  conso    774, @777777(q) ;"______"
017552:  777777777777  conso    774, @777777(q) ;"______"
017553:  777777777777  conso    774, @777777(q) ;"______"
017554:  777777777777  conso    774, @777777(q) ;"______"
017555:  777777777777  conso    774, @777777(q) ;"______"
017556:  777777777777  conso    774, @777777(q) ;"______"
017557:  777777777777  conso    774, @777777(q) ;"______"
017560:  777777777777  conso    774, @777777(q) ;"______"
017561:  777777777777  conso    774, @777777(q) ;"______"
017562:  777777777777  conso    774, @777777(q) ;"______"
017563:  777777777777  conso    774, @777777(q) ;"______"
017564:  777777777777  conso    774, @777777(q) ;"______"
017565:  777777777777  conso    774, @777777(q) ;"______"
017566:  777777777777  conso    774, @777777(q) ;"______"
017567:  777777777777  conso    774, @777777(q) ;"______"
017570:  777777777777  conso    774, @777777(q) ;"______"
017571:  777777777777  conso    774, @777777(q) ;"______"
017572:  777777777777  conso    774, @777777(q) ;"______"
017573:  777777777777  conso    774, @777777(q) ;"______"
017574:  777777777777  conso    774, @777777(q) ;"______"
017575:  777777777777  conso    774, @777777(q) ;"______"
017576:  777777777777  conso    774, @777777(q) ;"______"
017577:  777777777777  conso    774, @777777(q) ;"______"
017600:  777777777777  conso    774, @777777(q) ;"______"
017601:  777777777777  conso    774, @777777(q) ;"______"
017602:  777777777777  conso    774, @777777(q) ;"______"
017603:  777777777777  conso    774, @777777(q) ;"______"
017604:  777777777777  conso    774, @777777(q) ;"______"
017605:  777777777777  conso    774, @777777(q) ;"______"
017606:  777777777777  conso    774, @777777(q) ;"______"
017607:  777777777777  conso    774, @777777(q) ;"______"
017610:  777777777777  conso    774, @777777(q) ;"______"
017611:  777777777777  conso    774, @777777(q) ;"______"
017612:  777777777777  conso    774, @777777(q) ;"______"
017613:  777777777777  conso    774, @777777(q) ;"______"
017614:  777777777777  conso    774, @777777(q) ;"______"
017615:  777777777777  conso    774, @777777(q) ;"______"
017616:  777777777777  conso    774, @777777(q) ;"______"
017617:  777777777777  conso    774, @777777(q) ;"______"
017620:  777777777777  conso    774, @777777(q) ;"______"
017621:  777777777777  conso    774, @777777(q) ;"______"
017622:  777777777777  conso    774, @777777(q) ;"______"
017623:  777777777777  conso    774, @777777(q) ;"______"
017624:  777777777777  conso    774, @777777(q) ;"______"
017625:  777777777777  conso    774, @777777(q) ;"______"
017626:  777777777777  conso    774, @777777(q) ;"______"
017627:  777777777777  conso    774, @777777(q) ;"______"
017630:  777777777777  conso    774, @777777(q) ;"______"
017631:  777777777777  conso    774, @777777(q) ;"______"
017632:  777777777777  conso    774, @777777(q) ;"______"
017633:  777777777777  conso    774, @777777(q) ;"______"
017634:  777777777777  conso    774, @777777(q) ;"______"
017635:  777777777777  conso    774, @777777(q) ;"______"
017636:  777777777777  conso    774, @777777(q) ;"______"
017637:  777777777777  conso    774, @777777(q) ;"______"
017640:  777777777777  conso    774, @777777(q) ;"______"
017641:  777777777777  conso    774, @777777(q) ;"______"
017642:  777777777777  conso    774, @777777(q) ;"______"
017643:  777777777777  conso    774, @777777(q) ;"______"
017644:  777777777777  conso    774, @777777(q) ;"______"
017645:  777777777777  conso    774, @777777(q) ;"______"
017646:  777777777777  conso    774, @777777(q) ;"______"
017647:  777777777777  conso    774, @777777(q) ;"______"
017650:  777777777777  conso    774, @777777(q) ;"______"
017651:  777777777777  conso    774, @777777(q) ;"______"
017652:  777777777777  conso    774, @777777(q) ;"______"
017653:  777777777777  conso    774, @777777(q) ;"______"
017654:  777777777777  conso    774, @777777(q) ;"______"
017655:  777777777777  conso    774, @777777(q) ;"______"
017656:  777777777777  conso    774, @777777(q) ;"______"
017657:  777777777777  conso    774, @777777(q) ;"______"
017660:  777777777777  conso    774, @777777(q) ;"______"
017661:  777777777777  conso    774, @777777(q) ;"______"
017662:  777777777777  conso    774, @777777(q) ;"______"
017663:  777777777777  conso    774, @777777(q) ;"______"
017664:  777777777777  conso    774, @777777(q) ;"______"
017665:  777777777777  conso    774, @777777(q) ;"______"
017666:  777777777777  conso    774, @777777(q) ;"______"
017667:  777777777777  conso    774, @777777(q) ;"______"
017670:  777777777777  conso    774, @777777(q) ;"______"
017671:  777777777777  conso    774, @777777(q) ;"______"
017672:  777777777777  conso    774, @777777(q) ;"______"
017673:  777777777777  conso    774, @777777(q) ;"______"
017674:  777777777777  conso    774, @777777(q) ;"______"
017675:  777777777777  conso    774, @777777(q) ;"______"
017676:  777777777777  conso    774, @777777(q) ;"______"
017677:  777777777777  conso    774, @777777(q) ;"______"
017700:  777777777777  conso    774, @777777(q) ;"______"
017701:  777777777777  conso    774, @777777(q) ;"______"
017702:  777777777777  conso    774, @777777(q) ;"______"
017703:  777777777777  conso    774, @777777(q) ;"______"
017704:  777777777777  conso    774, @777777(q) ;"______"
017705:  777777777777  conso    774, @777777(q) ;"______"
017706:  777777777777  conso    774, @777777(q) ;"______"
017707:  777777777777  conso    774, @777777(q) ;"______"
017710:  777777777777  conso    774, @777777(q) ;"______"
017711:  777777777777  conso    774, @777777(q) ;"______"
017712:  777777777777  conso    774, @777777(q) ;"______"
017713:  777777777777  conso    774, @777777(q) ;"______"
017714:  777777777777  conso    774, @777777(q) ;"______"
017715:  777777777777  conso    774, @777777(q) ;"______"
017716:  777777777777  conso    774, @777777(q) ;"______"
017717:  777777777777  conso    774, @777777(q) ;"______"
017720:  777777777777  conso    774, @777777(q) ;"______"
017721:  777777777777  conso    774, @777777(q) ;"______"
017722:  777777777777  conso    774, @777777(q) ;"______"
017723:  777777777777  conso    774, @777777(q) ;"______"
017724:  777777777777  conso    774, @777777(q) ;"______"
017725:  777777777777  conso    774, @777777(q) ;"______"
017726:  777777777777  conso    774, @777777(q) ;"______"
017727:  777777777777  conso    774, @777777(q) ;"______"
017730:  777777777777  conso    774, @777777(q) ;"______"
017731:  777777777777  conso    774, @777777(q) ;"______"
017732:  777777777777  conso    774, @777777(q) ;"______"
017733:  777777777777  conso    774, @777777(q) ;"______"
017734:  777777777777  conso    774, @777777(q) ;"______"
017735:  777777777777  conso    774, @777777(q) ;"______"
017736:  777777777777  conso    774, @777777(q) ;"______"
017737:  777777777777  conso    774, @777777(q) ;"______"
017740:  777777777777  conso    774, @777777(q) ;"______"
017741:  777777777777  conso    774, @777777(q) ;"______"
017742:  777777777777  conso    774, @777777(q) ;"______"
017743:  777777777777  conso    774, @777777(q) ;"______"
017744:  777777777777  conso    774, @777777(q) ;"______"
017745:  777777777777  conso    774, @777777(q) ;"______"
017746:  777777777777  conso    774, @777777(q) ;"______"
017747:  777777777777  conso    774, @777777(q) ;"______"
017750:  777777777777  conso    774, @777777(q) ;"______"
017751:  777777777777  conso    774, @777777(q) ;"______"
017752:  777777777777  conso    774, @777777(q) ;"______"
017753:  777777777777  conso    774, @777777(q) ;"______"
017754:  777777777777  conso    774, @777777(q) ;"______"
017755:  777777777777  conso    774, @777777(q) ;"______"
017756:  777777777777  conso    774, @777777(q) ;"______"
017757:  777777777777  conso    774, @777777(q) ;"______"
017760:  777777777777  conso    774, @777777(q) ;"______"
017761:  777777777777  conso    774, @777777(q) ;"______"
017762:  777777777777  conso    774, @777777(q) ;"______"
017763:  777777777777  conso    774, @777777(q) ;"______"
017764:  777777777777  conso    774, @777777(q) ;"______"
017765:  777777777777  conso    774, @777777(q) ;"______"
017766:  777777777777  conso    774, @777777(q) ;"______"
017767:  777777777777  conso    774, @777777(q) ;"______"
017770:  777777777777  conso    774, @777777(q) ;"______"
017771:  777777777777  conso    774, @777777(q) ;"______"
017772:  777777777777  conso    774, @777777(q) ;"______"
017773:  777777777777  conso    774, @777777(q) ;"______"
017774:  777777777777  conso    774, @777777(q) ;"______"
017775:  777777777777  conso    774, @777777(q) ;"______"
017776:  777777777777  conso    774, @777777(q) ;"______"
017777:  777777777777  conso    774, @777777(q) ;"______"
%rrufd:
020000:  777777777777  conso    774, @777777(q) ;"______"
020001:  777777777777  conso    774, @777777(q) ;"______"
020002:  777777777777  conso    774, @777777(q) ;"______"
020003:  777777777777  conso    774, @777777(q) ;"______"
020004:  777777777777  conso    774, @777777(q) ;"______"
020005:  777777777777  conso    774, @777777(q) ;"______"
020006:  777777777777  conso    774, @777777(q) ;"______"
020007:  777777777777  conso    774, @777777(q) ;"______"
020010:  777777777777  conso    774, @777777(q) ;"______"
020011:  777777777777  conso    774, @777777(q) ;"______"
020012:  777777777777  conso    774, @777777(q) ;"______"
020013:  777777777777  conso    774, @777777(q) ;"______"
020014:  777777777777  conso    774, @777777(q) ;"______"
020015:  777777777777  conso    774, @777777(q) ;"______"
020016:  777777777777  conso    774, @777777(q) ;"______"
020017:  777777777777  conso    774, @777777(q) ;"______"
020020:  777777777777  conso    774, @777777(q) ;"______"
020021:  777777777777  conso    774, @777777(q) ;"______"
020022:  777777777777  conso    774, @777777(q) ;"______"
020023:  777777777777  conso    774, @777777(q) ;"______"
020024:  777777777777  conso    774, @777777(q) ;"______"
020025:  777777777777  conso    774, @777777(q) ;"______"
020026:  777777777777  conso    774, @777777(q) ;"______"
020027:  777777777777  conso    774, @777777(q) ;"______"
020030:  777777777777  conso    774, @777777(q) ;"______"
020031:  777777777777  conso    774, @777777(q) ;"______"
020032:  777777777777  conso    774, @777777(q) ;"______"
020033:  777777777777  conso    774, @777777(q) ;"______"
020034:  777777777777  conso    774, @777777(q) ;"______"
020035:  777777777777  conso    774, @777777(q) ;"______"
020036:  777777777777  conso    774, @777777(q) ;"______"
020037:  777777777777  conso    774, @777777(q) ;"______"
020040:  777777777777  conso    774, @777777(q) ;"______"
020041:  777777777777  conso    774, @777777(q) ;"______"
020042:  777777777777  conso    774, @777777(q) ;"______"
020043:  777777777777  conso    774, @777777(q) ;"______"
020044:  777777777777  conso    774, @777777(q) ;"______"
020045:  777777777777  conso    774, @777777(q) ;"______"
020046:  777777777777  conso    774, @777777(q) ;"______"
020047:  777777777777  conso    774, @777777(q) ;"______"
020050:  777777777777  conso    774, @777777(q) ;"______"
020051:  777777777777  conso    774, @777777(q) ;"______"
020052:  777777777777  conso    774, @777777(q) ;"______"
020053:  777777777777  conso    774, @777777(q) ;"______"
020054:  777777777777  conso    774, @777777(q) ;"______"
020055:  777777777777  conso    774, @777777(q) ;"______"
020056:  777777777777  conso    774, @777777(q) ;"______"
020057:  777777777777  conso    774, @777777(q) ;"______"
020060:  777777777777  conso    774, @777777(q) ;"______"
020061:  777777777777  conso    774, @777777(q) ;"______"
020062:  777777777777  conso    774, @777777(q) ;"______"
020063:  777777777777  conso    774, @777777(q) ;"______"
020064:  777777777777  conso    774, @777777(q) ;"______"
020065:  777777777777  conso    774, @777777(q) ;"______"
020066:  777777777777  conso    774, @777777(q) ;"______"
020067:  777777777777  conso    774, @777777(q) ;"______"
020070:  777777777777  conso    774, @777777(q) ;"______"
020071:  777777777777  conso    774, @777777(q) ;"______"
020072:  777777777777  conso    774, @777777(q) ;"______"
020073:  777777777777  conso    774, @777777(q) ;"______"
020074:  777777777777  conso    774, @777777(q) ;"______"
020075:  777777777777  conso    774, @777777(q) ;"______"
020076:  777777777777  conso    774, @777777(q) ;"______"
020077:  777777777777  conso    774, @777777(q) ;"______"
020100:  777777777777  conso    774, @777777(q) ;"______"
020101:  777777777777  conso    774, @777777(q) ;"______"
020102:  777777777777  conso    774, @777777(q) ;"______"
020103:  777777777777  conso    774, @777777(q) ;"______"
020104:  777777777777  conso    774, @777777(q) ;"______"
020105:  777777777777  conso    774, @777777(q) ;"______"
020106:  777777777777  conso    774, @777777(q) ;"______"
020107:  777777777777  conso    774, @777777(q) ;"______"
020110:  777777777777  conso    774, @777777(q) ;"______"
020111:  777777777777  conso    774, @777777(q) ;"______"
020112:  777777777777  conso    774, @777777(q) ;"______"
020113:  777777777777  conso    774, @777777(q) ;"______"
020114:  777777777777  conso    774, @777777(q) ;"______"
020115:  777777777777  conso    774, @777777(q) ;"______"
020116:  777777777777  conso    774, @777777(q) ;"______"
020117:  777777777777  conso    774, @777777(q) ;"______"
020120:  777777777777  conso    774, @777777(q) ;"______"
020121:  777777777777  conso    774, @777777(q) ;"______"
020122:  777777777777  conso    774, @777777(q) ;"______"
020123:  777777777777  conso    774, @777777(q) ;"______"
020124:  777777777777  conso    774, @777777(q) ;"______"
020125:  777777777777  conso    774, @777777(q) ;"______"
020126:  777777777777  conso    774, @777777(q) ;"______"
020127:  777777777777  conso    774, @777777(q) ;"______"
020130:  777777777777  conso    774, @777777(q) ;"______"
020131:  777777777777  conso    774, @777777(q) ;"______"
020132:  777777777777  conso    774, @777777(q) ;"______"
020133:  777777777777  conso    774, @777777(q) ;"______"
020134:  777777777777  conso    774, @777777(q) ;"______"
020135:  777777777777  conso    774, @777777(q) ;"______"
020136:  777777777777  conso    774, @777777(q) ;"______"
020137:  777777777777  conso    774, @777777(q) ;"______"
020140:  777777777777  conso    774, @777777(q) ;"______"
020141:  777777777777  conso    774, @777777(q) ;"______"
020142:  777777777777  conso    774, @777777(q) ;"______"
020143:  777777777777  conso    774, @777777(q) ;"______"
020144:  777777777777  conso    774, @777777(q) ;"______"
020145:  777777777777  conso    774, @777777(q) ;"______"
020146:  777777777777  conso    774, @777777(q) ;"______"
020147:  777777777777  conso    774, @777777(q) ;"______"
020150:  777777777777  conso    774, @777777(q) ;"______"
020151:  777777777777  conso    774, @777777(q) ;"______"
020152:  777777777777  conso    774, @777777(q) ;"______"
020153:  777777777777  conso    774, @777777(q) ;"______"
020154:  777777777777  conso    774, @777777(q) ;"______"
020155:  777777777777  conso    774, @777777(q) ;"______"
020156:  777777777777  conso    774, @777777(q) ;"______"
020157:  777777777777  conso    774, @777777(q) ;"______"
020160:  777777777777  conso    774, @777777(q) ;"______"
020161:  777777777777  conso    774, @777777(q) ;"______"
020162:  777777777777  conso    774, @777777(q) ;"______"
020163:  777777777777  conso    774, @777777(q) ;"______"
020164:  777777777777  conso    774, @777777(q) ;"______"
020165:  777777777777  conso    774, @777777(q) ;"______"
020166:  777777777777  conso    774, @777777(q) ;"______"
020167:  777777777777  conso    774, @777777(q) ;"______"
020170:  777777777777  conso    774, @777777(q) ;"______"
020171:  777777777777  conso    774, @777777(q) ;"______"
020172:  777777777777  conso    774, @777777(q) ;"______"
020173:  777777777777  conso    774, @777777(q) ;"______"
020174:  777777777777  conso    774, @777777(q) ;"______"
020175:  777777777777  conso    774, @777777(q) ;"______"
020176:  777777777777  conso    774, @777777(q) ;"______"
020177:  777777777777  conso    774, @777777(q) ;"______"
020200:  777777777777  conso    774, @777777(q) ;"______"
020201:  777777777777  conso    774, @777777(q) ;"______"
020202:  777777777777  conso    774, @777777(q) ;"______"
020203:  777777777777  conso    774, @777777(q) ;"______"
020204:  777777777777  conso    774, @777777(q) ;"______"
020205:  777777777777  conso    774, @777777(q) ;"______"
020206:  777777777777  conso    774, @777777(q) ;"______"
020207:  777777777777  conso    774, @777777(q) ;"______"
020210:  777777777777  conso    774, @777777(q) ;"______"
020211:  777777777777  conso    774, @777777(q) ;"______"
020212:  777777777777  conso    774, @777777(q) ;"______"
020213:  777777777777  conso    774, @777777(q) ;"______"
020214:  777777777777  conso    774, @777777(q) ;"______"
020215:  777777777777  conso    774, @777777(q) ;"______"
020216:  777777777777  conso    774, @777777(q) ;"______"
020217:  777777777777  conso    774, @777777(q) ;"______"
020220:  777777777777  conso    774, @777777(q) ;"______"
020221:  777777777777  conso    774, @777777(q) ;"______"
020222:  777777777777  conso    774, @777777(q) ;"______"
020223:  777777777777  conso    774, @777777(q) ;"______"
020224:  777777777777  conso    774, @777777(q) ;"______"
020225:  777777777777  conso    774, @777777(q) ;"______"
020226:  777777777777  conso    774, @777777(q) ;"______"
020227:  777777777777  conso    774, @777777(q) ;"______"
020230:  777777777777  conso    774, @777777(q) ;"______"
020231:  777777777777  conso    774, @777777(q) ;"______"
020232:  777777777777  conso    774, @777777(q) ;"______"
020233:  777777777777  conso    774, @777777(q) ;"______"
020234:  777777777777  conso    774, @777777(q) ;"______"
020235:  777777777777  conso    774, @777777(q) ;"______"
020236:  777777777777  conso    774, @777777(q) ;"______"
020237:  777777777777  conso    774, @777777(q) ;"______"
020240:  777777777777  conso    774, @777777(q) ;"______"
020241:  777777777777  conso    774, @777777(q) ;"______"
020242:  777777777777  conso    774, @777777(q) ;"______"
020243:  777777777777  conso    774, @777777(q) ;"______"
020244:  777777777777  conso    774, @777777(q) ;"______"
020245:  777777777777  conso    774, @777777(q) ;"______"
020246:  777777777777  conso    774, @777777(q) ;"______"
020247:  777777777777  conso    774, @777777(q) ;"______"
020250:  777777777777  conso    774, @777777(q) ;"______"
020251:  777777777777  conso    774, @777777(q) ;"______"
020252:  777777777777  conso    774, @777777(q) ;"______"
020253:  777777777777  conso    774, @777777(q) ;"______"
020254:  777777777777  conso    774, @777777(q) ;"______"
020255:  777777777777  conso    774, @777777(q) ;"______"
020256:  777777777777  conso    774, @777777(q) ;"______"
020257:  777777777777  conso    774, @777777(q) ;"______"
020260:  777777777777  conso    774, @777777(q) ;"______"
020261:  777777777777  conso    774, @777777(q) ;"______"
020262:  777777777777  conso    774, @777777(q) ;"______"
020263:  777777777777  conso    774, @777777(q) ;"______"
020264:  777777777777  conso    774, @777777(q) ;"______"
020265:  777777777777  conso    774, @777777(q) ;"______"
020266:  777777777777  conso    774, @777777(q) ;"______"
020267:  777777777777  conso    774, @777777(q) ;"______"
020270:  777777777777  conso    774, @777777(q) ;"______"
020271:  777777777777  conso    774, @777777(q) ;"______"
020272:  777777777777  conso    774, @777777(q) ;"______"
020273:  777777777777  conso    774, @777777(q) ;"______"
020274:  777777777777  conso    774, @777777(q) ;"______"
020275:  777777777777  conso    774, @777777(q) ;"______"
020276:  777777777777  conso    774, @777777(q) ;"______"
020277:  777777777777  conso    774, @777777(q) ;"______"
020300:  777777777777  conso    774, @777777(q) ;"______"
020301:  777777777777  conso    774, @777777(q) ;"______"
020302:  777777777777  conso    774, @777777(q) ;"______"
020303:  777777777777  conso    774, @777777(q) ;"______"
020304:  777777777777  conso    774, @777777(q) ;"______"
020305:  777777777777  conso    774, @777777(q) ;"______"
020306:  777777777777  conso    774, @777777(q) ;"______"
020307:  777777777777  conso    774, @777777(q) ;"______"
020310:  777777777777  conso    774, @777777(q) ;"______"
020311:  777777777777  conso    774, @777777(q) ;"______"
020312:  777777777777  conso    774, @777777(q) ;"______"
020313:  777777777777  conso    774, @777777(q) ;"______"
020314:  777777777777  conso    774, @777777(q) ;"______"
020315:  777777777777  conso    774, @777777(q) ;"______"
020316:  777777777777  conso    774, @777777(q) ;"______"
020317:  777777777777  conso    774, @777777(q) ;"______"
020320:  777777777777  conso    774, @777777(q) ;"______"
020321:  777777777777  conso    774, @777777(q) ;"______"
020322:  777777777777  conso    774, @777777(q) ;"______"
020323:  777777777777  conso    774, @777777(q) ;"______"
020324:  777777777777  conso    774, @777777(q) ;"______"
020325:  777777777777  conso    774, @777777(q) ;"______"
020326:  777777777777  conso    774, @777777(q) ;"______"
020327:  777777777777  conso    774, @777777(q) ;"______"
020330:  777777777777  conso    774, @777777(q) ;"______"
020331:  777777777777  conso    774, @777777(q) ;"______"
020332:  777777777777  conso    774, @777777(q) ;"______"
020333:  777777777777  conso    774, @777777(q) ;"______"
020334:  777777777777  conso    774, @777777(q) ;"______"
020335:  777777777777  conso    774, @777777(q) ;"______"
020336:  777777777777  conso    774, @777777(q) ;"______"
020337:  777777777777  conso    774, @777777(q) ;"______"
020340:  777777777777  conso    774, @777777(q) ;"______"
020341:  777777777777  conso    774, @777777(q) ;"______"
020342:  777777777777  conso    774, @777777(q) ;"______"
020343:  777777777777  conso    774, @777777(q) ;"______"
020344:  777777777777  conso    774, @777777(q) ;"______"
020345:  777777777777  conso    774, @777777(q) ;"______"
020346:  777777777777  conso    774, @777777(q) ;"______"
020347:  777777777777  conso    774, @777777(q) ;"______"
020350:  777777777777  conso    774, @777777(q) ;"______"
020351:  777777777777  conso    774, @777777(q) ;"______"
020352:  777777777777  conso    774, @777777(q) ;"______"
020353:  777777777777  conso    774, @777777(q) ;"______"
020354:  777777777777  conso    774, @777777(q) ;"______"
020355:  777777777777  conso    774, @777777(q) ;"______"
020356:  777777777777  conso    774, @777777(q) ;"______"
020357:  777777777777  conso    774, @777777(q) ;"______"
020360:  777777777777  conso    774, @777777(q) ;"______"
020361:  777777777777  conso    774, @777777(q) ;"______"
020362:  777777777777  conso    774, @777777(q) ;"______"
020363:  777777777777  conso    774, @777777(q) ;"______"
020364:  777777777777  conso    774, @777777(q) ;"______"
020365:  777777777777  conso    774, @777777(q) ;"______"
020366:  777777777777  conso    774, @777777(q) ;"______"
020367:  777777777777  conso    774, @777777(q) ;"______"
020370:  777777777777  conso    774, @777777(q) ;"______"
020371:  777777777777  conso    774, @777777(q) ;"______"
020372:  777777777777  conso    774, @777777(q) ;"______"
020373:  777777777777  conso    774, @777777(q) ;"______"
020374:  777777777777  conso    774, @777777(q) ;"______"
020375:  777777777777  conso    774, @777777(q) ;"______"
020376:  777777777777  conso    774, @777777(q) ;"______"
020377:  777777777777  conso    774, @777777(q) ;"______"
020400:  777777777777  conso    774, @777777(q) ;"______"
020401:  777777777777  conso    774, @777777(q) ;"______"
020402:  777777777777  conso    774, @777777(q) ;"______"
020403:  777777777777  conso    774, @777777(q) ;"______"
020404:  777777777777  conso    774, @777777(q) ;"______"
020405:  777777777777  conso    774, @777777(q) ;"______"
020406:  777777777777  conso    774, @777777(q) ;"______"
020407:  777777777777  conso    774, @777777(q) ;"______"
020410:  777777777777  conso    774, @777777(q) ;"______"
020411:  777777777777  conso    774, @777777(q) ;"______"
020412:  777777777777  conso    774, @777777(q) ;"______"
020413:  777777777777  conso    774, @777777(q) ;"______"
020414:  777777777777  conso    774, @777777(q) ;"______"
020415:  777777777777  conso    774, @777777(q) ;"______"
020416:  777777777777  conso    774, @777777(q) ;"______"
020417:  777777777777  conso    774, @777777(q) ;"______"
020420:  777777777777  conso    774, @777777(q) ;"______"
020421:  777777777777  conso    774, @777777(q) ;"______"
020422:  777777777777  conso    774, @777777(q) ;"______"
020423:  777777777777  conso    774, @777777(q) ;"______"
020424:  777777777777  conso    774, @777777(q) ;"______"
020425:  777777777777  conso    774, @777777(q) ;"______"
020426:  777777777777  conso    774, @777777(q) ;"______"
020427:  777777777777  conso    774, @777777(q) ;