; WLALINK ($VER: wlalink 5.20 (23.6.2023)) listing file
; 2023-06-23 18:16:37

;Line Bank Slot PC   Offset Hex                             Source
                                                            
                                                            .MEMORYMAP
                                                            DEFAULTSLOT 0
                                                            SLOTSIZE $200
                                                            SLOT 0 $0000
                                                            SLOT 1 $0200
                                                            .ENDME
                                                            
                                                            .ROMBANKMAP
                                                            BANKSTOTAL 10
                                                            BANKSIZE $200
                                                            BANKS 10
                                                            .ENDRO
                                                            
                                                            .printv dec (-(1+2+3-(3+2)+1)-1)
                                                            .printt "\n"
                                                            
                                                            
                                                            .slot 0
                                                            
                                                            .section "bossman" superfree
                                                            .repeat $200
   23 0001 0000 0000 0000   01                                .db 1
   23 0001 0000 0001 0001   01 
   23 0001 0000 0002 0002   01 
   23 0001 0000 0003 0003   01 
   23 0001 0000 0004 0004   01 
   23 0001 0000 0005 0005   01 
   23 0001 0000 0006 0006   01 
   23 0001 0000 0007 0007   01 
   23 0001 0000 0008 0008   01 
   23 0001 0000 0009 0009   01 
   23 0001 0000 000A 000A   01 
   23 0001 0000 000B 000B   01 
   23 0001 0000 000C 000C   01 
   23 0001 0000 000D 000D   01 
   23 0001 0000 000E 000E   01 
   23 0001 0000 000F 000F   01 
   23 0001 0000 0010 0010   01 
   23 0001 0000 0011 0011   01 
   23 0001 0000 0012 0012   01 
   23 0001 0000 0013 0013   01 
   23 0001 0000 0014 0014   01 
   23 0001 0000 0015 0015   01 
   23 0001 0000 0016 0016   01 
   23 0001 0000 0017 0017   01 
   23 0001 0000 0018 0018   01 
   23 0001 0000 0019 0019   01 
   23 0001 0000 001A 001A   01 
   23 0001 0000 001B 001B   01 
   23 0001 0000 001C 001C   01 
   23 0001 0000 001D 001D   01 
   23 0001 0000 001E 001E   01 
   23 0001 0000 001F 001F   01 
   23 0001 0000 0020 0020   01 
   23 0001 0000 0021 0021   01 
   23 0001 0000 0022 0022   01 
   23 0001 0000 0023 0023   01 
   23 0001 0000 0024 0024   01 
   23 0001 0000 0025 0025   01 
   23 0001 0000 0026 0026   01 
   23 0001 0000 0027 0027   01 
   23 0001 0000 0028 0028   01 
   23 0001 0000 0029 0029   01 
   23 0001 0000 002A 002A   01 
   23 0001 0000 002B 002B   01 
   23 0001 0000 002C 002C   01 
   23 0001 0000 002D 002D   01 
   23 0001 0000 002E 002E   01 
   23 0001 0000 002F 002F   01 
   23 0001 0000 0030 0030   01 
   23 0001 0000 0031 0031   01 
   23 0001 0000 0032 0032   01 
   23 0001 0000 0033 0033   01 
   23 0001 0000 0034 0034   01 
   23 0001 0000 0035 0035   01 
   23 0001 0000 0036 0036   01 
   23 0001 0000 0037 0037   01 
   23 0001 0000 0038 0038   01 
   23 0001 0000 0039 0039   01 
   23 0001 0000 003A 003A   01 
   23 0001 0000 003B 003B   01 
   23 0001 0000 003C 003C   01 
   23 0001 0000 003D 003D   01 
   23 0001 0000 003E 003E   01 
   23 0001 0000 003F 003F   01 
   23 0001 0000 0040 0040   01 
   23 0001 0000 0041 0041   01 
   23 0001 0000 0042 0042   01 
   23 0001 0000 0043 0043   01 
   23 0001 0000 0044 0044   01 
   23 0001 0000 0045 0045   01 
   23 0001 0000 0046 0046   01 
   23 0001 0000 0047 0047   01 
   23 0001 0000 0048 0048   01 
   23 0001 0000 0049 0049   01 
   23 0001 0000 004A 004A   01 
   23 0001 0000 004B 004B   01 
   23 0001 0000 004C 004C   01 
   23 0001 0000 004D 004D   01 
   23 0001 0000 004E 004E   01 
   23 0001 0000 004F 004F   01 
   23 0001 0000 0050 0050   01 
   23 0001 0000 0051 0051   01 
   23 0001 0000 0052 0052   01 
   23 0001 0000 0053 0053   01 
   23 0001 0000 0054 0054   01 
   23 0001 0000 0055 0055   01 
   23 0001 0000 0056 0056   01 
   23 0001 0000 0057 0057   01 
   23 0001 0000 0058 0058   01 
   23 0001 0000 0059 0059   01 
   23 0001 0000 005A 005A   01 
   23 0001 0000 005B 005B   01 
   23 0001 0000 005C 005C   01 
   23 0001 0000 005D 005D   01 
   23 0001 0000 005E 005E   01 
   23 0001 0000 005F 005F   01 
   23 0001 0000 0060 0060   01 
   23 0001 0000 0061 0061   01 
   23 0001 0000 0062 0062   01 
   23 0001 0000 0063 0063   01 
   23 0001 0000 0064 0064   01 
   23 0001 0000 0065 0065   01 
   23 0001 0000 0066 0066   01 
   23 0001 0000 0067 0067   01 
   23 0001 0000 0068 0068   01 
   23 0001 0000 0069 0069   01 
   23 0001 0000 006A 006A   01 
   23 0001 0000 006B 006B   01 
   23 0001 0000 006C 006C   01 
   23 0001 0000 006D 006D   01 
   23 0001 0000 006E 006E   01 
   23 0001 0000 006F 006F   01 
   23 0001 0000 0070 0070   01 
   23 0001 0000 0071 0071   01 
   23 0001 0000 0072 0072   01 
   23 0001 0000 0073 0073   01 
   23 0001 0000 0074 0074   01 
   23 0001 0000 0075 0075   01 
   23 0001 0000 0076 0076   01 
   23 0001 0000 0077 0077   01 
   23 0001 0000 0078 0078   01 
   23 0001 0000 0079 0079   01 
   23 0001 0000 007A 007A   01 
   23 0001 0000 007B 007B   01 
   23 0001 0000 007C 007C   01 
   23 0001 0000 007D 007D   01 
   23 0001 0000 007E 007E   01 
   23 0001 0000 007F 007F   01 
   23 0001 0000 0080 0080   01 
   23 0001 0000 0081 0081   01 
   23 0001 0000 0082 0082   01 
   23 0001 0000 0083 0083   01 
   23 0001 0000 0084 0084   01 
   23 0001 0000 0085 0085   01 
   23 0001 0000 0086 0086   01 
   23 0001 0000 0087 0087   01 
   23 0001 0000 0088 0088   01 
   23 0001 0000 0089 0089   01 
   23 0001 0000 008A 008A   01 
   23 0001 0000 008B 008B   01 
   23 0001 0000 008C 008C   01 
   23 0001 0000 008D 008D   01 
   23 0001 0000 008E 008E   01 
   23 0001 0000 008F 008F   01 
   23 0001 0000 0090 0090   01 
   23 0001 0000 0091 0091   01 
   23 0001 0000 0092 0092   01 
   23 0001 0000 0093 0093   01 
   23 0001 0000 0094 0094   01 
   23 0001 0000 0095 0095   01 
   23 0001 0000 0096 0096   01 
   23 0001 0000 0097 0097   01 
   23 0001 0000 0098 0098   01 
   23 0001 0000 0099 0099   01 
   23 0001 0000 009A 009A   01 
   23 0001 0000 009B 009B   01 
   23 0001 0000 009C 009C   01 
   23 0001 0000 009D 009D   01 
   23 0001 0000 009E 009E   01 
   23 0001 0000 009F 009F   01 
   23 0001 0000 00A0 00A0   01 
   23 0001 0000 00A1 00A1   01 
   23 0001 0000 00A2 00A2   01 
   23 0001 0000 00A3 00A3   01 
   23 0001 0000 00A4 00A4   01 
   23 0001 0000 00A5 00A5   01 
   23 0001 0000 00A6 00A6   01 
   23 0001 0000 00A7 00A7   01 
   23 0001 0000 00A8 00A8   01 
   23 0001 0000 00A9 00A9   01 
   23 0001 0000 00AA 00AA   01 
   23 0001 0000 00AB 00AB   01 
   23 0001 0000 00AC 00AC   01 
   23 0001 0000 00AD 00AD   01 
   23 0001 0000 00AE 00AE   01 
   23 0001 0000 00AF 00AF   01 
   23 0001 0000 00B0 00B0   01 
   23 0001 0000 00B1 00B1   01 
   23 0001 0000 00B2 00B2   01 
   23 0001 0000 00B3 00B3   01 
   23 0001 0000 00B4 00B4   01 
   23 0001 0000 00B5 00B5   01 
   23 0001 0000 00B6 00B6   01 
   23 0001 0000 00B7 00B7   01 
   23 0001 0000 00B8 00B8   01 
   23 0001 0000 00B9 00B9   01 
   23 0001 0000 00BA 00BA   01 
   23 0001 0000 00BB 00BB   01 
   23 0001 0000 00BC 00BC   01 
   23 0001 0000 00BD 00BD   01 
   23 0001 0000 00BE 00BE   01 
   23 0001 0000 00BF 00BF   01 
   23 0001 0000 00C0 00C0   01 
   23 0001 0000 00C1 00C1   01 
   23 0001 0000 00C2 00C2   01 
   23 0001 0000 00C3 00C3   01 
   23 0001 0000 00C4 00C4   01 
   23 0001 0000 00C5 00C5   01 
   23 0001 0000 00C6 00C6   01 
   23 0001 0000 00C7 00C7   01 
   23 0001 0000 00C8 00C8   01 
   23 0001 0000 00C9 00C9   01 
   23 0001 0000 00CA 00CA   01 
   23 0001 0000 00CB 00CB   01 
   23 0001 0000 00CC 00CC   01 
   23 0001 0000 00CD 00CD   01 
   23 0001 0000 00CE 00CE   01 
   23 0001 0000 00CF 00CF   01 
   23 0001 0000 00D0 00D0   01 
   23 0001 0000 00D1 00D1   01 
   23 0001 0000 00D2 00D2   01 
   23 0001 0000 00D3 00D3   01 
   23 0001 0000 00D4 00D4   01 
   23 0001 0000 00D5 00D5   01 
   23 0001 0000 00D6 00D6   01 
   23 0001 0000 00D7 00D7   01 
   23 0001 0000 00D8 00D8   01 
   23 0001 0000 00D9 00D9   01 
   23 0001 0000 00DA 00DA   01 
   23 0001 0000 00DB 00DB   01 
   23 0001 0000 00DC 00DC   01 
   23 0001 0000 00DD 00DD   01 
   23 0001 0000 00DE 00DE   01 
   23 0001 0000 00DF 00DF   01 
   23 0001 0000 00E0 00E0   01 
   23 0001 0000 00E1 00E1   01 
   23 0001 0000 00E2 00E2   01 
   23 0001 0000 00E3 00E3   01 
   23 0001 0000 00E4 00E4   01 
   23 0001 0000 00E5 00E5   01 
   23 0001 0000 00E6 00E6   01 
   23 0001 0000 00E7 00E7   01 
   23 0001 0000 00E8 00E8   01 
   23 0001 0000 00E9 00E9   01 
   23 0001 0000 00EA 00EA   01 
   23 0001 0000 00EB 00EB   01 
   23 0001 0000 00EC 00EC   01 
   23 0001 0000 00ED 00ED   01 
   23 0001 0000 00EE 00EE   01 
   23 0001 0000 00EF 00EF   01 
   23 0001 0000 00F0 00F0   01 
   23 0001 0000 00F1 00F1   01 
   23 0001 0000 00F2 00F2   01 
   23 0001 0000 00F3 00F3   01 
   23 0001 0000 00F4 00F4   01 
   23 0001 0000 00F5 00F5   01 
   23 0001 0000 00F6 00F6   01 
   23 0001 0000 00F7 00F7   01 
   23 0001 0000 00F8 00F8   01 
   23 0001 0000 00F9 00F9   01 
   23 0001 0000 00FA 00FA   01 
   23 0001 0000 00FB 00FB   01 
   23 0001 0000 00FC 00FC   01 
   23 0001 0000 00FD 00FD   01 
   23 0001 0000 00FE 00FE   01 
   23 0001 0000 00FF 00FF   01 
   23 0001 0000 0100 0100   01 
   23 0001 0000 0101 0101   01 
   23 0001 0000 0102 0102   01 
   23 0001 0000 0103 0103   01 
   23 0001 0000 0104 0104   01 
   23 0001 0000 0105 0105   01 
   23 0001 0000 0106 0106   01 
   23 0001 0000 0107 0107   01 
   23 0001 0000 0108 0108   01 
   23 0001 0000 0109 0109   01 
   23 0001 0000 010A 010A   01 
   23 0001 0000 010B 010B   01 
   23 0001 0000 010C 010C   01 
   23 0001 0000 010D 010D   01 
   23 0001 0000 010E 010E   01 
   23 0001 0000 010F 010F   01 
   23 0001 0000 0110 0110   01 
   23 0001 0000 0111 0111   01 
   23 0001 0000 0112 0112   01 
   23 0001 0000 0113 0113   01 
   23 0001 0000 0114 0114   01 
   23 0001 0000 0115 0115   01 
   23 0001 0000 0116 0116   01 
   23 0001 0000 0117 0117   01 
   23 0001 0000 0118 0118   01 
   23 0001 0000 0119 0119   01 
   23 0001 0000 011A 011A   01 
   23 0001 0000 011B 011B   01 
   23 0001 0000 011C 011C   01 
   23 0001 0000 011D 011D   01 
   23 0001 0000 011E 011E   01 
   23 0001 0000 011F 011F   01 
   23 0001 0000 0120 0120   01 
   23 0001 0000 0121 0121   01 
   23 0001 0000 0122 0122   01 
   23 0001 0000 0123 0123   01 
   23 0001 0000 0124 0124   01 
   23 0001 0000 0125 0125   01 
   23 0001 0000 0126 0126   01 
   23 0001 0000 0127 0127   01 
   23 0001 0000 0128 0128   01 
   23 0001 0000 0129 0129   01 
   23 0001 0000 012A 012A   01 
   23 0001 0000 012B 012B   01 
   23 0001 0000 012C 012C   01 
   23 0001 0000 012D 012D   01 
   23 0001 0000 012E 012E   01 
   23 0001 0000 012F 012F   01 
   23 0001 0000 0130 0130   01 
   23 0001 0000 0131 0131   01 
   23 0001 0000 0132 0132   01 
   23 0001 0000 0133 0133   01 
   23 0001 0000 0134 0134   01 
   23 0001 0000 0135 0135   01 
   23 0001 0000 0136 0136   01 
   23 0001 0000 0137 0137   01 
   23 0001 0000 0138 0138   01 
   23 0001 0000 0139 0139   01 
   23 0001 0000 013A 013A   01 
   23 0001 0000 013B 013B   01 
   23 0001 0000 013C 013C   01 
   23 0001 0000 013D 013D   01 
   23 0001 0000 013E 013E   01 
   23 0001 0000 013F 013F   01 
   23 0001 0000 0140 0140   01 
   23 0001 0000 0141 0141   01 
   23 0001 0000 0142 0142   01 
   23 0001 0000 0143 0143   01 
   23 0001 0000 0144 0144   01 
   23 0001 0000 0145 0145   01 
   23 0001 0000 0146 0146   01 
   23 0001 0000 0147 0147   01 
   23 0001 0000 0148 0148   01 
   23 0001 0000 0149 0149   01 
   23 0001 0000 014A 014A   01 
   23 0001 0000 014B 014B   01 
   23 0001 0000 014C 014C   01 
   23 0001 0000 014D 014D   01 
   23 0001 0000 014E 014E   01 
   23 0001 0000 014F 014F   01 
   23 0001 0000 0150 0150   01 
   23 0001 0000 0151 0151   01 
   23 0001 0000 0152 0152   01 
   23 0001 0000 0153 0153   01 
   23 0001 0000 0154 0154   01 
   23 0001 0000 0155 0155   01 
   23 0001 0000 0156 0156   01 
   23 0001 0000 0157 0157   01 
   23 0001 0000 0158 0158   01 
   23 0001 0000 0159 0159   01 
   23 0001 0000 015A 015A   01 
   23 0001 0000 015B 015B   01 
   23 0001 0000 015C 015C   01 
   23 0001 0000 015D 015D   01 
   23 0001 0000 015E 015E   01 
   23 0001 0000 015F 015F   01 
   23 0001 0000 0160 0160   01 
   23 0001 0000 0161 0161   01 
   23 0001 0000 0162 0162   01 
   23 0001 0000 0163 0163   01 
   23 0001 0000 0164 0164   01 
   23 0001 0000 0165 0165   01 
   23 0001 0000 0166 0166   01 
   23 0001 0000 0167 0167   01 
   23 0001 0000 0168 0168   01 
   23 0001 0000 0169 0169   01 
   23 0001 0000 016A 016A   01 
   23 0001 0000 016B 016B   01 
   23 0001 0000 016C 016C   01 
   23 0001 0000 016D 016D   01 
   23 0001 0000 016E 016E   01 
   23 0001 0000 016F 016F   01 
   23 0001 0000 0170 0170   01 
   23 0001 0000 0171 0171   01 
   23 0001 0000 0172 0172   01 
   23 0001 0000 0173 0173   01 
   23 0001 0000 0174 0174   01 
   23 0001 0000 0175 0175   01 
   23 0001 0000 0176 0176   01 
   23 0001 0000 0177 0177   01 
   23 0001 0000 0178 0178   01 
   23 0001 0000 0179 0179   01 
   23 0001 0000 017A 017A   01 
   23 0001 0000 017B 017B   01 
   23 0001 0000 017C 017C   01 
   23 0001 0000 017D 017D   01 
   23 0001 0000 017E 017E   01 
   23 0001 0000 017F 017F   01 
   23 0001 0000 0180 0180   01 
   23 0001 0000 0181 0181   01 
   23 0001 0000 0182 0182   01 
   23 0001 0000 0183 0183   01 
   23 0001 0000 0184 0184   01 
   23 0001 0000 0185 0185   01 
   23 0001 0000 0186 0186   01 
   23 0001 0000 0187 0187   01 
   23 0001 0000 0188 0188   01 
   23 0001 0000 0189 0189   01 
   23 0001 0000 018A 018A   01 
   23 0001 0000 018B 018B   01 
   23 0001 0000 018C 018C   01 
   23 0001 0000 018D 018D   01 
   23 0001 0000 018E 018E   01 
   23 0001 0000 018F 018F   01 
   23 0001 0000 0190 0190   01 
   23 0001 0000 0191 0191   01 
   23 0001 0000 0192 0192   01 
   23 0001 0000 0193 0193   01 
   23 0001 0000 0194 0194   01 
   23 0001 0000 0195 0195   01 
   23 0001 0000 0196 0196   01 
   23 0001 0000 0197 0197   01 
   23 0001 0000 0198 0198   01 
   23 0001 0000 0199 0199   01 
   23 0001 0000 019A 019A   01 
   23 0001 0000 019B 019B   01 
   23 0001 0000 019C 019C   01 
   23 0001 0000 019D 019D   01 
   23 0001 0000 019E 019E   01 
   23 0001 0000 019F 019F   01 
   23 0001 0000 01A0 01A0   01 
   23 0001 0000 01A1 01A1   01 
   23 0001 0000 01A2 01A2   01 
   23 0001 0000 01A3 01A3   01 
   23 0001 0000 01A4 01A4   01 
   23 0001 0000 01A5 01A5   01 
   23 0001 0000 01A6 01A6   01 
   23 0001 0000 01A7 01A7   01 
   23 0001 0000 01A8 01A8   01 
   23 0001 0000 01A9 01A9   01 
   23 0001 0000 01AA 01AA   01 
   23 0001 0000 01AB 01AB   01 
   23 0001 0000 01AC 01AC   01 
   23 0001 0000 01AD 01AD   01 
   23 0001 0000 01AE 01AE   01 
   23 0001 0000 01AF 01AF   01 
   23 0001 0000 01B0 01B0   01 
   23 0001 0000 01B1 01B1   01 
   23 0001 0000 01B2 01B2   01 
   23 0001 0000 01B3 01B3   01 
   23 0001 0000 01B4 01B4   01 
   23 0001 0000 01B5 01B5   01 
   23 0001 0000 01B6 01B6   01 
   23 0001 0000 01B7 01B7   01 
   23 0001 0000 01B8 01B8   01 
   23 0001 0000 01B9 01B9   01 
   23 0001 0000 01BA 01BA   01 
   23 0001 0000 01BB 01BB   01 
   23 0001 0000 01BC 01BC   01 
   23 0001 0000 01BD 01BD   01 
   23 0001 0000 01BE 01BE   01 
   23 0001 0000 01BF 01BF   01 
   23 0001 0000 01C0 01C0   01 
   23 0001 0000 01C1 01C1   01 
   23 0001 0000 01C2 01C2   01 
   23 0001 0000 01C3 01C3   01 
   23 0001 0000 01C4 01C4   01 
   23 0001 0000 01C5 01C5   01 
   23 0001 0000 01C6 01C6   01 
   23 0001 0000 01C7 01C7   01 
   23 0001 0000 01C8 01C8   01 
   23 0001 0000 01C9 01C9   01 
   23 0001 0000 01CA 01CA   01 
   23 0001 0000 01CB 01CB   01 
   23 0001 0000 01CC 01CC   01 
   23 0001 0000 01CD 01CD   01 
   23 0001 0000 01CE 01CE   01 
   23 0001 0000 01CF 01CF   01 
   23 0001 0000 01D0 01D0   01 
   23 0001 0000 01D1 01D1   01 
   23 0001 0000 01D2 01D2   01 
   23 0001 0000 01D3 01D3   01 
   23 0001 0000 01D4 01D4   01 
   23 0001 0000 01D5 01D5   01 
   23 0001 0000 01D6 01D6   01 
   23 0001 0000 01D7 01D7   01 
   23 0001 0000 01D8 01D8   01 
   23 0001 0000 01D9 01D9   01 
   23 0001 0000 01DA 01DA   01 
   23 0001 0000 01DB 01DB   01 
   23 0001 0000 01DC 01DC   01 
   23 0001 0000 01DD 01DD   01 
   23 0001 0000 01DE 01DE   01 
   23 0001 0000 01DF 01DF   01 
   23 0001 0000 01E0 01E0   01 
   23 0001 0000 01E1 01E1   01 
   23 0001 0000 01E2 01E2   01 
   23 0001 0000 01E3 01E3   01 
   23 0001 0000 01E4 01E4   01 
   23 0001 0000 01E5 01E5   01 
   23 0001 0000 01E6 01E6   01 
   23 0001 0000 01E7 01E7   01 
   23 0001 0000 01E8 01E8   01 
   23 0001 0000 01E9 01E9   01 
   23 0001 0000 01EA 01EA   01 
   23 0001 0000 01EB 01EB   01 
   23 0001 0000 01EC 01EC   01 
   23 0001 0000 01ED 01ED   01 
   23 0001 0000 01EE 01EE   01 
   23 0001 0000 01EF 01EF   01 
   23 0001 0000 01F0 01F0   01 
   23 0001 0000 01F1 01F1   01 
   23 0001 0000 01F2 01F2   01 
   23 0001 0000 01F3 01F3   01 
   23 0001 0000 01F4 01F4   01 
   23 0001 0000 01F5 01F5   01 
   23 0001 0000 01F6 01F6   01 
   23 0001 0000 01F7 01F7   01 
   23 0001 0000 01F8 01F8   01 
   23 0001 0000 01F9 01F9   01 
   23 0001 0000 01FA 01FA   01 
   23 0001 0000 01FB 01FB   01 
   23 0001 0000 01FC 01FC   01 
   23 0001 0000 01FD 01FD   01 
   23 0001 0000 01FE 01FE   01 
   23 0001 0000 01FF 01FF   01 
                                                            .endr
                                                            .ends
                                                            
                                                            
                                                            .bank 0 slot 0
                                                            .org 0
                                                            
                                                            
   32 0000 0000 0000 0000   6D 65 68                        	.db	"meh"
   33 0000 0000 0003 0003   00                              Label:	nop
                                                            
                                                            .macro test_macro args some_number
                                                            	ld a,some_number
                                                            
                                                            .endm
   36 0000 0000 0004 0004   3E 00                           
                                                            	test_macro :Label
                                                            
                                                            
                                                            	
                                                            .section "reptman" force
                                                            repoman:
   46 0000 0000 0006 0006   0B 00                           .dw +
                                                            .rept 15
   48 0000 0000 0008 0008   30 01                               jr nc,+
   49 0000 0000 000A 000A   00 
   50 0000 0000 000B 000B   29 
   48 0000 0000 000C 000C   30 01 
   49 0000 0000 000E 000E   00 
   50 0000 0000 000F 000F   29 
   48 0000 0000 0010 0010   30 01 
   49 0000 0000 0012 0012   00 
   50 0000 0000 0013 0013   29 
   48 0000 0000 0014 0014   30 01 
   49 0000 0000 0016 0016   00 
   50 0000 0000 0017 0017   29 
   48 0000 0000 0018 0018   30 01 
   49 0000 0000 001A 001A   00 
   50 0000 0000 001B 001B   29 
   48 0000 0000 001C 001C   30 01 
   49 0000 0000 001E 001E   00 
   50 0000 0000 001F 001F   29 
   48 0000 0000 0020 0020   30 01 
   49 0000 0000 0022 0022   00 
   50 0000 0000 0023 0023   29 
   48 0000 0000 0024 0024   30 01 
   49 0000 0000 0026 0026   00 
   50 0000 0000 0027 0027   29 
   48 0000 0000 0028 0028   30 01 
   49 0000 0000 002A 002A   00 
   50 0000 0000 002B 002B   29 
   48 0000 0000 002C 002C   30 01 
   49 0000 0000 002E 002E   00 
   50 0000 0000 002F 002F   29 
   48 0000 0000 0030 0030   30 01 
   49 0000 0000 0032 0032   00 
   50 0000 0000 0033 0033   29 
   48 0000 0000 0034 0034   30 01 
   49 0000 0000 0036 0036   00 
   50 0000 0000 0037 0037   29 
   48 0000 0000 0038 0038   30 01 
   49 0000 0000 003A 003A   00 
   50 0000 0000 003B 003B   29 
   48 0000 0000 003C 003C   30 01 
   49 0000 0000 003E 003E   00 
   50 0000 0000 003F 003F   29 
   48 0000 0000 0040 0040   30 01 
   49 0000 0000 0042 0042   00 
   50 0000 0000 0043 0043   29 
                                                                nop
                                                              +:add hl,hl          ; hl*=2
                                                            .endr
   52 0000 0000 0044 0044   6D 6F 72 6F 21 0C               .db "moro!", repoman+6
                                                            .ends
                                                            
                                                            .slot 1
                                                            .section "16-bit multiplication with .rept" superfree
                                                            Multiply16_rept:
                                                            ; input: de,bc
                                                            ; output: de*bc
   60 0000 0001 02FC 00FC   B7                                  or a               ; clear carry
   61 0000 0001 02FD 00FD   21 00 00                            ld hl,$0000        ; zero hl
                                                            
                                                            .rept 15
   64 0000 0001 0300 0100   CB 13                               rl e
   65 0000 0001 0302 0102   CB 12 
   66 0000 0001 0304 0104   30 04 
   67 0000 0001 0306 0106   09 
   68 0000 0001 0307 0107   30 01 
   69 0000 0001 0309 0109   13 
   70 0000 0001 030A 010A   29 
   64 0000 0001 030B 010B   CB 13 
   65 0000 0001 030D 010D   CB 12 
   66 0000 0001 030F 010F   30 04 
   67 0000 0001 0311 0111   09 
   68 0000 0001 0312 0112   30 01 
   69 0000 0001 0314 0114   13 
   70 0000 0001 0315 0115   29 
   64 0000 0001 0316 0116   CB 13 
   65 0000 0001 0318 0118   CB 12 
   66 0000 0001 031A 011A   30 04 
   67 0000 0001 031C 011C   09 
   68 0000 0001 031D 011D   30 01 
   69 0000 0001 031F 011F   13 
   70 0000 0001 0320 0120   29 
   64 0000 0001 0321 0121   CB 13 
   65 0000 0001 0323 0123   CB 12 
   66 0000 0001 0325 0125   30 04 
   67 0000 0001 0327 0127   09 
   68 0000 0001 0328 0128   30 01 
   69 0000 0001 032A 012A   13 
   70 0000 0001 032B 012B   29 
   64 0000 0001 032C 012C   CB 13 
   65 0000 0001 032E 012E   CB 12 
   66 0000 0001 0330 0130   30 04 
   67 0000 0001 0332 0132   09 
   68 0000 0001 0333 0133   30 01 
   69 0000 0001 0335 0135   13 
   70 0000 0001 0336 0136   29 
   64 0000 0001 0337 0137   CB 13 
   65 0000 0001 0339 0139   CB 12 
   66 0000 0001 033B 013B   30 04 
   67 0000 0001 033D 013D   09 
   68 0000 0001 033E 013E   30 01 
   69 0000 0001 0340 0140   13 
   70 0000 0001 0341 0141   29 
   64 0000 0001 0342 0142   CB 13 
   65 0000 0001 0344 0144   CB 12 
   66 0000 0001 0346 0146   30 04 
   67 0000 0001 0348 0148   09 
   68 0000 0001 0349 0149   30 01 
   69 0000 0001 034B 014B   13 
   70 0000 0001 034C 014C   29 
   64 0000 0001 034D 014D   CB 13 
   65 0000 0001 034F 014F   CB 12 
   66 0000 0001 0351 0151   30 04 
   67 0000 0001 0353 0153   09 
   68 0000 0001 0354 0154   30 01 
   69 0000 0001 0356 0156   13 
   70 0000 0001 0357 0157   29 
   64 0000 0001 0358 0158   CB 13 
   65 0000 0001 035A 015A   CB 12 
   66 0000 0001 035C 015C   30 04 
   67 0000 0001 035E 015E   09 
   68 0000 0001 035F 015F   30 01 
   69 0000 0001 0361 0161   13 
   70 0000 0001 0362 0162   29 
   64 0000 0001 0363 0163   CB 13 
   65 0000 0001 0365 0165   CB 12 
   66 0000 0001 0367 0167   30 04 
   67 0000 0001 0369 0169   09 
   68 0000 0001 036A 016A   30 01 
   69 0000 0001 036C 016C   13 
   70 0000 0001 036D 016D   29 
   64 0000 0001 036E 016E   CB 13 
   65 0000 0001 0370 0170   CB 12 
   66 0000 0001 0372 0172   30 04 
   67 0000 0001 0374 0174   09 
   68 0000 0001 0375 0175   30 01 
   69 0000 0001 0377 0177   13 
   70 0000 0001 0378 0178   29 
   64 0000 0001 0379 0179   CB 13 
   65 0000 0001 037B 017B   CB 12 
   66 0000 0001 037D 017D   30 04 
   67 0000 0001 037F 017F   09 
   68 0000 0001 0380 0180   30 01 
   69 0000 0001 0382 0182   13 
   70 0000 0001 0383 0183   29 
   64 0000 0001 0384 0184   CB 13 
   65 0000 0001 0386 0186   CB 12 
   66 0000 0001 0388 0188   30 04 
   67 0000 0001 038A 018A   09 
   68 0000 0001 038B 018B   30 01 
   69 0000 0001 038D 018D   13 
   70 0000 0001 038E 018E   29 
   64 0000 0001 038F 018F   CB 13 
   65 0000 0001 0391 0191   CB 12 
   66 0000 0001 0393 0193   30 04 
   67 0000 0001 0395 0195   09 
   68 0000 0001 0396 0196   30 01 
   69 0000 0001 0398 0198   13 
   70 0000 0001 0399 0199   29 
   64 0000 0001 039A 019A   CB 13 
   65 0000 0001 039C 019C   CB 12 
   66 0000 0001 039E 019E   30 04 
   67 0000 0001 03A0 01A0   09 
   68 0000 0001 03A1 01A1   30 01 
   69 0000 0001 03A3 01A3   13 
   70 0000 0001 03A4 01A4   29 
                                                                rl d               ; de<<=1
                                                                jr nc,+
                                                                add hl,bc          ; if a bit was rotated out then add bc to hl
                                                                jr nc,+
                                                                inc de             ; if that hasn't overflowed then inc de
                                                              +:add hl,hl          ; hl*=2
                                                            .endr
   72 0000 0001 03A5 01A5   CB 13                               rl e
   73 0000 0001 03A7 01A7   CB 12                               rl d
   74 0000 0001 03A9 01A9   D0                                  ret nc
   75 0000 0001 03AA 01AA   09                                  add hl,bc
   76 0000 0001 03AB 01AB   D0                                  ret nc
   77 0000 0001 03AC 01AC   13                                  inc de
   78 0000 0001 03AD 01AD   C9                                  ret
                                                            .ends
                                                            
                                                            .section "16-bit multiplication" free
                                                            Multiply16:
                                                            ; input: de,bc
                                                            ; output: de*bc
   85 0000 0001 024A 004A   B7                                  or a               ; clear carry
   86 0000 0001 024B 004B   21 00 00                            ld hl,$0000        ; zero hl
                                                            
   88 0000 0001 024E 004E   CB 13                               rl e
   89 0000 0001 0250 0050   CB 12                               rl d               ; de<<=1
   90 0000 0001 0252 0052   30 04                               jr nc,+
   91 0000 0001 0254 0054   09                                  add hl,bc          ; if a bit was rotated out then add bc to hl
   92 0000 0001 0255 0055   30 01                               jr nc,+
   93 0000 0001 0257 0057   13                                  inc de             ; if that hasn't overflowed then inc de
   94 0000 0001 0258 0058   29                                +:add hl,hl          ; hl*=2
   95 0000 0001 0259 0059   CB 13                               rl e
   96 0000 0001 025B 005B   CB 12                               rl d               ; de<<=1
   97 0000 0001 025D 005D   30 04                               jr nc,+
   98 0000 0001 025F 005F   09                                  add hl,bc          ; if a bit was rotated out then add bc to hl
   99 0000 0001 0260 0060   30 01                               jr nc,+
  100 0000 0001 0262 0062   13                                  inc de             ; if that hasn't overflowed then inc de
  101 0000 0001 0263 0063   29                                +:add hl,hl          ; hl*=2
  102 0000 0001 0264 0064   CB 13                               rl e
  103 0000 0001 0266 0066   CB 12                               rl d               ; de<<=1
  104 0000 0001 0268 0068   30 04                               jr nc,+
  105 0000 0001 026A 006A   09                                  add hl,bc          ; if a bit was rotated out then add bc to hl
  106 0000 0001 026B 006B   30 01                               jr nc,+
  107 0000 0001 026D 006D   13                                  inc de             ; if that hasn't overflowed then inc de
  108 0000 0001 026E 006E   29                                +:add hl,hl          ; hl*=2
  109 0000 0001 026F 006F   CB 13                               rl e
  110 0000 0001 0271 0071   CB 12                               rl d               ; de<<=1
  111 0000 0001 0273 0073   30 04                               jr nc,+
  112 0000 0001 0275 0075   09                                  add hl,bc          ; if a bit was rotated out then add bc to hl
  113 0000 0001 0276 0076   30 01                               jr nc,+
  114 0000 0001 0278 0078   13                                  inc de             ; if that hasn't overflowed then inc de
  115 0000 0001 0279 0079   29                                +:add hl,hl          ; hl*=2
  116 0000 0001 027A 007A   CB 13                               rl e
  117 0000 0001 027C 007C   CB 12                               rl d               ; de<<=1
  118 0000 0001 027E 007E   30 04                               jr nc,+
  119 0000 0001 0280 0080   09                                  add hl,bc          ; if a bit was rotated out then add bc to hl
  120 0000 0001 0281 0081   30 01                               jr nc,+
  121 0000 0001 0283 0083   13                                  inc de             ; if that hasn't overflowed then inc de
  122 0000 0001 0284 0084   29                                +:add hl,hl          ; hl*=2
  123 0000 0001 0285 0085   CB 13                               rl e
  124 0000 0001 0287 0087   CB 12                               rl d               ; de<<=1
  125 0000 0001 0289 0089   30 04                               jr nc,+
  126 0000 0001 028B 008B   09                                  add hl,bc          ; if a bit was rotated out then add bc to hl
  127 0000 0001 028C 008C   30 01                               jr nc,+
  128 0000 0001 028E 008E   13                                  inc de             ; if that hasn't overflowed then inc de
  129 0000 0001 028F 008F   29                                +:add hl,hl          ; hl*=2
  130 0000 0001 0290 0090   CB 13                               rl e
  131 0000 0001 0292 0092   CB 12                               rl d               ; de<<=1
  132 0000 0001 0294 0094   30 04                               jr nc,+
  133 0000 0001 0296 0096   09                                  add hl,bc          ; if a bit was rotated out then add bc to hl
  134 0000 0001 0297 0097   30 01                               jr nc,+
  135 0000 0001 0299 0099   13                                  inc de             ; if that hasn't overflowed then inc de
  136 0000 0001 029A 009A   29                                +:add hl,hl          ; hl*=2
  137 0000 0001 029B 009B   CB 13                               rl e
  138 0000 0001 029D 009D   CB 12                               rl d               ; de<<=1
  139 0000 0001 029F 009F   30 04                               jr nc,+
  140 0000 0001 02A1 00A1   09                                  add hl,bc          ; if a bit was rotated out then add bc to hl
  141 0000 0001 02A2 00A2   30 01                               jr nc,+
  142 0000 0001 02A4 00A4   13                                  inc de             ; if that hasn't overflowed then inc de
  143 0000 0001 02A5 00A5   29                                +:add hl,hl          ; hl*=2
  144 0000 0001 02A6 00A6   CB 13                               rl e
  145 0000 0001 02A8 00A8   CB 12                               rl d               ; de<<=1
  146 0000 0001 02AA 00AA   30 04                               jr nc,+
  147 0000 0001 02AC 00AC   09                                  add hl,bc          ; if a bit was rotated out then add bc to hl
  148 0000 0001 02AD 00AD   30 01                               jr nc,+
  149 0000 0001 02AF 00AF   13                                  inc de             ; if that hasn't overflowed then inc de
  150 0000 0001 02B0 00B0   29                                +:add hl,hl          ; hl*=2
  151 0000 0001 02B1 00B1   CB 13                               rl e
  152 0000 0001 02B3 00B3   CB 12                               rl d               ; de<<=1
  153 0000 0001 02B5 00B5   30 04                               jr nc,+
  154 0000 0001 02B7 00B7   09                                  add hl,bc          ; if a bit was rotated out then add bc to hl
  155 0000 0001 02B8 00B8   30 01                               jr nc,+
  156 0000 0001 02BA 00BA   13                                  inc de             ; if that hasn't overflowed then inc de
  157 0000 0001 02BB 00BB   29                                +:add hl,hl          ; hl*=2
  158 0000 0001 02BC 00BC   CB 13                               rl e
  159 0000 0001 02BE 00BE   CB 12                               rl d               ; de<<=1
  160 0000 0001 02C0 00C0   30 04                               jr nc,+
  161 0000 0001 02C2 00C2   09                                  add hl,bc          ; if a bit was rotated out then add bc to hl
  162 0000 0001 02C3 00C3   30 01                               jr nc,+
  163 0000 0001 02C5 00C5   13                                  inc de             ; if that hasn't overflowed then inc de
  164 0000 0001 02C6 00C6   29                                +:add hl,hl          ; hl*=2
  165 0000 0001 02C7 00C7   CB 13                               rl e
  166 0000 0001 02C9 00C9   CB 12                               rl d               ; de<<=1
  167 0000 0001 02CB 00CB   30 04                               jr nc,+
  168 0000 0001 02CD 00CD   09                                  add hl,bc          ; if a bit was rotated out then add bc to hl
  169 0000 0001 02CE 00CE   30 01                               jr nc,+
  170 0000 0001 02D0 00D0   13                                  inc de             ; if that hasn't overflowed then inc de
  171 0000 0001 02D1 00D1   29                                +:add hl,hl          ; hl*=2
  172 0000 0001 02D2 00D2   CB 13                               rl e
  173 0000 0001 02D4 00D4   CB 12                               rl d               ; de<<=1
  174 0000 0001 02D6 00D6   30 04                               jr nc,+
  175 0000 0001 02D8 00D8   09                                  add hl,bc          ; if a bit was rotated out then add bc to hl
  176 0000 0001 02D9 00D9   30 01                               jr nc,+
  177 0000 0001 02DB 00DB   13                                  inc de             ; if that hasn't overflowed then inc de
  178 0000 0001 02DC 00DC   29                                +:add hl,hl          ; hl*=2
  179 0000 0001 02DD 00DD   CB 13                               rl e
  180 0000 0001 02DF 00DF   CB 12                               rl d               ; de<<=1
  181 0000 0001 02E1 00E1   30 04                               jr nc,+
  182 0000 0001 02E3 00E3   09                                  add hl,bc          ; if a bit was rotated out then add bc to hl
  183 0000 0001 02E4 00E4   30 01                               jr nc,+
  184 0000 0001 02E6 00E6   13                                  inc de             ; if that hasn't overflowed then inc de
  185 0000 0001 02E7 00E7   29                                +:add hl,hl          ; hl*=2
  186 0000 0001 02E8 00E8   CB 13                               rl e
  187 0000 0001 02EA 00EA   CB 12                               rl d               ; de<<=1
  188 0000 0001 02EC 00EC   30 04                               jr nc,+
  189 0000 0001 02EE 00EE   09                                  add hl,bc          ; if a bit was rotated out then add bc to hl
  190 0000 0001 02EF 00EF   30 01                               jr nc,+
  191 0000 0001 02F1 00F1   13                                  inc de             ; if that hasn't overflowed then inc de
  192 0000 0001 02F2 00F2   29                                +:add hl,hl          ; hl*=2
                                                            
  194 0000 0001 02F3 00F3   CB 13                               rl e
  195 0000 0001 02F5 00F5   CB 12                               rl d
  196 0000 0001 02F7 00F7   D0                                  ret nc
  197 0000 0001 02F8 00F8   09                                  add hl,bc
  198 0000 0001 02F9 00F9   D0                                  ret nc
  199 0000 0001 02FA 00FA   13                                  inc de
  200 0000 0001 02FB 00FB   C9                                  ret
                                                            .ends
